0:Math_pow
1:abort
2:enlargeMemory
3:getTotalMemory
4:abortOnCannotGrowMemory
5:invoke_dii
6:invoke_i
7:invoke_ii
8:invoke_iii
9:invoke_iiii
10:invoke_iiiii
11:invoke_iiiiii
12:invoke_iiiiiii
13:invoke_iiiiiiii
14:invoke_iiiiiiiii
15:invoke_iiiiiiiiii
16:invoke_iiiiiiiiiii
17:invoke_v
18:invoke_vi
19:invoke_vii
20:invoke_viifi
21:invoke_viii
22:invoke_viiii
23:invoke_viiiii
24:invoke_viiiiii
25:invoke_viiiiiii
26:invoke_viiiiiiii
27:invoke_viiiiiiiiii
28:_JS_Cursor_SetImage
29:_JS_Cursor_SetShow
30:_JS_Eval_ClearTimeout
31:_JS_Eval_SetTimeout
32:_JS_FileSystem_SetSyncInterval
33:_JS_FileSystem_Sync
34:_JS_Log_StackTrace
35:_JS_Sound_Create_Channel
36:_JS_Sound_GetLength
37:_JS_Sound_GetLoadState
38:_JS_Sound_Init
39:_JS_Sound_Load
40:_JS_Sound_Load_PCM
41:_JS_Sound_Play
42:_JS_Sound_ReleaseInstance
43:_JS_Sound_Set3D
44:_JS_Sound_SetListenerOrientation
45:_JS_Sound_SetListenerPosition
46:_JS_Sound_SetLoop
47:_JS_Sound_SetLoopPoints
48:_JS_Sound_SetPitch
49:_JS_Sound_SetPosition
50:_JS_Sound_SetVolume
51:_JS_Sound_Stop
52:_JS_SystemInfo_GetBrowserName
53:_JS_SystemInfo_GetBrowserVersionString
54:_JS_SystemInfo_GetCurrentCanvasHeight
55:_JS_SystemInfo_GetCurrentCanvasWidth
56:_JS_SystemInfo_GetDocumentURL
57:_JS_SystemInfo_GetGPUInfo
58:_JS_SystemInfo_GetHeight
59:_JS_SystemInfo_GetLanguage
60:_JS_SystemInfo_GetMemory
61:_JS_SystemInfo_GetOS
62:_JS_SystemInfo_GetWidth
63:_JS_SystemInfo_HasCursorLock
64:_JS_SystemInfo_HasFullscreen
65:_JS_SystemInfo_HasWebGL
66:_JS_WebGL_InitContextAttributes
67:_JS_WebRequest_Abort
68:_JS_WebRequest_Create
69:_JS_WebRequest_GetResponseHeaders
70:_JS_WebRequest_Release
71:_JS_WebRequest_Send
72:_JS_WebRequest_SetProgressHandler
73:_JS_WebRequest_SetRequestHeader
74:_JS_WebRequest_SetResponseHandler
75:_JS_WebRequest_SetTimeout
76:_SDL_GL_SwapBuffers
77:___cxa_allocate_exception
78:___cxa_begin_catch
79:___cxa_end_catch
80:___cxa_find_matching_catch_2
81:___cxa_find_matching_catch_3
82:___cxa_find_matching_catch_4
83:___cxa_free_exception
84:___cxa_pure_virtual
85:___cxa_rethrow
86:___cxa_throw
87:___lock
88:___map_file
89:___resumeException
90:___setErrNo
91:___syscall10
92:___syscall122
93:___syscall140
94:___syscall142
95:___syscall145
96:___syscall146
97:___syscall15
98:___syscall183
99:___syscall192
100:___syscall193
101:___syscall194
102:___syscall195
103:___syscall196
104:___syscall197
105:___syscall199
106:___syscall220
107:___syscall221
108:___syscall268
109:___syscall3
110:___syscall33
111:___syscall38
112:___syscall39
113:___syscall4
114:___syscall40
115:___syscall41
116:___syscall5
117:___syscall54
118:___syscall6
119:___syscall77
120:___syscall85
121:___syscall91
122:___unlock
123:_abort
124:_atexit
125:_clock
126:_clock_getres
127:_clock_gettime
128:_difftime
129:_dlclose
130:_dlopen
131:_dlsym
132:_emscripten_cancel_main_loop
133:_emscripten_exit_fullscreen
134:_emscripten_exit_pointerlock
135:_emscripten_get_fullscreen_status
136:_emscripten_get_gamepad_status
137:_emscripten_get_main_loop_timing
138:_emscripten_get_now
139:_emscripten_get_num_gamepads
140:_emscripten_has_threading_support
141:_emscripten_is_webgl_context_lost
142:_emscripten_log
143:_emscripten_memcpy_big
144:_emscripten_num_logical_cores
145:_emscripten_request_fullscreen
146:_emscripten_request_pointerlock
147:_emscripten_set_blur_callback
148:_emscripten_set_canvas_size
149:_emscripten_set_devicemotion_callback
150:_emscripten_set_deviceorientation_callback
151:_emscripten_set_focus_callback
152:_emscripten_set_fullscreenchange_callback
153:_emscripten_set_keydown_callback
154:_emscripten_set_keypress_callback
155:_emscripten_set_keyup_callback
156:_emscripten_set_main_loop
157:_emscripten_set_main_loop_timing
158:_emscripten_set_mousedown_callback
159:_emscripten_set_mousemove_callback
160:_emscripten_set_mouseup_callback
161:_emscripten_set_touchcancel_callback
162:_emscripten_set_touchend_callback
163:_emscripten_set_touchmove_callback
164:_emscripten_set_touchstart_callback
165:_emscripten_set_wheel_callback
166:_emscripten_webgl_create_context
167:_emscripten_webgl_destroy_context
168:_emscripten_webgl_enable_extension
169:_emscripten_webgl_get_current_context
170:_emscripten_webgl_make_context_current
171:_exit
172:_flock
173:_getenv
174:_getpwuid
175:_gettimeofday
176:_glActiveTexture
177:_glAttachShader
178:_glBeginQuery
179:_glBeginTransformFeedback
180:_glBindAttribLocation
181:_glBindBuffer
182:_glBindBufferBase
183:_glBindFramebuffer
184:_glBindRenderbuffer
185:_glBindSampler
186:_glBindTexture
187:_glBindTransformFeedback
188:_glBindVertexArray
189:_glBlendEquation
190:_glBlendEquationSeparate
191:_glBlendFuncSeparate
192:_glBlitFramebuffer
193:_glBufferData
194:_glBufferSubData
195:_glCheckFramebufferStatus
196:_glClear
197:_glClearColor
198:_glClearDepthf
199:_glClearStencil
200:_glColorMask
201:_glCompileShader
202:_glCompressedTexImage2D
203:_glCompressedTexSubImage2D
204:_glCompressedTexSubImage3D
205:_glCopyBufferSubData
206:_glCopyTexImage2D
207:_glCopyTexSubImage2D
208:_glCreateProgram
209:_glCreateShader
210:_glCullFace
211:_glDeleteBuffers
212:_glDeleteFramebuffers
213:_glDeleteProgram
214:_glDeleteQueries
215:_glDeleteRenderbuffers
216:_glDeleteSamplers
217:_glDeleteShader
218:_glDeleteSync
219:_glDeleteTextures
220:_glDeleteTransformFeedbacks
221:_glDeleteVertexArrays
222:_glDepthFunc
223:_glDepthMask
224:_glDetachShader
225:_glDisable
226:_glDisableVertexAttribArray
227:_glDrawArrays
228:_glDrawArraysInstanced
229:_glDrawBuffers
230:_glDrawElements
231:_glDrawElementsInstanced
232:_glEnable
233:_glEnableVertexAttribArray
234:_glEndQuery
235:_glEndTransformFeedback
236:_glFenceSync
237:_glFinish
238:_glFlush
239:_glFlushMappedBufferRange
240:_glFramebufferRenderbuffer
241:_glFramebufferTexture2D
242:_glFramebufferTextureLayer
243:_glFrontFace
244:_glGenBuffers
245:_glGenFramebuffers
246:_glGenQueries
247:_glGenRenderbuffers
248:_glGenSamplers
249:_glGenTextures
250:_glGenTransformFeedbacks
251:_glGenVertexArrays
252:_glGenerateMipmap
253:_glGetActiveAttrib
254:_glGetActiveUniform
255:_glGetActiveUniformBlockName
256:_glGetActiveUniformBlockiv
257:_glGetActiveUniformsiv
258:_glGetAttribLocation
259:_glGetError
260:_glGetFramebufferAttachmentParameteriv
261:_glGetIntegeri_v
262:_glGetIntegerv
263:_glGetProgramBinary
264:_glGetProgramInfoLog
265:_glGetProgramiv
266:_glGetRenderbufferParameteriv
267:_glGetShaderInfoLog
268:_glGetShaderPrecisionFormat
269:_glGetShaderSource
270:_glGetShaderiv
271:_glGetString
272:_glGetStringi
273:_glGetTexParameteriv
274:_glGetUniformBlockIndex
275:_glGetUniformIndices
276:_glGetUniformLocation
277:_glGetUniformiv
278:_glGetVertexAttribiv
279:_glInvalidateFramebuffer
280:_glIsEnabled
281:_glIsVertexArray
282:_glLinkProgram
283:_glMapBufferRange
284:_glPixelStorei
285:_glPolygonOffset
286:_glProgramBinary
287:_glProgramParameteri
288:_glReadBuffer
289:_glReadPixels
290:_glRenderbufferStorage
291:_glRenderbufferStorageMultisample
292:_glSamplerParameteri
293:_glScissor
294:_glShaderSource
295:_glStencilFuncSeparate
296:_glStencilMask
297:_glStencilOpSeparate
298:_glTexImage2D
299:_glTexImage3D
300:_glTexParameterf
301:_glTexParameteri
302:_glTexParameteriv
303:_glTexStorage2D
304:_glTexStorage3D
305:_glTexSubImage2D
306:_glTexSubImage3D
307:_glTransformFeedbackVaryings
308:_glUniform1fv
309:_glUniform1i
310:_glUniform1iv
311:_glUniform1uiv
312:_glUniform2fv
313:_glUniform2iv
314:_glUniform2uiv
315:_glUniform3fv
316:_glUniform3iv
317:_glUniform3uiv
318:_glUniform4fv
319:_glUniform4iv
320:_glUniform4uiv
321:_glUniformBlockBinding
322:_glUniformMatrix3fv
323:_glUniformMatrix4fv
324:_glUnmapBuffer
325:_glUseProgram
326:_glValidateProgram
327:_glVertexAttrib4f
328:_glVertexAttrib4fv
329:_glVertexAttribIPointer
330:_glVertexAttribPointer
331:_glViewport
332:_gmtime
333:_llvm_eh_typeid_for
334:_llvm_trap
335:_localtime
336:_longjmp
337:_mktime
338:_pthread_attr_destroy
339:_pthread_attr_init
340:_pthread_cond_destroy
341:_pthread_cond_init
342:_pthread_cond_signal
343:_pthread_cond_timedwait
344:_pthread_cond_wait
345:_pthread_create
346:_pthread_detach
347:_pthread_getspecific
348:_pthread_key_create
349:_pthread_key_delete
350:_pthread_mutex_destroy
351:_pthread_mutex_init
352:_pthread_mutexattr_destroy
353:_pthread_mutexattr_init
354:_pthread_mutexattr_settype
355:_pthread_once
356:_pthread_rwlock_init
357:_pthread_rwlock_rdlock
358:_pthread_rwlock_unlock
359:_pthread_rwlock_wrlock
360:_pthread_setspecific
361:_sched_yield
362:_setenv
363:_sigaction
364:_sigemptyset
365:_strftime
366:_sysconf
367:_time
368:_unsetenv
369:_utime
370:legalimport$invoke_iiiijii
371:legalimport$invoke_iiijiii
372:legalimport$invoke_iij
373:legalimport$invoke_j
374:legalimport$invoke_ji
375:legalimport$invoke_jii
376:legalimport$invoke_jiii
377:legalimport$invoke_jiiii
378:legalimport$invoke_jiiiii
379:legalimport$invoke_jiiiiiiiiii
380:legalimport$invoke_jiiji
381:legalimport$invoke_jijiii
382:legalimport$invoke_jijj
383:legalimport$invoke_viij
384:legalimport$invoke_viiji
385:legalimport$invoke_viji
386:legalimport$_glClientWaitSync
387:__growWasmMemory
388:stackAlloc
389:stackSave
390:stackRestore
391:establishStackSpace
392:setThrew
393:setTempRet0
394:getTempRet0
395:__GLOBAL__sub_I_AccessibilityScriptingClasses_cpp
396:__ZN9Scripting11UnityEngine13AccessibilityL54__ManagedRegistrationHelperFunction_VisionUtilityProxyEPv
397:__ZN9Scripting11UnityEngine13Accessibility18VisionUtilityProxy9InitProxyEv
398:__ZN9Scripting11UnityEngine13Accessibility18VisionUtilityProxy12CleanupProxyEv
399:__ZN13dynamic_arrayIPK10ModuleSpecLj0EE4growEv
400:__ZN17CallbackArrayBaseIPFvvEPFvPKvEE8RegisterES1_S5_S3_
401:___cxx_global_var_init
402:__GLOBAL__sub_I_AIScriptingClasses_cpp
403:__ZN9Scripting11UnityEngine2AIL48__ManagedRegistrationHelperFunction_NavMeshProxyEPv
404:__ZN9Scripting11UnityEngine2AIL59__ManagedRegistrationHelperFunction_NavMeshBuildSourceProxyEPv
405:__ZN9Scripting11UnityEngine2AIL61__ManagedRegistrationHelperFunction_NavMeshTriangulationProxyEPv
406:__ZN9Scripting11UnityEngine2AI25NavMeshTriangulationProxy9InitProxyEv
407:__ZN9Scripting11UnityEngine2AI25NavMeshTriangulationProxy12CleanupProxyEv
408:__ZN9Scripting11UnityEngine2AI23NavMeshBuildSourceProxy9InitProxyEv
409:__ZN9Scripting11UnityEngine2AI23NavMeshBuildSourceProxy12CleanupProxyEv
410:__ZN9Scripting11UnityEngine2AI12NavMeshProxy9InitProxyEv
411:__ZN9Scripting11UnityEngine2AI12NavMeshProxy12CleanupProxyEv
412:__ZN6Object21AwakeFromLoadThreadedEv
413:__ZN6Object17IsAScriptedObjectEv
414:__ZNK16LevelGameManager7GetNameEv
415:__ZN6Object7SetNameEPKc
416:__ZN6Object12SetHideFlagsENS_9HideFlagsE
417:__Z12TransferPPtrI14SafeBinaryReadEvRiRT_
418:__Z12TransferPPtrI18StreamedBinaryReadEvRiRT_
419:__Z12TransferPPtrI19StreamedBinaryWriteEvRiRT_
420:__ZNK9Behaviour10HasEnabledEv
421:__ZNK9Behaviour10GetEnabledEv
422:__ZNSt3__213__tree_removeIPNS_16__tree_node_baseIPvEEEEvT_S5_
423:__ZN13dynamic_arrayIyLj0EE21resize_buffer_nocheckEj12ResizePolicy
424:__ZN13dynamic_arrayIiLj0EE21resize_buffer_nocheckEj12ResizePolicy
425:__ZN13dynamic_arrayIiLj0EED2Ev
426:__Z17CalculateGlobalRS23TransformAccessReadOnly
427:__Z23CalculateGlobalPosition23TransformAccessReadOnly
428:__ZN15EditorExtensionD2Ev
429:__ZN15EditorExtensionD0Ev
430:__ZNK15EditorExtension22GetTypeVirtualInternalEv
431:__ZNK6Object7GetNameEv
432:__ZN8Vector3f8TransferI14SafeBinaryReadEEvRT_
433:__ZNK4PPtrI9TransformEcvPS0_Ev
434:__ZNK4PPtrI9TransformEptEv
435:__ZNK11NamedObject7GetNameEv
436:__ZN4AABB8TransferI14SafeBinaryReadEEvRT_
437:__ZN11Quaternionf8TransferI14SafeBinaryReadEEvRT_
438:__ZN14SafeBinaryRead21TransferSTLStyleArrayI13dynamic_arrayI8Vector3fLj0EEEEvRT_17TransferMetaFlags
439:__ZN14SafeBinaryRead21TransferSTLStyleArrayI13dynamic_arrayIiLj0EEEEvRT_17TransferMetaFlags
440:__ZN13dynamic_arrayI8Vector3fLj0EE21resize_buffer_nocheckEj12ResizePolicy
441:__ZN14SafeBinaryRead21TransferSTLStyleArrayI13dynamic_arrayIhLj0EEEEvRT_17TransferMetaFlags
442:__ZN7Hash1288TransferI14SafeBinaryReadEEvRT_
443:__ZN13dynamic_arrayIhLj0EE21resize_buffer_nocheckEj12ResizePolicy
444:__ZN7Hash1288TransferI24GenerateTypeTreeTransferEEvRT_
445:__ZN11Quaternionf8TransferI24GenerateTypeTreeTransferEEvRT_
446:__ZN18StreamedBinaryRead8TransferI13dynamic_arrayIhLj0EEEEvRT_PKc17TransferMetaFlags
447:__ZN7Hash1288TransferI18StreamedBinaryReadEEvRT_
448:__ZN4AABB8TransferI18StreamedBinaryReadEEvRT_
449:__ZN18StreamedBinaryRead8TransferI11QuaternionfEEvRT_PKc17TransferMetaFlags
450:__ZN18StreamedBinaryRead8TransferI13dynamic_arrayIiLj0EEEEvRT_PKc17TransferMetaFlags
451:__ZN4AABB8TransferI19StreamedBinaryWriteEEvRT_
452:__ZN7Hash1288TransferI19StreamedBinaryWriteEEvRT_
453:__ZN4core20StringStorageDefaultIcE6assignEPKcj
454:__ZN14SafeBinaryRead21TransferSTLStyleArrayINSt3__26vectorIN4core12basic_stringIcNS3_20StringStorageDefaultIcEEEENS1_9allocatorIS7_EEEEEEvRT_17TransferMetaFlags
455:__ZNSt3__26vectorIN4core12basic_stringIcNS1_20StringStorageDefaultIcEEEENS_9allocatorIS5_EEE8__appendEj
456:__Z14resize_trimmedINSt3__26vectorIN4core12basic_stringIcNS2_20StringStorageDefaultIcEEEENS0_9allocatorIS6_EEEEEvRT_j
457:__ZN14SafeBinaryRead21TransferSTLStyleArrayIN4core12basic_stringIcNS1_20StringStorageDefaultIcEEEEEEvRT_17TransferMetaFlags
458:__ZN4core20StringStorageDefaultIcE10reallocateEj
459:__ZNSt3__26vectorIN4core12basic_stringIcNS1_20StringStorageDefaultIcEEEENS_9allocatorIS5_EEE7reserveEj
460:__ZNSt3__26vectorIN4core12basic_stringIcNS1_20StringStorageDefaultIcEEEENS_9allocatorIS5_EEE6assignINS_11__wrap_iterIPS5_EEEENS_9enable_ifIXaasr21__is_forward_iteratorIT_EE5valuesr16is_constructibleIS5_NS_15iterator_traitsISE_E9referenceEEE5valueEvE4typeESE_SE_
461:__ZN18StreamedBinaryRead21TransferSTLStyleArrayIN4core12basic_stringIcNS1_20StringStorageDefaultIcEEEEEEvRT_17TransferMetaFlags
462:__ZN19StreamedBinaryWrite21TransferSTLStyleArrayIN4core12basic_stringIcNS1_20StringStorageDefaultIcEEEEEEvRT_17TransferMetaFlags
463:__ZNK4PPtrI6ObjectEcvPS0_Ev
464:__ZNSt3__227__tree_balance_after_insertIPNS_16__tree_node_baseIPvEEEEvT_S5_
465:__ZN13dynamic_arrayI8Vector3fLj0EE4growEv
466:__ZN13dynamic_arrayItLj0EE21resize_buffer_nocheckEj12ResizePolicy
467:__ZN13dynamic_arrayI8Vector2fLj0EE21resize_buffer_nocheckEj12ResizePolicy
468:__ZNSt3__26vectorIN4core12basic_stringIcNS1_20StringStorageDefaultIcEEEENS_9allocatorIS5_EEE21__push_back_slow_pathIRKS5_EEvOT_
469:__Z18TransformDirection23TransformAccessReadOnlyRKN4math7_float3E
470:__Z24InverseTransformRotationRK23TransformAccessReadOnlyRKN4math7_float4E
471:__Z9SetLocalR15TransformAccessRKN4math7_float4Ey
472:__Z24InverseTransformPosition23TransformAccessReadOnlyRKN4math7_float3E
473:__Z25InverseTransformDirection23TransformAccessReadOnlyRKN4math7_float3Eb
474:__ZN13dynamic_arrayI8Vector2fLj0EEC2Ej10MemLabelId
475:__ZNSt3__26vectorIN4core12basic_stringIcNS1_20StringStorageDefaultIcEEEENS_9allocatorIS5_EEE21__push_back_slow_pathIS5_EEvOT_
476:__GLOBAL__sub_I_AnimationScriptingClasses_cpp
477:__GLOBAL__sub_I_Runtime_Animation_1_cpp
478:__GLOBAL__sub_I_Runtime_Animation_3_cpp
479:__GLOBAL__sub_I_Runtime_Animation_6_cpp
480:__GLOBAL__sub_I_AnimationClip_cpp
481:__GLOBAL__sub_I_Avatar_cpp
482:__GLOBAL__sub_I_ConstraintManager_cpp
483:__ZN13dynamic_arrayIN4core12basic_stringIcNS0_20StringStorageDefaultIcEEEELj0EED2Ev
484:__ZN13RuntimeStaticI17ConstraintManagerLb0EE16StaticInitializeEPv
485:__ZN13RuntimeStaticI17ConstraintManagerLb0EE13StaticDestroyEPv
486:__ZN24StaticInitializeInternal13ConstructTypeI17ConstraintManagerLb0EEEPvS2_10MemLabelId
487:__ZZN17ConstraintManager15InitializeClassEvEN47PreLateUpdateConstraintManagerUpdateRegistrator7ForwardEv
488:__ZN17ConstraintManagerD2Ev
489:__ZN17ConstraintManagerD0Ev
490:__ZN17ConstraintManager6UpdateEv
491:__ZN4core8hash_setINS_4pairIKPK10GameObjectiLb0EEENS_9hash_pairINS_4hashIS4_EES5_iEENS_10equal_pairINSt3__28equal_toIS4_EES5_iEEE4growEi
492:__ZN4core8hash_mapIPK10GameObjectiNS_4hashIS3_EENSt3__28equal_toIS3_EEEixERKS3_
493:__ZN4core8hash_setIPN5Unity9ComponentENS_4hashIS3_EENSt3__28equal_toIS3_EEE4growEi
494:__ZL23GetComponentsInChildrenRK10GameObjectPFbRKN5Unity9ComponentEERN4core8hash_setIPS3_NS8_4hashISA_EENSt3__28equal_toISA_EEEE
495:__ZNSt3__26__sortIR23DependencySortPredicatePN4core4pairIiP9BehaviourLb0EEEEEvT0_S9_T_
496:__ZL32GetComponentsInConstraintSourcesRK11IConstraintPFbRKN5Unity9ComponentEERN4core8hash_setIPS3_NS8_4hashISA_EENSt3__28equal_toISA_EEEE
497:__ZN13dynamic_arrayIN4core4pairIiS_IP9BehaviourLj0EELb1EEELj0EED2Ev
498:__ZN13dynamic_arrayIN4math4trsXELj0EE21resize_buffer_nocheckEj12ResizePolicy
499:__ZN13ConstraintJob18ComputeConstraintsEPNS_17ConstraintJobDataEj
500:__ZN13dynamic_arrayIN13ConstraintJob23ConstraintComponentDataELj0EE4growEv
501:__ZN13ConstraintJob23ConstraintComponentDataC2ERKS0_
502:__ZN13dynamic_arrayIN13ConstraintJob23ConstraintComponentDataELj0EED2Ev
503:__Z11SetLocalTRS15TransformAccessRKN4math7_float3ERKNS0_7_float4ES3_y
504:__ZN13ConstraintJob23ConstraintComponentDataC2ERK16LookAtConstraint
505:__ZL21InitConstraintSourcesRK13dynamic_arrayI16ConstraintSourceLj0EERS_I23TransformAccessReadOnlyLj0EERS_IfLj0EE
506:__ZN13ConstraintJob23ConstraintComponentDataC2ERK16ParentConstraint
507:__ZN13ConstraintJob23ConstraintComponentDataC2ERK13AimConstraint
508:__ZN13ConstraintJob23ConstraintComponentDataC2ERK15ScaleConstraint
509:__ZN13ConstraintJob23ConstraintComponentDataC2ERK18RotationConstraint
510:__ZN13ConstraintJob23ConstraintComponentDataC2ERK18PositionConstraint
511:__Z21InverseTransformScale23TransformAccessReadOnlyRKN4math7_float3E
512:__ZN13dynamic_arrayIN4math7affineXELj0EEC2Ej10MemLabelId
513:__Z34CalculateGlobalPositionAndRotation23TransformAccessReadOnlyRKN4math7_float3ERKNS0_7_float4E
514:__ZL17quatArcRotateSafeRKN4math7_float3ES2_
515:__ZL22GetComponentsInParentsRK10GameObjectPFbRKN5Unity9ComponentEERN4core8hash_setIPS3_NS8_4hashISA_EENSt3__28equal_toISA_EEEE
516:__ZN4core8hash_setIPN5Unity9ComponentENS_4hashIS3_EENSt3__28equal_toIS3_EEE6insertERKS3_
517:__ZNSt3__27__sort4IR23DependencySortPredicatePN4core4pairIiP9BehaviourLb0EEEEEjT0_S9_S9_S9_T_
518:__ZNSt3__227__insertion_sort_incompleteIR23DependencySortPredicatePN4core4pairIiP9BehaviourLb0EEEEEbT0_S9_T_
519:__ZN13RuntimeStaticI15AnimationBinderLb0EE16StaticInitializeEPv
520:__ZN13RuntimeStaticI15AnimationBinderLb0EE13StaticDestroyEPv
521:__ZN15AnimationBinderD2Ev
522:__ZNSt3__26__treeINS_12__value_typeIPKN5Unity4TypeEPK8TypeTreeEENS_19__map_value_compareIS5_S9_NS_4lessIS5_EELb1EEENS_9allocatorIS9_EEE7destroyEPNS_11__tree_nodeIS9_PvEE
523:__ZN24StaticInitializeInternal13ConstructTypeI15AnimationBinderLb0EEEPvS2_10MemLabelId
524:__ZN11UnityEngine9Animation38InitializeGenericAnimationBindingCacheEPv
525:__ZN11UnityEngine9Animation35CleanupGenericAnimationBindingCacheEPv
526:__ZN11UnityEngine9Animation28GenericAnimationBindingCacheD2Ev
527:__ZN11UnityEngine9Animation28GenericAnimationBindingCache15DidReloadDomainE19AssemblyLoadFailure
528:__ZN11UnityEngine9Animation28GenericAnimationBindingCacheC2Ev
529:__ZN9Scripting11UnityEngineL55__ManagedRegistrationHelperFunction_AnimationEventProxyEPv
530:__ZN9Scripting11UnityEngine10AnimationsL54__ManagedRegistrationHelperFunction_AimConstraintProxyEPv
531:__ZN9Scripting11UnityEngine10AnimationsL62__ManagedRegistrationHelperFunction_AnimationClipPlayableProxyEPv
532:__ZN9Scripting11UnityEngine10AnimationsL68__ManagedRegistrationHelperFunction_AnimationLayerMixerPlayableProxyEPv
533:__ZN9Scripting11UnityEngine10AnimationsL63__ManagedRegistrationHelperFunction_AnimationMixerPlayableProxyEPv
534:__ZN9Scripting11UnityEngine10AnimationsL72__ManagedRegistrationHelperFunction_AnimationMotionXToDeltaPlayableProxyEPv
535:__ZN9Scripting11UnityEngine10AnimationsL64__ManagedRegistrationHelperFunction_AnimationOffsetPlayableProxyEPv
536:__ZN9Scripting11UnityEngine10AnimationsL64__ManagedRegistrationHelperFunction_AnimationPlayableOutputProxyEPv
537:__ZN9Scripting11UnityEngine10AnimationsL62__ManagedRegistrationHelperFunction_AnimationPosePlayableProxyEPv
538:__ZN9Scripting11UnityEngine10AnimationsL69__ManagedRegistrationHelperFunction_AnimationRemoveScalePlayableProxyEPv
539:__ZN9Scripting11UnityEngine10AnimationsL67__ManagedRegistrationHelperFunction_AnimatorControllerPlayableProxyEPv
540:__ZN9Scripting11UnityEngine10AnimationsL57__ManagedRegistrationHelperFunction_ConstraintSourceProxyEPv
541:__ZN9Scripting11UnityEngine10AnimationsL57__ManagedRegistrationHelperFunction_LookAtConstraintProxyEPv
542:__ZN9Scripting11UnityEngine10AnimationsL57__ManagedRegistrationHelperFunction_ParentConstraintProxyEPv
543:__ZN9Scripting11UnityEngine10AnimationsL59__ManagedRegistrationHelperFunction_PositionConstraintProxyEPv
544:__ZN9Scripting11UnityEngine10AnimationsL59__ManagedRegistrationHelperFunction_RotationConstraintProxyEPv
545:__ZN9Scripting11UnityEngine10AnimationsL56__ManagedRegistrationHelperFunction_ScaleConstraintProxyEPv
546:__ZN9Scripting11UnityEngineL55__ManagedRegistrationHelperFunction_AnimationStateProxyEPv
547:__ZN9Scripting11UnityEngineL49__ManagedRegistrationHelperFunction_AnimatorProxyEPv
548:__ZN9Scripting11UnityEngineL57__ManagedRegistrationHelperFunction_AnimatorClipInfoProxyEPv
549:__ZN9Scripting11UnityEngineL68__ManagedRegistrationHelperFunction_AnimatorControllerParameterProxyEPv
550:__ZN9Scripting11UnityEngineL66__ManagedRegistrationHelperFunction_RuntimeAnimatorControllerProxyEPv
551:__ZN9Scripting11UnityEngineL67__ManagedRegistrationHelperFunction_AnimatorOverrideControllerProxyEPv
552:__ZN9Scripting11UnityEngineL58__ManagedRegistrationHelperFunction_AnimatorStateInfoProxyEPv
553:__ZN9Scripting11UnityEngineL63__ManagedRegistrationHelperFunction_AnimatorTransitionInfoProxyEPv
554:__ZN9Scripting11UnityEngineL47__ManagedRegistrationHelperFunction_AvatarProxyEPv
555:__ZN9Scripting11UnityEngineL51__ManagedRegistrationHelperFunction_AvatarMaskProxyEPv
556:__ZN9Scripting11UnityEngine12Experimental10AnimationsL61__ManagedRegistrationHelperFunction_AnimationHumanStreamProxyEPv
557:__ZN9Scripting11UnityEngine12Experimental10AnimationsL64__ManagedRegistrationHelperFunction_AnimationScriptPlayableProxyEPv
558:__ZN9Scripting11UnityEngine12Experimental10AnimationsL56__ManagedRegistrationHelperFunction_AnimationStreamProxyEPv
559:__ZN9Scripting11UnityEngineL50__ManagedRegistrationHelperFunction_HumanBoneProxyEPv
560:__ZN9Scripting11UnityEngineL72__ManagedRegistrationHelperFunction_SharedBetweenAnimatorsAttributeProxyEPv
561:__ZN9Scripting11UnityEngineL53__ManagedRegistrationHelperFunction_SkeletonBoneProxyEPv
562:__ZN9Scripting11UnityEngineL62__ManagedRegistrationHelperFunction_StateMachineBehaviourProxyEPv
563:__ZN9Scripting11UnityEngine26StateMachineBehaviourProxy9InitProxyEv
564:__ZN9Scripting11UnityEngine26StateMachineBehaviourProxy12CleanupProxyEv
565:__ZN9Scripting11UnityEngine17SkeletonBoneProxy9InitProxyEv
566:__ZN9Scripting11UnityEngine17SkeletonBoneProxy12CleanupProxyEv
567:__ZN9Scripting11UnityEngine36SharedBetweenAnimatorsAttributeProxy9InitProxyEv
568:__ZN9Scripting11UnityEngine36SharedBetweenAnimatorsAttributeProxy12CleanupProxyEv
569:__ZN9Scripting11UnityEngine14HumanBoneProxy9InitProxyEv
570:__ZN9Scripting11UnityEngine14HumanBoneProxy12CleanupProxyEv
571:__ZN9Scripting11UnityEngine12Experimental10Animations20AnimationStreamProxy9InitProxyEv
572:__ZN9Scripting11UnityEngine12Experimental10Animations20AnimationStreamProxy12CleanupProxyEv
573:__ZN9Scripting11UnityEngine12Experimental10Animations28AnimationScriptPlayableProxy9InitProxyEv
574:__ZN9Scripting11UnityEngine12Experimental10Animations28AnimationScriptPlayableProxy12CleanupProxyEv
575:__ZN9Scripting11UnityEngine12Experimental10Animations25AnimationHumanStreamProxy9InitProxyEv
576:__ZN9Scripting11UnityEngine12Experimental10Animations25AnimationHumanStreamProxy12CleanupProxyEv
577:__ZN9Scripting11UnityEngine15AvatarMaskProxy9InitProxyEv
578:__ZN9Scripting11UnityEngine15AvatarMaskProxy12CleanupProxyEv
579:__ZN9Scripting11UnityEngine11AvatarProxy9InitProxyEv
580:__ZN9Scripting11UnityEngine11AvatarProxy12CleanupProxyEv
581:__ZN9Scripting11UnityEngine27AnimatorTransitionInfoProxy9InitProxyEv
582:__ZN9Scripting11UnityEngine27AnimatorTransitionInfoProxy12CleanupProxyEv
583:__ZN9Scripting11UnityEngine22AnimatorStateInfoProxy9InitProxyEv
584:__ZN9Scripting11UnityEngine22AnimatorStateInfoProxy12CleanupProxyEv
585:__ZN9Scripting11UnityEngine31AnimatorOverrideControllerProxy9InitProxyEv
586:__ZN9Scripting11UnityEngine31AnimatorOverrideControllerProxy12CleanupProxyEv
587:__ZN9Scripting11UnityEngine30RuntimeAnimatorControllerProxy9InitProxyEv
588:__ZN9Scripting11UnityEngine30RuntimeAnimatorControllerProxy12CleanupProxyEv
589:__ZN9Scripting11UnityEngine32AnimatorControllerParameterProxy9InitProxyEv
590:__ZN9Scripting11UnityEngine32AnimatorControllerParameterProxy12CleanupProxyEv
591:__ZN9Scripting11UnityEngine21AnimatorClipInfoProxy9InitProxyEv
592:__ZN9Scripting11UnityEngine21AnimatorClipInfoProxy12CleanupProxyEv
593:__ZN9Scripting11UnityEngine13AnimatorProxy9InitProxyEv
594:__ZN9Scripting11UnityEngine13AnimatorProxy12CleanupProxyEv
595:__ZN9Scripting11UnityEngine19AnimationStateProxy9InitProxyEv
596:__ZN9Scripting11UnityEngine19AnimationStateProxy12CleanupProxyEv
597:__ZN9Scripting11UnityEngine10Animations20ScaleConstraintProxy9InitProxyEv
598:__ZN9Scripting11UnityEngine10Animations20ScaleConstraintProxy12CleanupProxyEv
599:__ZN9Scripting11UnityEngine10Animations23RotationConstraintProxy9InitProxyEv
600:__ZN9Scripting11UnityEngine10Animations23RotationConstraintProxy12CleanupProxyEv
601:__ZN9Scripting11UnityEngine10Animations23PositionConstraintProxy9InitProxyEv
602:__ZN9Scripting11UnityEngine10Animations23PositionConstraintProxy12CleanupProxyEv
603:__ZN9Scripting11UnityEngine10Animations21ParentConstraintProxy9InitProxyEv
604:__ZN9Scripting11UnityEngine10Animations21ParentConstraintProxy12CleanupProxyEv
605:__ZN9Scripting11UnityEngine10Animations21LookAtConstraintProxy9InitProxyEv
606:__ZN9Scripting11UnityEngine10Animations21LookAtConstraintProxy12CleanupProxyEv
607:__ZN9Scripting11UnityEngine10Animations21ConstraintSourceProxy9InitProxyEv
608:__ZN9Scripting11UnityEngine10Animations21ConstraintSourceProxy12CleanupProxyEv
609:__ZN9Scripting11UnityEngine10Animations31AnimatorControllerPlayableProxy9InitProxyEv
610:__ZN9Scripting11UnityEngine10Animations31AnimatorControllerPlayableProxy12CleanupProxyEv
611:__ZN9Scripting11UnityEngine10Animations33AnimationRemoveScalePlayableProxy9InitProxyEv
612:__ZN9Scripting11UnityEngine10Animations33AnimationRemoveScalePlayableProxy12CleanupProxyEv
613:__ZN9Scripting11UnityEngine10Animations26AnimationPosePlayableProxy9InitProxyEv
614:__ZN9Scripting11UnityEngine10Animations26AnimationPosePlayableProxy12CleanupProxyEv
615:__ZN9Scripting11UnityEngine10Animations28AnimationPlayableOutputProxy9InitProxyEv
616:__ZN9Scripting11UnityEngine10Animations28AnimationPlayableOutputProxy12CleanupProxyEv
617:__ZN9Scripting11UnityEngine10Animations28AnimationOffsetPlayableProxy9InitProxyEv
618:__ZN9Scripting11UnityEngine10Animations28AnimationOffsetPlayableProxy12CleanupProxyEv
619:__ZN9Scripting11UnityEngine10Animations36AnimationMotionXToDeltaPlayableProxy9InitProxyEv
620:__ZN9Scripting11UnityEngine10Animations36AnimationMotionXToDeltaPlayableProxy12CleanupProxyEv
621:__ZN9Scripting11UnityEngine10Animations27AnimationMixerPlayableProxy9InitProxyEv
622:__ZN9Scripting11UnityEngine10Animations27AnimationMixerPlayableProxy12CleanupProxyEv
623:__ZN9Scripting11UnityEngine10Animations32AnimationLayerMixerPlayableProxy9InitProxyEv
624:__ZN9Scripting11UnityEngine10Animations32AnimationLayerMixerPlayableProxy12CleanupProxyEv
625:__ZN9Scripting11UnityEngine10Animations26AnimationClipPlayableProxy9InitProxyEv
626:__ZN9Scripting11UnityEngine10Animations26AnimationClipPlayableProxy12CleanupProxyEv
627:__ZN9Scripting11UnityEngine10Animations18AimConstraintProxy9InitProxyEv
628:__ZN9Scripting11UnityEngine10Animations18AimConstraintProxy12CleanupProxyEv
629:__ZN9Scripting11UnityEngine19AnimationEventProxy9InitProxyEv
630:__ZN9Scripting11UnityEngine19AnimationEventProxy12CleanupProxyEv
631:__ZN4coreplEPKcRKNS_12basic_stringIcNS_20StringStorageDefaultIcEEEE
632:__ZN4coreplERKNS_12basic_stringIcNS_20StringStorageDefaultIcEEEEPKc
633:__ZN4coreplERKNS_12basic_stringIcNS_20StringStorageDefaultIcEEEES5_
634:__ZN13dynamic_arrayI11KeyframeTplIfELj0EE21resize_buffer_nocheckEj12ResizePolicy
635:__ZN14SafeBinaryRead21TransferSTLStyleArrayI13dynamic_arrayI4PPtrI6ObjectELj0EEEEvRT_17TransferMetaFlags
636:__ZN17AnimationCurveTplIfE8TransferI14SafeBinaryReadEEvRT_
637:__ZN14SafeBinaryRead21TransferSTLStyleArrayI13dynamic_arrayI11KeyframeTplIfELj0EEEEvRT_17TransferMetaFlags
638:__ZN11KeyframeTplIfE8TransferI14SafeBinaryReadEEvRT_
639:__ZN15PackedIntVector8TransferI14SafeBinaryReadEEvRT_
640:__ZN17PackedFloatVector8TransferI14SafeBinaryReadEEvRT_
641:__ZN17AnimationCurveTplIfE8TransferI24GenerateTypeTreeTransferEEvRT_
642:__ZN11KeyframeTplIfE8TransferI24GenerateTypeTreeTransferEEvRT_
643:__ZN24GenerateTypeTreeTransfer8TransferI15PackedIntVectorEEvRT_PKc17TransferMetaFlags
644:__ZN17PackedFloatVector8TransferI24GenerateTypeTreeTransferEEvRT_
645:__ZN18StreamedBinaryRead21TransferSTLStyleArrayI13dynamic_arrayI4PPtrI6ObjectELj0EEEEvRT_17TransferMetaFlags
646:__ZN17AnimationCurveTplIfE8TransferI18StreamedBinaryReadEEvRT_
647:__ZN18StreamedBinaryRead21TransferSTLStyleArrayI13dynamic_arrayI11KeyframeTplIfELj0EEEEvRT_17TransferMetaFlags
648:__ZN17PackedFloatVector8TransferI18StreamedBinaryReadEEvRT_
649:__ZN17AnimationCurveTplIfE8TransferI19StreamedBinaryWriteEEvRT_
650:__ZN11KeyframeTplIfE8TransferI19StreamedBinaryWriteEEvRT_
651:__ZN15PackedIntVector8TransferI19StreamedBinaryWriteEEvRT_
652:__ZN17PackedFloatVector8TransferI19StreamedBinaryWriteEEvRT_
653:__ZN14SafeBinaryRead21TransferSTLStyleArrayI13dynamic_arrayIjLj0EEEEvRT_17TransferMetaFlags
654:__ZN14SafeBinaryRead8TransferIjEEvRT_PKc17TransferMetaFlags
655:__ZN19StreamedBinaryWrite8TransferI13dynamic_arrayI8Vector3fLj0EEEEvRT_PKc17TransferMetaFlags
656:__ZN8Vector2f8TransferI14SafeBinaryReadEEvRT_
657:__ZNSt3__26vectorIiNS_9allocatorIiEEE6insertENS_11__wrap_iterIPKiEERS5_
658:__ZNK17IAnimationBinding38SerializedPropertyPathToCurveAttributeER6ObjectPKc
659:__ZNK17IAnimationBinding30CurveAttributeToSerializedPathERKN11UnityEngine9Animation10BoundCurveE
660:__ZN13dynamic_arrayIN4core12basic_stringIcNS0_20StringStorageDefaultIcEEEELj0EE4growEv
661:__ZN13dynamic_arrayIN4core12basic_stringIcNS0_20StringStorageDefaultIcEEEELj0EE18resize_initializedEj12ResizePolicy
662:__ZNSt3__26vectorIN4core12basic_stringIcNS1_20StringStorageDefaultIcEEEE13stl_allocatorIS5_L18MemLabelIdentifier1ELi16EEE21__push_back_slow_pathIS5_EEvOT_
663:__ZN11Marshalling39CreateNullExceptionForUnityEngineObjectE18ScriptingObjectPtr
664:__ZN11Marshalling16StringMarshallerD2Ev
665:__ZN11Marshalling16StringMarshaller16EnsureMarshalledEv
666:__GLOBAL__sub_I_ARScriptingClasses_cpp
667:__ZN9Scripting11UnityEngine2XR5TangoL49__ManagedRegistrationHelperFunction_PoseDataProxyEPv
668:__ZN9Scripting11UnityEngine2XR5Tango13PoseDataProxy9InitProxyEv
669:__ZN9Scripting11UnityEngine2XR5Tango13PoseDataProxy12CleanupProxyEv
670:__GLOBAL__sub_I_AssetBundleScriptingClasses_cpp
671:__GLOBAL__sub_I_Modules_AssetBundle_Public_0_cpp
672:__ZN13RuntimeStaticI18AssetBundleManagerLb1EE16StaticInitializeEPv
673:__ZN13RuntimeStaticI18AssetBundleManagerLb1EE13StaticDestroyEPv
674:__ZN18AssetBundleManagerD2Ev
675:__ZN24StaticInitializeInternal13ConstructTypeI18AssetBundleManagerLb1EEEPvS2_10MemLabelId
676:__ZN9Scripting11UnityEngineL65__ManagedRegistrationHelperFunction_AssetBundleCreateRequestProxyEPv
677:__ZN9Scripting11UnityEngineL71__ManagedRegistrationHelperFunction_AssetBundleRecompressOperationProxyEPv
678:__ZN9Scripting11UnityEngineL59__ManagedRegistrationHelperFunction_AssetBundleRequestProxyEPv
679:__ZN9Scripting11UnityEngineL57__ManagedRegistrationHelperFunction_BuildCompressionProxyEPv
680:__ZN9Scripting11UnityEngine21BuildCompressionProxy9InitProxyEv
681:__ZN9Scripting11UnityEngine21BuildCompressionProxy12CleanupProxyEv
682:__ZN9Scripting11UnityEngine23AssetBundleRequestProxy9InitProxyEv
683:__ZN9Scripting11UnityEngine23AssetBundleRequestProxy12CleanupProxyEv
684:__ZN9Scripting11UnityEngine35AssetBundleRecompressOperationProxy9InitProxyEv
685:__ZN9Scripting11UnityEngine35AssetBundleRecompressOperationProxy12CleanupProxyEv
686:__ZN9Scripting11UnityEngine29AssetBundleCreateRequestProxy9InitProxyEv
687:__ZN9Scripting11UnityEngine29AssetBundleCreateRequestProxy12CleanupProxyEv
688:__ZN23PreloadManagerOperation11GetPriorityEv
689:__ZN23PreloadManagerOperation14SetFinalTimingEffff
690:__ZN23PreloadManagerOperation19IntegrateTimeSlicedEi
691:__ZN23PreloadManagerOperation12GetDebugNameEv
692:__ZNSt3__26__treeIiNS_4lessIiEENS_9allocatorIiEEE7destroyEPNS_11__tree_nodeIiPvEE
693:__ZN14SafeBinaryRead21TransferSTLStyleArrayINSt3__26vectorI14ConstantStringNS1_9allocatorIS3_EEEEEEvRT_17TransferMetaFlags
694:__Z14resize_trimmedINSt3__26vectorI14ConstantStringNS0_9allocatorIS2_EEEEEvRT_j
695:__ZNSt3__26vectorI14ConstantStringNS_9allocatorIS1_EEE6assignINS_11__wrap_iterIPS1_EEEENS_9enable_ifIXaasr21__is_forward_iteratorIT_EE5valuesr16is_constructibleIS1_NS_15iterator_traitsISA_E9referenceEEE5valueEvE4typeESA_SA_
696:__ZNSt3__26vectorI14ConstantStringNS_9allocatorIS1_EEE8__appendEj
697:__ZN15SerializeTraitsINSt3__24pairIN4core12basic_stringIcNS2_20StringStorageDefaultIcEEEE4PPtrI6ObjectEEEE8TransferI14SafeBinaryReadEEvRSA_RT_
698:__ZN18StreamedBinaryRead21TransferSTLStyleArrayINSt3__26vectorI14ConstantStringNS1_9allocatorIS3_EEEEEEvRT_17TransferMetaFlags
699:__ZN19StreamedBinaryWrite21TransferSTLStyleArrayINSt3__26vectorI14ConstantStringNS1_9allocatorIS3_EEEEEEvRT_17TransferMetaFlags
700:__ZN23PreloadManagerOperation11SetPriorityEi
701:__ZN27TimeSliceAwakeFromLoadQueueD2Ev
702:__Z7ToLowerIN4core12basic_stringIcNS0_20StringStorageDefaultIcEEEEET_RKS5_
703:__ZN4core8hash_mapIiiNS_4hashIiEENSt3__28equal_toIiEEE6insertERKiS8_
704:__GLOBAL__sub_I_AudioScriptingClasses_cpp
705:__GLOBAL__sub_I_Modules_Audio_Public_0_cpp
706:__GLOBAL__sub_I_Modules_Audio_Public_1_cpp
707:__GLOBAL__sub_I_Modules_Audio_Public_3_cpp
708:__GLOBAL__sub_I_Runtime_Video_0_cpp
709:__ZN13RuntimeStaticINSt3__26vectorIP16BaseVideoTexture13stl_allocatorIS3_L18MemLabelIdentifier21ELi16EEEELb0EE16StaticInitializeEPv
710:__ZN13RuntimeStaticINSt3__26vectorIP16BaseVideoTexture13stl_allocatorIS3_L18MemLabelIdentifier21ELi16EEEELb0EE13StaticDestroyEPv
711:__ZN13RuntimeStaticINSt3__26vectorI12WebCamDeviceNS0_9allocatorIS2_EEEELb0EE16StaticInitializeEPv
712:__ZN13RuntimeStaticINSt3__26vectorI12WebCamDeviceNS0_9allocatorIS2_EEEELb0EE13StaticDestroyEPv
713:__ZN24StaticInitializeInternal13ConstructTypeINSt3__26vectorI12WebCamDeviceNS1_9allocatorIS3_EEEELb0EEEPvS7_10MemLabelId
714:__ZL37StaticInitializeAudioCustomFilterRootPv
715:__ZL34StaticDestroyAudioCustomFilterRootPv
716:__ZN13RuntimeStaticINSt3__23mapIjP19AudioSampleProviderNS0_4lessIjEE13stl_allocatorINS0_4pairIKjS3_EEL18MemLabelIdentifier28ELi16EEEELb0EE13StaticDestroyEPv
717:__ZL37StaticInitializeAudioSourceFilterRootPv
718:__ZL34StaticDestroyAudioSourceFilterRootPv
719:__ZNSt3__26__treeINS_12__value_typeIjP19AudioSampleProviderEENS_19__map_value_compareIjS4_NS_4lessIjEELb1EEE13stl_allocatorIS4_L18MemLabelIdentifier28ELi16EEE7destroyEPNS_11__tree_nodeIS4_PvEE
720:__ZN20DiagnosticSwitchEnumI23FMODDebugDisplayOptionsE18SetValueFromStringEPKc
721:__ZN20DiagnosticSwitchEnumI23FMODDebugDisplayOptionsE20ApplyPersistentValueEv
722:__ZN20DiagnosticSwitchEnumI23FMODDebugDisplayOptionsE20CollectScriptingInfoERN20DiagnosticSwitchBase13ScriptingInfoE
723:__ZN20DiagnosticSwitchEnumI23FMODDebugDisplayOptionsE24UpdateFromScriptingValueE18ScriptingObjectPtrb
724:__ZN10EnumTraits8ToStringI23FMODDebugDisplayOptionsEEN4core12basic_stringIcNS2_20StringStorageDefaultIcEEEET_
725:__ZN4core20StringStorageDefaultIcE7replaceEjjPKcj
726:__ZN10EnumTraits13TryFromStringI23FMODDebugDisplayOptionsEEbPKcbRT_
727:__ZN20DiagnosticSwitchEnumI14FMODDebugTypesE18SetValueFromStringEPKc
728:__ZN20DiagnosticSwitchEnumI14FMODDebugTypesE20ApplyPersistentValueEv
729:__ZN20DiagnosticSwitchEnumI14FMODDebugTypesE20CollectScriptingInfoERN20DiagnosticSwitchBase13ScriptingInfoE
730:__ZN20DiagnosticSwitchEnumI14FMODDebugTypesE24UpdateFromScriptingValueE18ScriptingObjectPtrb
731:__ZN10EnumTraits8ToStringI14FMODDebugTypesEEN4core12basic_stringIcNS2_20StringStorageDefaultIcEEEET_
732:__ZN10EnumTraits13TryFromStringI14FMODDebugTypesEEbPKcbRT_
733:__ZN13RuntimeStaticINSt3__23setIP26AudioSampleProviderChannelNS0_4lessIS3_EE13stl_allocatorIS3_L18MemLabelIdentifier28ELi16EEEELb0EE16StaticInitializeEPv
734:__ZN13RuntimeStaticINSt3__23setIP26AudioSampleProviderChannelNS0_4lessIS3_EE13stl_allocatorIS3_L18MemLabelIdentifier28ELi16EEEELb0EE13StaticDestroyEPv
735:__ZNSt3__26__treeIP26AudioSampleProviderChannelNS_4lessIS2_EE13stl_allocatorIS2_L18MemLabelIdentifier28ELi16EEE7destroyEPNS_11__tree_nodeIS2_PvEE
736:__ZN9Scripting11UnityEngine5AudioL58__ManagedRegistrationHelperFunction_AudioClipPlayableProxyEPv
737:__ZN9Scripting11UnityEngine5AudioL59__ManagedRegistrationHelperFunction_AudioMixerPlayableProxyEPv
738:__ZN9Scripting11UnityEngine5AudioL60__ManagedRegistrationHelperFunction_AudioPlayableOutputProxyEPv
739:__ZN9Scripting11UnityEngineL50__ManagedRegistrationHelperFunction_AudioClipProxyEPv
740:__ZN9Scripting11UnityEngineL54__ManagedRegistrationHelperFunction_AudioSettingsProxyEPv
741:__ZN9Scripting11UnityEngine12Experimental5AudioL60__ManagedRegistrationHelperFunction_AudioSampleProviderProxyEPv
742:__ZN9Scripting11UnityEngineL53__ManagedRegistrationHelperFunction_WebCamDeviceProxyEPv
743:__ZN9Scripting11UnityEngine17WebCamDeviceProxy9InitProxyEv
744:__ZN9Scripting11UnityEngine17WebCamDeviceProxy12CleanupProxyEv
745:__ZN9Scripting11UnityEngine12Experimental5Audio24AudioSampleProviderProxy9InitProxyEv
746:__ZN9Scripting11UnityEngine12Experimental5Audio24AudioSampleProviderProxy12CleanupProxyEv
747:__ZN9Scripting11UnityEngine18AudioSettingsProxy9InitProxyEv
748:__ZN9Scripting11UnityEngine18AudioSettingsProxy12CleanupProxyEv
749:__ZN9Scripting11UnityEngine14AudioClipProxy9InitProxyEv
750:__ZN9Scripting11UnityEngine14AudioClipProxy12CleanupProxyEv
751:__ZN9Scripting11UnityEngine5Audio24AudioPlayableOutputProxy9InitProxyEv
752:__ZN9Scripting11UnityEngine5Audio24AudioPlayableOutputProxy12CleanupProxyEv
753:__ZN9Scripting11UnityEngine5Audio23AudioMixerPlayableProxy9InitProxyEv
754:__ZN9Scripting11UnityEngine5Audio23AudioMixerPlayableProxy12CleanupProxyEv
755:__ZN9Scripting11UnityEngine5Audio22AudioClipPlayableProxy9InitProxyEv
756:__ZN9Scripting11UnityEngine5Audio22AudioClipPlayableProxy12CleanupProxyEv
757:__ZN4FMOD3DSP9setBypassEb
758:__ZN4FMOD6System15createDSPByTypeE13FMOD_DSP_TYPEPPNS_3DSPE
759:__ZN10ObjectPoolIN4FMOD3DSPENS0_4DSPIEE7GetFreeEi
760:__ZN4FMOD3DSP12setParameterEif
761:__ZN4FMOD3DSP7releaseEv
762:__ZN15SerializeTraitsI9UnityGUIDE8TransferI14SafeBinaryReadEEvRS0_RT_
763:__ZN9UnityGUID8TransferI24GenerateTypeTreeTransferEEvRT_
764:__ZN9UnityGUID8TransferI18StreamedBinaryReadEEvRT_
765:__ZN9UnityGUID8TransferI19StreamedBinaryWriteEEvRT_
766:__ZN4FMOD6Reverb9setActiveEb
767:__ZN15AudioReverbZone4InitEv
768:__ZN4FMOD6System12createReverbEPPNS_6ReverbE
769:__ZL16FMOD_ErrorString11FMOD_RESULT
770:__ZN12AudioManager21FixMasterGroupRoutingEv
771:__ZN15AudioReverbZone13SetFMODValuesEv
772:__ZN4FMOD6System6updateEv
773:__ZN4FMOD6Reverb15set3DAttributesEPK11FMOD_VECTORff
774:__ZN4FMOD6Reverb13setPropertiesEPK22FMOD_REVERB_PROPERTIES
775:__ZN4FMOD12ChannelGroup10getDSPHeadEPPNS_3DSPE
776:__ZN4FMOD3DSP9getOutputEiPPS0_PPNS_13DSPConnectionE
777:__ZN4FMOD3DSP8getInputEiPPS0_PPNS_13DSPConnectionE
778:__ZN4FMOD3DSP12getNumInputsEPi
779:__ZN4FMOD3DSP7getInfoEPcPjPiS3_S3_
780:__ZN4FMOD3DSP13disconnectAllEbb
781:__ZN4FMOD3DSP8addInputEPS0_PPNS_13DSPConnectionE
782:__ZN4FMOD6Reverb7releaseEv
783:__ZN12AudioManagerD2Ev
784:__ZN12AudioManagerD0Ev
785:__ZN12AudioManager17MainThreadCleanupEv
786:__ZN12AudioManager13AwakeFromLoadE17AwakeFromLoadMode
787:__ZN12AudioManager16CheckConsistencyEv
788:__ZN12AudioManager5ResetEv
789:__ZNK12AudioManager22GetTypeVirtualInternalEv
790:__ZN12AudioManager23VirtualRedirectTransferER19StreamedBinaryWrite
791:__ZN12AudioManager23VirtualRedirectTransferER18StreamedBinaryRead
792:__ZN12AudioManager23VirtualRedirectTransferER24GenerateTypeTreeTransfer
793:__ZN12AudioManager23VirtualRedirectTransferER14SafeBinaryRead
794:__ZN12AudioManager8TransferI14SafeBinaryReadEEvRT_
795:__ZN12AudioManager8TransferI24GenerateTypeTreeTransferEEvRT_
796:__ZN12AudioManager8TransferI18StreamedBinaryReadEEvRT_
797:__ZN12AudioManager8TransferI19StreamedBinaryWriteEEvRT_
798:__ZN12AudioManager8InitFMODE15FMOD_OUTPUTTYPE
799:__ZN12AudioManager29ShutdownReinitializeAndReloadE15FMOD_OUTPUTTYPEPS0_
800:__ZN4FMOD12ChannelGroup9setVolumeEf
801:__ZN4FMOD6System13set3DSettingsEfff
802:__ZN4FMOD6System9getOutputEP15FMOD_OUTPUTTYPE
803:__ZN12AudioManager9CloseFMODEv
804:__ZN9AudioClip6ReloadEv
805:__ZN13AudioListener12ApplyFiltersEv
806:__ZN12AudioManager39HandlePendingAudioConfigurationCallbackEv
807:__ZL31InitializeAudioScriptingClassesv
808:__ZL28CleanupAudioScriptingClassesv
809:__ZN11AudioFilter6GetDSPEv
810:__ZN4FMOD3DSP6removeEv
811:__Z15_CheckFMODError11FMOD_RESULTPKciS1_
812:__ZN4FMOD12ChannelGroup6addDSPEPNS_3DSPEPPNS_13DSPConnectionE
813:__ZN4FMOD3DSP9getBypassEPb
814:__ZN11AudioSource7CleanupEv
815:__ZN13AudioListener7CleanupEv
816:__ZN15AudioReverbZone7CleanupEv
817:__ZN10AudioMixer33EnsureMixerGroupSinksAreDestroyedEv
818:__ZN5audio5mixer23DestroyAudioMixerMemoryEPNS0_16AudioMixerMemoryERKNS0_18AudioMixerConstantEPN4FMOD6SystemER20RuntimeBaseAllocator
819:__ZN19AudioPlayableOutput21KillFMODResourceGraphEv
820:__ZN26AudioSampleProviderChannel7CleanupEv
821:__ZN4FMOD12ChannelGroup7releaseEv
822:__ZN9AudioClip7CleanupEv
823:__ZN4FMOD6System5closeEv
824:__ZN12SoundManagerD2Ev
825:__ZN12SoundManager20OnExitPlayModeStaticEv
826:__ZN12SoundManager26OnBeforeDomainUnloadStaticEv
827:__ZN12SoundManager6UpdateEv
828:__ZN11SoundHandle8InstanceD2Ev
829:__ZN20SoundChannelInstance4StopEv
830:__ZN4FMOD5Sound7releaseEv
831:__ZN4FMOD6SoundI7releaseEv
832:__ZN4FMOD8ChannelI11EndCallbackEv
833:__ZN4FMOD7Channel4stopEv
834:__ZN4FMOD7Channel11setPositionEjj
835:__ZN11SoundHandle8Instance15UpdateLoadStateEv
836:__ZN4FMOD6System9playSoundE17FMOD_CHANNELINDEXPNS_5SoundEbPPNS_7ChannelE
837:__ZN20SoundChannelInstance14SetFMODChannelEPN4FMOD7ChannelE
838:__ZN20SoundChannelInstance15ParameterBuffer5ApplyEPN4FMOD7ChannelE
839:__ZN20SoundChannelInstance12UpdateVolumeEv
840:__ZN20SoundChannelInstance11UpdatePitchEv
841:__ZN20SoundChannelInstance16UpdatePauseStateEv
842:__ZN4FMOD7Channel9setPausedEb
843:__ZN4FMOD7Channel12setFrequencyEf
844:__ZN4FMOD7Channel9setVolumeEf
845:__ZN4FMOD8ChannelI9setVolumeEf
846:__ZN4FMOD7Channel7setMuteEb
847:__ZN4FMOD7Channel11setCallbackEPF11FMOD_RESULTP12FMOD_CHANNEL25FMOD_CHANNEL_CALLBACKTYPEPvS5_E
848:__ZN4FMOD7Channel7setModeEj
849:__ZN4FMOD7Channel15setChannelGroupEPNS_12ChannelGroupE
850:__ZN4FMOD7Channel11setPriorityEi
851:__ZN4FMOD7Channel19setReverbPropertiesEPK29FMOD_REVERB_CHANNELPROPERTIES
852:__ZN4FMOD7Channel8setDelayE14FMOD_DELAYTYPEjj
853:__ZN4FMOD7Channel6setPanEf
854:__ZN4FMOD7Channel15set3DAttributesEPK11FMOD_VECTORS3_
855:__ZN4FMOD7Channel20set3DConeOrientationEP11FMOD_VECTOR
856:__ZN4FMOD7Channel17set3DConeSettingsEfff
857:__ZN4FMOD7Channel19set3DMinMaxDistanceEff
858:__ZN4FMOD7Channel13set3DPanLevelEf
859:__ZN4FMOD7Channel11set3DSpreadEf
860:__ZN4FMOD8ChannelI15set3DAttributesEPK11FMOD_VECTORS3_
861:__ZN4FMOD8ChannelI18UpdateDopplerPitchEv
862:__ZN4FMOD8ChannelI8setDelayE14FMOD_DELAYTYPEjj
863:__ZN4FMOD7Channel6addDSPEPNS_3DSPEPPNS_13DSPConnectionE
864:__ZN4FMOD7Channel11setUserDataEPv
865:__ZN20SoundChannelInstance19FMODChannelCallbackEP12FMOD_CHANNEL25FMOD_CHANNEL_CALLBACKTYPEPvS3_
866:__ZN4FMOD7Channel12getFrequencyEPf
867:__ZN4FMOD7Channel11getUserDataEPPv
868:__ZN4FMOD7SystemI9playSoundE17FMOD_CHANNELINDEXPNS_5SoundEbPPNS_7ChannelE
869:__ZN10ObjectPoolIN4FMOD7ChannelENS0_8ChannelIEE7GetFreeEi
870:__ZN4FMOD22FakeModChannelCallbackEPv
871:__ZN4FMOD5Sound12getOpenStateEP14FMOD_OPENSTATEPjPbS4_
872:__ZN4FMOD5Sound15getNumSubSoundsEPi
873:__ZN4FMOD5Sound11getSubSoundEiPPS0_
874:__ZN4FMOD5Sound11setUserDataEPv
875:__ZN4FMOD8ChannelI11setPositionEjj
876:__ZN10SampleClip15UnloadAudioDataEv
877:__ZN12SoundManager10UnloadClipEP10SampleClip
878:__ZN12SoundManager20RegisterModifiedClipEP10SampleClip
879:__ZN11SoundHandle8Instance7DisposeEv
880:__ZN11SoundHandleD2Ev
881:__ZN11SoundHandle7ReleaseEv
882:__ZN11SoundHandleaSERKS_
883:__ZN26AudioSampleProviderChannel11ReleaseFMODEv
884:__ZN13AudioPlayable26ReleaseFMODResourceVisitorERK16AudioProcessData
885:__ZN13AudioPlayable27ReleaseChannelGroupsVisitorERK16AudioProcessData
886:__ZN22AudioPlayableTraverser8TraverseERK16AudioProcessData
887:__ZN11AudioFilter7CleanupEv
888:__ZN17AudioCustomFilter7CleanupEv
889:__ZN11AudioSource4StopEb
890:__ZN4FMOD3DSP11getUserDataEPPv
891:__ZN11AudioSource16CleanAudioSourceEb
892:__ZNK11AudioSource19GetFilterComponentsERNSt3__26vectorIPN4FMOD3DSPENS0_9allocatorIS4_EEEEb
893:__ZNSt3__26vectorIPN4FMOD3DSPENS_9allocatorIS3_EEE21__push_back_slow_pathIRKS3_EEvOT_
894:__ZN11AudioSource26MuteActiveProviderChannelsEv
895:__ZN20SoundChannelInstance7setMuteEb
896:_FMOD_Memory_Initialize
897:_FMOD_System_Create
898:__ZNK12AudioManager18ValidateFMODResultE11FMOD_RESULTiPKcS2_
899:__Z14FMOD_FILE_OpenPKciPjPPvS3_
900:__Z15FMOD_FILE_ClosePvS_
901:__Z14FMOD_FILE_ReadPvS_jPjS_
902:__Z14FMOD_FILE_SeekPvjS_
903:__ZN4FMOD6System13setFileSystemEPF11FMOD_RESULTPKciPjPPvS6_EPFS1_S5_S5_EPFS1_S5_S5_jS4_S5_EPFS1_S5_jS5_EPFS1_P18FMOD_ASYNCREADINFOS5_ESA_i
904:__ZN4FMOD6System10getVersionEPj
905:__ZN4FMOD6System19setStreamBufferSizeEjj
906:__ZN12AudioManager14systemCallbackEP11FMOD_SYSTEM24FMOD_SYSTEM_CALLBACKTYPEPvS3_
907:__ZN4FMOD6System11setCallbackEPF11FMOD_RESULTP11FMOD_SYSTEM24FMOD_SYSTEM_CALLBACKTYPEPvS5_E
908:__ZN11AudioSource15rolloffCallbackEP12FMOD_CHANNELf
909:__ZN4FMOD6System20set3DRolloffCallbackEPFfP12FMOD_CHANNELfE
910:__ZN12AudioManager10InitNormalEb15FMOD_OUTPUTTYPE
911:__ZN4FMOD6System7releaseEv
912:__ZN4FMOD6System21getMasterChannelGroupEPPNS_12ChannelGroupE
913:__ZN4FMOD6System17getSoftwareFormatEPiP17FMOD_SOUND_FORMATS1_S1_P18FMOD_DSP_RESAMPLERS1_
914:__ZN4FMOD6System16getDSPBufferSizeEPjPi
915:__ZN4FMOD6System11getDSPClockEPjS1_
916:__Z29AudioMasterDSPProcessCallbackP21UnityAudioEffectStatePfS1_jii
917:__ZN29AudioEffectInternalDefinition9CreateDSPEPN4FMOD6SystemEPvPfP23UnityAudioAmbisonicDataPP25UnityAudioSpatializerData
918:__ZN4FMOD6System18createChannelGroupEPKcPPNS_12ChannelGroupE
919:__ZN4FMOD12ChannelGroup8addGroupEPS0_
920:__ZN29AudioEffectInternalDefinitionD2Ev
921:__ZN12SoundManagerC2Ev
922:__ZN10ObjectPoolIN4FMOD12ChannelGroupENS0_13ChannelGroupIEE7GetFreeEi
923:__ZN4FMOD6System9createDSPEP20FMOD_DSP_DESCRIPTIONPPNS_3DSPE
924:__ZN29AudioEffectInternalDefinitionC2EP26UnityAudioEffectDefinitionb
925:__ZN30AudioEffectInternalDescriptionC2EP26UnityAudioEffectDefinition
926:__ZL39UnityAudioEffect_InternalCreateCallbackP14FMOD_DSP_STATE
927:__ZL40UnityAudioEffect_InternalReleaseCallbackP14FMOD_DSP_STATE
928:__ZL38UnityAudioEffect_InternalResetCallbackP14FMOD_DSP_STATE
929:__ZL37UnityAudioEffect_InternalReadCallbackP14FMOD_DSP_STATEPfS1_jii
930:__ZL44UnityAudioEffect_InternalSetPositionCallbackP14FMOD_DSP_STATEj
931:__ZL50UnityAudioEffect_InternalSetFloatParameterCallbackP14FMOD_DSP_STATEif
932:__ZL50UnityAudioEffect_InternalGetFloatParameterCallbackP14FMOD_DSP_STATEiPfPc
933:__ZN4FMOD3DSP11setUserDataEPv
934:__ZN4FMOD6System9setOutputE15FMOD_OUTPUTTYPE
935:__ZN4FMOD6System13getNumDriversEPi
936:__ZN4FMOD6System9getDriverEPi
937:__ZN4FMOD6System13getDriverCapsEiPjPiP16FMOD_SPEAKERMODE
938:__ZN4FMOD6System14setSpeakerModeE16FMOD_SPEAKERMODE
939:__ZN4FMOD6System16setDSPBufferSizeEji
940:__ZN4FMOD6System17setSoftwareFormatEi17FMOD_SOUND_FORMATii18FMOD_DSP_RESAMPLER
941:__ZN4FMOD6System19setSoftwareChannelsEi
942:__ZN4FMOD6System4initEijPv
943:__ZN10ObjectPoolIN4FMOD7ChannelENS0_8ChannelIEE7SetSizeEi
944:__ZN12AudioManager21SetActiveOutputDriverEP9FMOD_GUID
945:__ZN4FMOD6System9setDriverEi
946:__ZN4FMOD6System13getDriverInfoEiPciP9FMOD_GUID
947:__ZN4FMOD7SystemIC2Ei
948:__ZN10ObjectPoolIN4FMOD12ChannelGroupENS0_13ChannelGroupIEE7SetSizeEi
949:__ZN10ObjectPoolIN4FMOD5SoundENS0_6SoundIEE7SetSizeEi
950:__ZN10ObjectPoolIN4FMOD3DSPENS0_4DSPIEE7SetSizeEi
951:__ZN12AudioManager27InitialCompleteDomainReloadEv
952:__ZN24AudioScriptBufferManager4InitEv
953:__ZN24AudioScriptBufferManagerC2Ev
954:__ZN10AudioMixer6UpdateEf
955:__ZN10AudioMixer18EnsureValidRuntimeEv
956:__ZN5audio5mixer22UpdateAudioMixerMemoryERKNS0_18AudioMixerConstantERNS0_16AudioMixerMemoryEfPN4FMOD6SystemEf
957:__ZN4FMOD12ChannelGroup19setAudibilityFactorEf
958:__ZN4FMOD12ChannelGroup8setPitchEf
959:__ZN4FMOD13DSPConnection6setMixEf
960:__ZN5audio5mixerL19IsAnyChannelPlayingEPN4FMOD12ChannelGroupE
961:__ZN5audio5mixer12SetSuspendedERNS0_16AudioMixerMemoryEb
962:__ZN4FMOD3DSP9getActiveEPb
963:__ZN4FMOD3DSP15getSystemObjectEPPNS_6SystemE
964:__ZN4FMOD3DSP9setActiveEb
965:__ZN4FMOD12ChannelGroup14getNumChannelsEPi
966:__ZN4FMOD12ChannelGroup10getChannelEiPPNS_7ChannelE
967:__ZN4FMOD7Channel9isPlayingEPb
968:__ZN4FMOD12ChannelGroup12getNumGroupsEPi
969:__ZN4FMOD12ChannelGroup8getGroupEiPPS0_
970:__ZN5audio5mixer22CreateAudioMixerMemoryERKNS0_18AudioMixerConstantEPN4FMOD6SystemER20RuntimeBaseAllocatorib
971:__ZN10AudioMixer31EnsureMixerGroupSinksAreCreatedEv
972:__ZN10AudioMixer14UpdateMuteSoloEv
973:__ZN5audio5mixer12UpdateBypassERNS0_18AudioMixerConstantERNS0_16AudioMixerMemoryE
974:__ZN5audio5mixer21SetResultingMuteStateERKNS0_18AudioMixerConstantERKNS0_16AudioMixerMemoryEib
975:__ZN10AudioMixer11SetupGroupsEv
976:__ZN12AudioManager37RebindAudioSourcesAndSubMixersToMixerEP10AudioMixer
977:__ZN11AudioSource19ConfigureFMODGroupsEv
978:__ZN10AudioMixer12RebindOutputEv
979:__ZN5audio5mixer16FindChannelGroupERKNS0_18AudioMixerConstantERKNS0_16AudioMixerMemoryERK9UnityGUID
980:__ZN5audio5mixer17AssignOutputGroupERKNS0_18AudioMixerConstantERKNS0_16AudioMixerMemoryEPN4FMOD12ChannelGroupE
981:__ZN4FMOD12ChannelGroup14getParentGroupEPPS0_
982:__ZN11AudioSource12ApplyFiltersEv
983:__ZN11AudioSource20SetEffectActiveStateEb
984:__ZN10AudioMixer14MixerGroupSink15ProcessCallbackEP21UnityAudioEffectStatePfS3_jii
985:__ZN4FMOD12ChannelGroup7setMuteEb
986:__Z32AudioMeasurement_GetTimeConstantff
987:__Z25GetAudioEffectDefinitionsPi
988:__Z29AudioMixerSendProcessCallbackP21UnityAudioEffectStatePfS1_jii
989:__Z32AudioMixerReceiveProcessCallbackP21UnityAudioEffectStatePfS1_jii
990:__Z31AudioMixerDuckingCreateCallbackP21UnityAudioEffectState
991:__Z32AudioMixerDuckingDestroyCallbackP21UnityAudioEffectState
992:__Z37AudioMixerDuckingSetParameterCallbackP21UnityAudioEffectStateif
993:__Z39AudioMixerDuckingGetFloatBufferCallbackP21UnityAudioEffectStatePKcPfi
994:__Z32AudioMixerDuckingProcessCallbackP21UnityAudioEffectStatePfS1_jii
995:__Z30AudioMixerFaderProcessCallbackP21UnityAudioEffectStatePfS1_jii
996:__ZN12AudioManager33GetAudioEffectInternalDefinitionsEv
997:__ZN12AudioManager31GetCurrentSpatializerDefinitionEv
998:__Z30GetAudioSpatializerDefinitionsR13dynamic_arrayIP29AudioEffectInternalDefinitionLj0EE31UnityAudioEffectDefinitionFlags
999:__ZN10SampleClip13LoadBaseSoundEv
1000:__ZNK10SampleClip17CalculateFMODModeEv
1001:__ZN12SoundManager9GetHandleERK16StreamedResourceijjP10SampleClipb
1002:__Z13LoadFMODSoundPPN11SoundHandle8InstanceEPKcjP10SampleClipjjP22FMOD_CREATESOUNDEXINFO
1003:__ZN12SoundManager18IntegrateFMODSoundEPN11SoundHandle8InstanceERK16StreamedResourcejiN17SoundHandleShared9LoadStateE
1004:__ZN4FMOD5Sound13setLoopPointsEjjjj
1005:__ZN11SoundHandle8InstanceC2Ev
1006:__ZN4FMOD6System11createSoundEPKcjP22FMOD_CREATESOUNDEXINFOPPNS_5SoundE
1007:__ZN4FMOD7SystemI11createSoundEPKcjP22FMOD_CREATESOUNDEXINFOPPNS_5SoundE
1008:__ZN10ObjectPoolIN4FMOD5SoundENS0_6SoundIEE7GetFreeEi
1009:__ZN7WeakPtrIN11SoundHandle8InstanceEE10SharedDataD0Ev
1010:__ZNK7WeakPtrIN11SoundHandle8InstanceEE10SharedData9GetRawPtrEv
1011:__ZN11AudioSource16UpdatePauseStateEv
1012:__ZN12AudioManager29GetCurrentAmbisonicDefinitionE31UnityAudioEffectDefinitionFlags
1013:__ZN11SoundHandleC2ERKS_
1014:__ZN20SoundChannelInstance8setDelayE14FMOD_DELAYTYPEjj
1015:__ZN11AudioSource32CorrectScheduledTimeAfterUnpauseEy
1016:__ZN20SoundChannelInstance8getDelayE14FMOD_DELAYTYPEPjS1_
1017:__ZN10SampleClipD2Ev
1018:__ZN10SampleClipD0Ev
1019:__ZN10SampleClip17MainThreadCleanupEv
1020:__ZNK10SampleClip22GetTypeVirtualInternalEv
1021:__ZN10SampleClip23VirtualRedirectTransferER19StreamedBinaryWrite
1022:__ZN10SampleClip23VirtualRedirectTransferER18StreamedBinaryRead
1023:__ZN10SampleClip23VirtualRedirectTransferER24GenerateTypeTreeTransfer
1024:__ZN10SampleClip23VirtualRedirectTransferER14SafeBinaryRead
1025:__ZNK10SampleClip12GetLoadStateEv
1026:__ZN9AudioClipD2Ev
1027:__ZN9AudioClipD0Ev
1028:__ZN9AudioClip17MainThreadCleanupEv
1029:__ZN9AudioClip13AwakeFromLoadE17AwakeFromLoadMode
1030:__ZN9AudioClip21AwakeFromLoadThreadedEv
1031:__ZNK9AudioClip22GetTypeVirtualInternalEv
1032:__ZN9AudioClip23VirtualRedirectTransferER19StreamedBinaryWrite
1033:__ZN9AudioClip23VirtualRedirectTransferER18StreamedBinaryRead
1034:__ZN9AudioClip23VirtualRedirectTransferER24GenerateTypeTreeTransfer
1035:__ZN9AudioClip23VirtualRedirectTransferER14SafeBinaryRead
1036:__ZN9AudioClip8TransferI14SafeBinaryReadEEvRT_
1037:__ZN9AudioClip8TransferI24GenerateTypeTreeTransferEEvRT_
1038:__ZN9AudioClip8TransferI18StreamedBinaryReadEEvRT_
1039:__ZN9AudioClip8TransferI19StreamedBinaryWriteEEvRT_
1040:__ZN9AudioClip9LoadSoundEv
1041:__ZN9AudioClip11CreateSoundEv
1042:__ZN12AudioManager22CreateFMODSoundFromWWWEP10IWWWStream15FMOD_SOUND_TYPE17FMOD_SOUND_FORMATjjbbP10SampleClip
1043:__ZN12SoundManager22GetHandleFromFMODSoundEPN11SoundHandle8InstanceEjP10SampleClip
1044:__ZN12AudioManager24CreateFMODSoundFromMovieEP9AudioClip
1045:__ZN9AudioClip21ScriptPCMReadCallbackEP10FMOD_SOUNDPvj
1046:__ZN9AudioClip28ScriptPCMSetPositionCallbackEP10FMOD_SOUNDijj
1047:__ZN12SoundManager19CreateSoundInternalEPKcjP22FMOD_CREATESOUNDEXINFOR11SoundHandlejP10SampleClip
1048:__ZN4FMOD5Sound11getUserDataEPPv
1049:__ZN12AudioManager22GetScriptBufferManagerEv
1050:__ZN9AudioClip12moviepcmreadEP10FMOD_SOUNDPvj
1051:__ZN9AudioClip18GetQueuedAudioDataEPPvj
1052:__ZN9AudioClip7WWWOpenEPKciPjPPvS4_
1053:__ZN9AudioClip8WWWCloseEPvS0_
1054:__ZN9AudioClip7WWWReadEPvS0_jPjS0_
1055:__ZN9AudioClip7WWWSeekEPvjS0_
1056:__ZN10IWWWStream25FromTextualRepresentationEPKc
1057:__ZN13AudioListenerD2Ev
1058:__ZN13AudioListenerD0Ev
1059:__ZN13AudioListener13AwakeFromLoadE17AwakeFromLoadMode
1060:__ZN13AudioListener5ResetEv
1061:__ZNK13AudioListener22GetTypeVirtualInternalEv
1062:__ZN13AudioListener23VirtualRedirectTransferER19StreamedBinaryWrite
1063:__ZN13AudioListener23VirtualRedirectTransferER18StreamedBinaryRead
1064:__ZN13AudioListener23VirtualRedirectTransferER17RemapPPtrTransfer
1065:__ZN13AudioListener23VirtualRedirectTransferER24GenerateTypeTreeTransfer
1066:__ZN13AudioListener23VirtualRedirectTransferER14SafeBinaryRead
1067:__ZN13AudioListener6UpdateEv
1068:__ZN13AudioListener11FixedUpdateEv
1069:__ZN13AudioListener12AddToManagerEv
1070:__ZN13AudioListener17RemoveFromManagerEv
1071:__ZN12AudioManager19RemoveAudioListenerEP13AudioListener
1072:__ZN12AudioManager16AddAudioListenerEP13AudioListener
1073:__ZN13AudioListener8DoUpdateEv
1074:__ZN12AudioManager14UpdateListenerERK8Vector3fS2_S2_S2_
1075:__ZNK18AudioLowPassFilter18GetCutoffFrequencyEv
1076:__ZN4FMOD6System23set3DListenerAttributesEiPK11FMOD_VECTORS3_S3_S3_
1077:__ZN12AudioManager22GetAutomaticUpdateModeEP10GameObject
1078:__ZN14AudioBehaviourD2Ev
1079:__ZN14AudioBehaviourD0Ev
1080:__ZNK14AudioBehaviour22GetTypeVirtualInternalEv
1081:__ZN17AudioCustomFilterD2Ev
1082:__ZN17AudioCustomFilterD0Ev
1083:__ZNK7Texture20GetUnscaledTextureIDEv
1084:__ZNK7Texture11GetGPUWidthEv
1085:__ZNK7Texture12GetGPUHeightEv
1086:__ZNK7Texture16GetNpotTexelSizeEv
1087:__ZNK7Texture9HasMipMapEv
1088:__ZNK7Texture14GetMipmapCountEv
1089:__ZNK7Texture21GetShadowSamplingModeEv
1090:__ZN7Texture34UpdateFileTextureUploadInstructionEP24TextureUploadInstructionj
1091:__Z18RegisterUnityClassI14AudioBehaviourEvPKc
1092:__Z18RegisterUnityClassI13AudioListenerEvPKc
1093:__ZN13ProduceHelperI13AudioListenerLb0EE7ProduceE10MemLabelId18ObjectCreationMode
1094:__ZN13AudioListener15InitializeClassEv
1095:__ZN13AudioListener12CleanupClassEv
1096:__ZZN13AudioListener15InitializeClassEvEN31FunctorImpl_187kDidAddComponent4CallEPviR11MessageData
1097:__ZN14AudioBehaviourC2E10MemLabelId18ObjectCreationMode
1098:__ZN13ProduceHelperI14AudioBehaviourLb1EE7ProduceE10MemLabelId18ObjectCreationMode
1099:__ZN10SampleClipC2E10MemLabelId18ObjectCreationMode
1100:__Z45AudioSettings_CUSTOM_GetSpatializerPluginNamev
1101:__ZN12AudioManager35GetCurrentSpatializerDefinitionNameEv
1102:__Z50AudioSettings_CUSTOM_GetAmbisonicDecoderPluginNamev
1103:__ZN12AudioManager33GetCurrentAmbisonicDefinitionNameE31UnityAudioEffectDefinitionFlags
1104:__Z45AudioExtensionManager_CUSTOM_GetAudioListenerv
1105:__Z34AudioClip_Get_Custom_PropAmbisonicP12Il2CppObject
1106:__ZN9AudioClipC2E10MemLabelId18ObjectCreationMode
1107:__ZN12AudioManager16SetListenerPauseEb
1108:__Z46AudioListener_CUSTOM_GetNumExtensionPropertiesP12Il2CppObject
1109:__Z52AudioListener_CUSTOM_INTERNAL_CALL_ReadExtensionNameP12Il2CppObjectiR12PropertyName
1110:__Z60AudioListener_CUSTOM_INTERNAL_CALL_ReadExtensionPropertyNameP12Il2CppObjectiR12PropertyName
1111:__Z47AudioListener_CUSTOM_ReadExtensionPropertyValueP12Il2CppObjecti
1112:__Z59AudioListener_CUSTOM_INTERNAL_CALL_ClearExtensionPropertiesP12Il2CppObjectRK12PropertyName
1113:__ZN13AudioListener24ClearExtensionPropertiesE12PropertyName
1114:__Z31AudioSource_Get_Custom_PropClipP12Il2CppObject
1115:__Z36AudioSource_Get_Custom_PropIsPlayingP12Il2CppObject
1116:__ZNK11AudioSource9IsPlayingEv
1117:__ZN20SoundChannelInstance9isPlayingEPb
1118:__Z45AudioSource_Get_Custom_PropSpatializeInternalP12Il2CppObject
1119:__Z44AudioSource_CUSTOM_GetNumExtensionPropertiesP12Il2CppObject
1120:__Z50AudioSource_CUSTOM_INTERNAL_CALL_ReadExtensionNameP12Il2CppObjectiR12PropertyName
1121:__Z58AudioSource_CUSTOM_INTERNAL_CALL_ReadExtensionPropertyNameP12Il2CppObjectiR12PropertyName
1122:__Z45AudioSource_CUSTOM_ReadExtensionPropertyValueP12Il2CppObjecti
1123:__Z57AudioSource_CUSTOM_INTERNAL_CALL_ClearExtensionPropertiesP12Il2CppObjectRK12PropertyName
1124:__ZN11AudioSource24ClearExtensionPropertiesE12PropertyName
1125:__ZNK17BaseWebCamTexture9GetPixelsE13TextureFormatPvj
1126:__ZN9Scripting11UnityEngine18AudioSettingsProxy26InvokeOnAudioManagerUpdateEP21ScriptingExceptionPtr
1127:__ZZL31InitializeAudioManagerCallbacksvEN38FixedUpdateAudioFixedUpdateRegistrator7ForwardEv
1128:__ZZL31InitializeAudioManagerCallbacksvEN36PostLateUpdateUpdateAudioRegistrator7ForwardEv
1129:__ZZL31InitializeAudioManagerCallbacksvEN44PostLateUpdateUpdateVideoTexturesRegistrator7ForwardEv
1130:__ZN11AudioModule16SetListenerPauseEb
1131:__ZN11AudioModule19SetApplicationPauseEb
1132:__ZN11AudioModule11FixedUpdateEv
1133:__ZN11AudioModule6UpdateEv
1134:__ZN11AudioModule11GetDSPClockEv
1135:__ZN11AudioModule16GetDSPSampleRateEv
1136:__ZN11AudioModule15GetDSPBlockSizeEv
1137:__ZN11AudioModule17StopVideoTexturesEv
1138:__ZN11AudioModule19UpdateVideoTexturesEv
1139:__ZN11AudioModule18PauseVideoTexturesEv
1140:__ZN11AudioModule20SuspendVideoTexturesEv
1141:__ZN11AudioModule19ResumeVideoTexturesEv
1142:__ZN11AudioModule22CreateAudioClipFromWWWEP10IWWWStreamPKcbbi
1143:__ZN11AudioModule27IsFormatSupportedByPlatformEPKc
1144:__ZN11AudioModule30GetOrCreateDSPFromCustomFilterEP17AudioCustomFilter
1145:__ZN11AudioModule23CreateAudioCustomFilterEP13MonoBehaviour
1146:__ZN11AudioModule23DeleteAudioCustomFilterEP17AudioCustomFilter
1147:__ZN11AudioModule27GetDSPFromAudioCustomFilterEP17AudioCustomFilter
1148:__ZN11AudioModule14SetBypassOnDSPEPN4FMOD3DSPEb
1149:__ZN11AudioModule12CaptureFrameER13dynamic_arrayI22AudioProfilerGroupInfoLj0EERS0_I20AudioProfilerDSPInfoLj0EERS0_I21AudioProfilerClipInfoLj0EERS0_IcLj0EE
1150:__ZN11AudioModule25AudioManagerAwakeFromLoadE17AwakeFromLoadMode
1151:__ZN11AudioModule21SetActiveOutputDriverEPv
1152:__ZN11AudioModule26SetDefaultMicrophoneDriverEPv
1153:__ZN11AudioModule13GetNumDevicesEv
1154:__ZN11AudioModule15IsAudioDisabledEv
1155:__ZNK12AudioManager13GetNumDevicesEv
1156:__ZN12AudioManager26SetDefaultMicrophoneDriverEP9FMOD_GUID
1157:__ZN17AudioCustomFilterC2EP13MonoBehaviour
1158:__ZN17AudioCustomFilter4InitEv
1159:__ZL22FMODDSPReleaseCallbackP14FMOD_DSP_STATE
1160:__ZL20SharedDataDeleterJobP21UnownedResourceHandleI17AudioCustomFilterE
1161:__ZN9AudioClip22GetFormatFromExtensionERKN4core12basic_stringIcNS0_20StringStorageDefaultIcEEEE
1162:__ZN9AudioClip16EnableLegacyModeEv
1163:__ZN9AudioClip10InitStreamEP10IWWWStreamPKcP13MoviePlaybackbb15FMOD_SOUND_TYPE
1164:__ZN16BaseVideoTexture19ResumeVideoTexturesEv
1165:__ZN16BaseVideoTexture20SuspendVideoTexturesEv
1166:__ZN16BaseVideoTexture18PauseVideoTexturesEv
1167:__ZN16BaseVideoTexture19UpdateVideoTexturesEv
1168:__ZN16BaseVideoTexture17StopVideoTexturesEv
1169:__ZNK12AudioManager15GetDSPBlockSizeEv
1170:__ZNK12AudioManager16GetDSPSampleRateEv
1171:__ZNK12AudioManager11GetDSPClockEv
1172:__ZN12AudioManager6UpdateEv
1173:__ZN12AudioManager23ProcessScheduledSourcesEv
1174:__ZN12AudioManager11FixedUpdateEv
1175:__ZN12AudioManager19SetApplicationPauseEb
1176:__Z18RegisterUnityClassI12AudioManagerEvPKc
1177:__ZN13ProduceHelperI12AudioManagerLb0EE7ProduceE10MemLabelId18ObjectCreationMode
1178:__ZN12AudioManagerC2E10MemLabelId18ObjectCreationMode
1179:_RegisterModule_Audio
1180:__ZL22InitializeModule_Audiov
1181:__ZL19CleanupModule_Audiov
1182:__ZN19AudioSampleProvider7AcquireEjRNS_6HandleE
1183:__ZN13dynamic_arrayIfLj0EEC2Ej10MemLabelId
1184:__ZN19AudioSampleProvider15SetScriptingPtrERK18ScriptingObjectPtr
1185:__ZN27AudioSampleProviderBindings23InternalSetScriptingPtrEj18ScriptingObjectPtr
1186:__Z50AudioSampleProvider_CUSTOM_InternalSetScriptingPtrjP12Il2CppObject
1187:__GLOBAL__sub_I_ClothScriptingClasses_cpp
1188:__GLOBAL__sub_I_Runtime_Cloth_0_cpp
1189:__GLOBAL__sub_I_PhysX_Source_LowLevelCloth_src_0_cpp
1190:___cxx_global_var_init_16
1191:__GLOBAL__sub_I_SwCollision_cpp
1192:__GLOBAL__sub_I_SwInterCollision_cpp
1193:__GLOBAL__sub_I_SwSelfCollision_cpp
1194:__GLOBAL__sub_I_SwSolverKernel_cpp
1195:__ZN5physx14PxLightCpuTaskD2Ev
1196:__ZN5physx14PxLightCpuTask12addReferenceEv
1197:__ZN5physx14PxLightCpuTask15removeReferenceEv
1198:__ZNK5physx14PxLightCpuTask12getReferenceEv
1199:__ZN5physx14PxLightCpuTask7releaseEv
1200:__ZN9Scripting11UnityEngineL65__ManagedRegistrationHelperFunction_ClothSkinningCoefficientProxyEPv
1201:__ZN9Scripting11UnityEngineL64__ManagedRegistrationHelperFunction_ClothSphereColliderPairProxyEPv
1202:__ZN9Scripting11UnityEngine28ClothSphereColliderPairProxy9InitProxyEv
1203:__ZN9Scripting11UnityEngine28ClothSphereColliderPairProxy12CleanupProxyEv
1204:__ZN9Scripting11UnityEngine29ClothSkinningCoefficientProxy9InitProxyEv
1205:__ZN9Scripting11UnityEngine29ClothSkinningCoefficientProxy12CleanupProxyEv
1206:__ZN13dynamic_arrayI8Vector4fLj0EE4growEv
1207:__GLOBAL__sub_I_artifacts_WebGL_codegenerator_0_cpp
1208:__GLOBAL__sub_I_Runtime_VirtualFileSystem_0_cpp
1209:__GLOBAL__sub_I_Runtime_Input_0_cpp
1210:__GLOBAL__sub_I_External_ProphecySDK_BlitOperations_1_cpp
1211:__GLOBAL__sub_I_SpriteRendererJobs_cpp
1212:__GLOBAL__sub_I_Runtime_2D_Sorting_0_cpp
1213:__GLOBAL__sub_I_Runtime_2D_SpriteAtlas_0_cpp
1214:___cxx_global_var_init_2
1215:__GLOBAL__sub_I_Runtime_Allocator_1_cpp
1216:__GLOBAL__sub_I_Runtime_Application_0_cpp
1217:__GLOBAL__sub_I_Runtime_BaseClasses_0_cpp
1218:__GLOBAL__sub_I_Runtime_BaseClasses_1_cpp
1219:__GLOBAL__sub_I_Runtime_BaseClasses_2_cpp
1220:__GLOBAL__sub_I_Runtime_BaseClasses_3_cpp
1221:__GLOBAL__sub_I_Runtime_Burst_0_cpp
1222:__GLOBAL__sub_I_Runtime_Camera_0_cpp
1223:__GLOBAL__sub_I_Runtime_Camera_2_cpp
1224:__GLOBAL__sub_I_Runtime_Camera_3_cpp
1225:__GLOBAL__sub_I_Runtime_Camera_4_cpp
1226:__GLOBAL__sub_I_Runtime_Camera_5_cpp
1227:__GLOBAL__sub_I_Runtime_Camera_6_cpp
1228:__GLOBAL__sub_I_Runtime_Camera_7_cpp
1229:__GLOBAL__sub_I_Shadows_cpp
1230:__GLOBAL__sub_I_Runtime_Camera_Culling_0_cpp
1231:___cxx_global_var_init_22
1232:__GLOBAL__sub_I_Runtime_Camera_RenderLayers_0_cpp
1233:__GLOBAL__sub_I_Runtime_Camera_RenderLoops_0_cpp
1234:__GLOBAL__sub_I_Runtime_Camera_RenderLoops_2_cpp
1235:__GLOBAL__sub_I_Runtime_Containers_0_cpp
1236:__GLOBAL__sub_I_Runtime_Core_Callbacks_0_cpp
1237:__GLOBAL__sub_I_Runtime_File_0_cpp
1238:__GLOBAL__sub_I_Runtime_Geometry_2_cpp
1239:__GLOBAL__sub_I_Runtime_Graphics_0_cpp
1240:__GLOBAL__sub_I_Runtime_Graphics_1_cpp
1241:___cxx_global_var_init_41
1242:__GLOBAL__sub_I_Runtime_Graphics_5_cpp
1243:__GLOBAL__sub_I_Runtime_Graphics_6_cpp
1244:__GLOBAL__sub_I_Runtime_Graphics_7_cpp
1245:__GLOBAL__sub_I_Runtime_Graphics_8_cpp
1246:__GLOBAL__sub_I_Runtime_Graphics_9_cpp
1247:__GLOBAL__sub_I_Runtime_Graphics_10_cpp
1248:__GLOBAL__sub_I_Runtime_Graphics_11_cpp
1249:__GLOBAL__sub_I_Runtime_Graphics_Billboard_0_cpp
1250:__GLOBAL__sub_I_Runtime_Graphics_LOD_0_cpp
1251:__GLOBAL__sub_I_Runtime_Graphics_Mesh_0_cpp
1252:__GLOBAL__sub_I_Runtime_Graphics_Mesh_2_cpp
1253:__GLOBAL__sub_I_Runtime_Graphics_Mesh_4_cpp
1254:__GLOBAL__sub_I_Runtime_Graphics_Mesh_5_cpp
1255:__GLOBAL__sub_I_Runtime_Graphics_ScriptableRenderLoop_0_cpp
1256:__GLOBAL__sub_I_Runtime_Interfaces_0_cpp
1257:__GLOBAL__sub_I_Runtime_Interfaces_1_cpp
1258:__GLOBAL__sub_I_Runtime_Interfaces_2_cpp
1259:__GLOBAL__sub_I_Runtime_Jobs_0_cpp
1260:__GLOBAL__sub_I_Runtime_Jobs_ScriptBindings_0_cpp
1261:__GLOBAL__sub_I_Runtime_Math_2_cpp
1262:__GLOBAL__sub_I_Runtime_Math_Random_0_cpp
1263:__GLOBAL__sub_I_Runtime_Misc_0_cpp
1264:__GLOBAL__sub_I_Runtime_Misc_2_cpp
1265:___cxx_global_var_init_126
1266:__GLOBAL__sub_I_Runtime_Misc_4_cpp
1267:__GLOBAL__sub_I_Runtime_Misc_5_cpp
1268:__GLOBAL__sub_I_Runtime_PreloadManager_0_cpp
1269:__GLOBAL__sub_I_Runtime_SceneManager_0_cpp
1270:__GLOBAL__sub_I_Runtime_Shaders_0_cpp
1271:__GLOBAL__sub_I_Runtime_Shaders_1_cpp
1272:__GLOBAL__sub_I_Runtime_Shaders_ShaderImpl_0_cpp
1273:__GLOBAL__sub_I_Runtime_Shaders_ShaderImpl_1_cpp
1274:__GLOBAL__sub_I_Runtime_Transform_0_cpp
1275:__GLOBAL__sub_I_Runtime_Transform_1_cpp
1276:__GLOBAL__sub_I_Runtime_Utilities_2_cpp
1277:__GLOBAL__sub_I_Runtime_Utilities_4_cpp
1278:__GLOBAL__sub_I_Runtime_Utilities_5_cpp
1279:__GLOBAL__sub_I_Runtime_Utilities_6_cpp
1280:__GLOBAL__sub_I_Runtime_Utilities_8_cpp
1281:__GLOBAL__sub_I_AssetBundleFileSystem_cpp
1282:__GLOBAL__sub_I_Runtime_Modules_0_cpp
1283:__GLOBAL__sub_I_Modules_Profiler_Public_1_cpp
1284:__GLOBAL__sub_I_Modules_Profiler_Runtime_0_cpp
1285:__GLOBAL__sub_I_Runtime_Export_0_cpp
1286:__GLOBAL__sub_I_UnsafeUtility_bindings_cpp
1287:__GLOBAL__sub_I_Runtime_GfxDevice_0_cpp
1288:__GLOBAL__sub_I_Runtime_GfxDevice_1_cpp
1289:__GLOBAL__sub_I_Runtime_GfxDevice_2_cpp
1290:__GLOBAL__sub_I_Runtime_GfxDevice_3_cpp
1291:__GLOBAL__sub_I_Runtime_PluginInterface_0_cpp
1292:__GLOBAL__sub_I_Runtime_Director_Core_1_cpp
1293:__GLOBAL__sub_I_Runtime_ScriptingBackend_Il2Cpp_0_cpp
1294:__GLOBAL__sub_I_Runtime_Scripting_0_cpp
1295:__GLOBAL__sub_I_Runtime_Scripting_3_cpp
1296:__GLOBAL__sub_I_Runtime_Mono_SerializationBackend_DirectMemoryAccess_0_cpp
1297:__GLOBAL__sub_I_Runtime_Mono_SerializationBackend_DirectMemoryAccess_1_cpp
1298:__GLOBAL__sub_I_Runtime_Serialize_TransferFunctions_0_cpp
1299:__GLOBAL__sub_I_Runtime_Serialize_TransferFunctions_1_cpp
1300:__GLOBAL__sub_I_PlatformDependent_WebGL_Source_0_cpp
1301:__GLOBAL__sub_I_artifacts_WebGL_modules_Core_WebGL_asmjs_nondev_i_r_nothreads_15_cpp
1302:__GLOBAL__sub_I_SparseTextureGLES_cpp
1303:__GLOBAL__sub_I_TransformFeedbackSkinning_cpp
1304:__GLOBAL__sub_I_LogAssert_cpp
1305:__GLOBAL__sub_I_Shader_cpp
1306:__GLOBAL__sub_I_Transform_cpp
1307:__ZN17MessageIdentifierC2EPKcNS_7OptionsEPKN5Unity4TypeES1_
1308:__ZL17InitializeMessagePv
1309:__ZN35RegisterRuntimeInitializeAndCleanupC2EPFvPvES2_iS0_
1310:__ZN20dynamic_array_detail18dynamic_array_data4growEjj
1311:__Z16realloc_internalPvjj10MemLabelId15AllocateOptionsPKci
1312:__Z15malloc_internaljj10MemLabelId15AllocateOptionsPKci
1313:__ZN13MemoryManagerC2Ev
1314:__ZN13MemoryManager8AllocateEjj10MemLabelId15AllocateOptionsPKci
1315:__Z6FormatPKcz
1316:__Z17DebugStringToFileRK21DebugStringToFileData
1317:__ZN13MemoryManager10DeallocateEPv10MemLabelId
1318:__ZN12TLSAllocatorI14StackAllocatorE8AllocateEji
1319:__ZL16OutOfMemoryErrorjj10MemLabelIdiPKc
1320:__Z12FormatBufferPciPKcz
1321:_printf_console
1322:__Z15printf_consolev7LogTypePKcPi
1323:__ZN14StackAllocator8AllocateEji
1324:__Z16GetMemoryManagerv
1325:__ZN13MemoryManager12GetAllocatorE10MemLabelId
1326:__ZN13MemoryManager25GetAllocatorContainingPtrEPKv
1327:__ZN12TLSAllocatorI14StackAllocatorE13TryDeallocateEPv
1328:__ZN14StackAllocator13TryDeallocateEPv
1329:__Z40DebugStringToFilePostprocessedStacktraceRK21DebugStringToFileData
1330:__Z19free_alloc_internalPv10MemLabelId
1331:__Z13GetStacktracei
1332:__ZN14CallbackArray3IRK21DebugStringToFileData7LogTypebE6InvokeES2_S3_b
1333:__ZL20InternalErrorConsolePKcz
1334:__ZL21InternalAssertConsolePKcz
1335:__ZL22InternalWarningConsolePKcz
1336:__ZL18InternalLogConsolePKcz
1337:__ZN13BaseAllocatorC2EPKc
1338:__ZN20DynamicHeapAllocatorI17LowLevelAllocatorED2Ev
1339:__ZN20DynamicHeapAllocatorI17LowLevelAllocatorED0Ev
1340:__ZN20DynamicHeapAllocatorI17LowLevelAllocatorE8AllocateEji
1341:__ZN20DynamicHeapAllocatorI17LowLevelAllocatorE10ReallocateEPvji
1342:__ZN20DynamicHeapAllocatorI17LowLevelAllocatorE10DeallocateEPv
1343:__ZN20DynamicHeapAllocatorI17LowLevelAllocatorE13TryDeallocateEPv
1344:__ZNK20DynamicHeapAllocatorI17LowLevelAllocatorE8ContainsEPKv
1345:__ZNK20DynamicHeapAllocatorI17LowLevelAllocatorE10GetPtrSizeEPKv
1346:__ZN20DynamicHeapAllocatorI17LowLevelAllocatorE14CheckIntegrityEv
1347:__ZNK13BaseAllocator22GetAllocatedMemorySizeEv
1348:__ZNK13BaseAllocator21GetReservedMemorySizeEv
1349:__ZNK13BaseAllocator26GetPeakAllocatedMemorySizeEv
1350:__ZNK13BaseAllocator24GetBookKeepingMemorySizeEv
1351:__ZNK13BaseAllocator22GetNumberOfAllocationsEv
1352:__Z22ValidateTlsfAllocationPvjiS_
1353:_tlsf_walk_heap
1354:_default_walker
1355:_tlsf_free
1356:__ZN17LowLevelAllocator4FreeEPvj
1357:__ZN13MemoryManager12LowLevelFreeEPvj
1358:_tlsf_realloc_align
1359:_tlsf_memalign
1360:_block_trim_used
1361:_block_locate_free
1362:_block_prepare_used
1363:_tlsf_create
1364:__ZN13BaseAllocator13TryDeallocateEPv
1365:__ZN13MemoryManager10ReallocateEPvjj10MemLabelId15AllocateOptionsPKci
1366:__ZN12TLSAllocatorI14StackAllocatorE10ReallocateEPvji
1367:__ZN14StackAllocator10ReallocateEPvji
1368:__ZL19StaticDestroyShaderPv
1369:__ZN19ThreadSpecificValueIiE15ReinitializeTLSEPv
1370:__ZN13RuntimeStaticINSt3__23mapIy8TFShaderNS0_4lessIyEENS0_9allocatorINS0_4pairIKyS2_EEEEEELb0EE16StaticInitializeEPv
1371:__ZN13RuntimeStaticINSt3__23mapIy8TFShaderNS0_4lessIyEENS0_9allocatorINS0_4pairIKyS2_EEEEEELb0EE13StaticDestroyEPv
1372:__ZN17RuntimeStaticBase5SetupEPKcS1_i
1373:__ZN13RuntimeStaticINSt3__28multimapIj25DeferredSkinningOperationNS0_4lessIjEENS0_9allocatorINS0_4pairIKjS2_EEEEEELb0EE16StaticInitializeEPv
1374:__ZN13RuntimeStaticINSt3__28multimapIj25DeferredSkinningOperationNS0_4lessIjEENS0_9allocatorINS0_4pairIKjS2_EEEEEELb0EE13StaticDestroyEPv
1375:__ZNSt3__26__treeINS_12__value_typeIj25DeferredSkinningOperationEENS_19__map_value_compareIjS3_NS_4lessIjEELb1EEENS_9allocatorIS3_EEE7destroyEPNS_11__tree_nodeIS3_PvEE
1376:__ZdlPv
1377:__ZN17RuntimeStaticBase14InitializeImplEjPFPvS0_10MemLabelIdE
1378:__Z15strcpy_truncatePcPKcjj
1379:__ZNSt3__26__treeINS_12__value_typeIy8TFShaderEENS_19__map_value_compareIyS3_NS_4lessIyEELb1EEENS_9allocatorIS3_EEE7destroyEPNS_11__tree_nodeIS3_PvEE
1380:__ZN13RuntimeStaticINSt3__23mapI9TextureID21SparseTextureInfoGLESNS0_4lessIS2_EENS0_9allocatorINS0_4pairIKS2_S3_EEEEEELb0EE16StaticInitializeEPv
1381:__ZN13RuntimeStaticINSt3__23mapI9TextureID21SparseTextureInfoGLESNS0_4lessIS2_EENS0_9allocatorINS0_4pairIKS2_S3_EEEEEELb0EE13StaticDestroyEPv
1382:__ZNSt3__26__treeINS_12__value_typeI9TextureID21SparseTextureInfoGLESEENS_19__map_value_compareIS2_S4_NS_4lessIS2_EELb1EEENS_9allocatorIS4_EEE7destroyEPNS_11__tree_nodeIS4_PvEE
1383:__ZN4core20StringStorageDefaultIcED2Ev
1384:__ZN12_GLOBAL__N_116StaticInitializeEPv
1385:__ZN12_GLOBAL__N_113StaticDestroyEPv
1386:__ZN21SystemInfoStringCache16StaticInitializeEPv
1387:__ZN21SystemInfoStringCache13StaticDestroyEPv
1388:__Znwj10MemLabelIdjPKci
1389:__ZNSt3__26__treeINS_12__value_typeIN4core12basic_stringIcNS2_20StringStorageDefaultIcEEEE9PrefValueEENS_19__map_value_compareIS6_S8_NS_4lessIS6_EELb1EEENS_9allocatorIS8_EEE7destroyEPNS_11__tree_nodeIS8_PvEE
1390:__Znwj
1391:__ZL30InitializeGlobalNameConversionPv
1392:__ZL27CleanupGlobalNameConversionPv
1393:__ZNSt3__26__treeINS_12__value_typeINS_4pairIPcS3_EENS_3setIS3_15compare_tstringIPKcENS_9allocatorIS3_EEEEEENS_19__map_value_compareIS4_SD_20smaller_tstring_pairIS8_ELb1EEENSA_ISD_EEE7destroyEPNS_11__tree_nodeISD_PvEE
1394:__ZNSt3__26__treeIPc15compare_tstringIPKcENS_9allocatorIS1_EEE7destroyEPNS_11__tree_nodeIS1_PvEE
1395:__ZN13RuntimeStaticINSt3__23mapINS0_4pairIPcS3_EEPFbPvR14SafeBinaryReadE20smaller_tstring_pairIPKcENS0_9allocatorINS2_IKS4_S9_EEEEEELb0EE16StaticInitializeES5_
1396:__ZN13RuntimeStaticINSt3__23mapINS0_4pairIPcS3_EEPFbPvR14SafeBinaryReadE20smaller_tstring_pairIPKcENS0_9allocatorINS2_IKS4_S9_EEEEEELb0EE13StaticDestroyES5_
1397:__ZNSt3__26__treeINS_12__value_typeINS_4pairIPcS3_EEPFbPvR14SafeBinaryReadEEENS_19__map_value_compareIS4_SA_20smaller_tstring_pairIPKcELb1EEENS_9allocatorISA_EEE7destroyEPNS_11__tree_nodeISA_S5_EE
1398:__Z50CreateTransferFunctionScriptingTraitsCacheInternalPv
1399:__Z49ClearTransferFunctionScriptingTraitsCacheInternalPv
1400:__ZN13RuntimeStaticINSt3__23setIPFv17ScriptingClassPtrR23CachedSerializationDataRbENS0_4lessIS7_EENS0_9allocatorIS7_EEEELb0EE16StaticInitializeEPv
1401:__ZN13RuntimeStaticINSt3__23setIPFv17ScriptingClassPtrR23CachedSerializationDataRbENS0_4lessIS7_EENS0_9allocatorIS7_EEEELb0EE13StaticDestroyEPv
1402:__ZNSt3__26__treeIPFv17ScriptingClassPtrR23CachedSerializationDataRbENS_4lessIS6_EENS_9allocatorIS6_EEE7destroyEPNS_11__tree_nodeIS6_PvEE
1403:__ZL45StaticInitScriptingManagedObjectProxyRegistryPv
1404:__ZL48StaticDestroyScriptingManagedObjectProxyRegistryPv
1405:__ZN20dynamic_array_detail18dynamic_array_data7reserveEjjj
1406:__ZN13RuntimeStaticINSt3__23mapIN4core12basic_stringIcNS2_20StringStorageDefaultIcEEEEPvNS0_4lessIS6_EENS0_9allocatorINS0_4pairIKS6_S7_EEEEEELb0EE16StaticInitializeES7_
1407:__ZN13RuntimeStaticINSt3__23mapIN4core12basic_stringIcNS2_20StringStorageDefaultIcEEEEPvNS0_4lessIS6_EENS0_9allocatorINS0_4pairIKS6_S7_EEEEEELb0EE13StaticDestroyES7_
1408:__ZN13RuntimeStaticINSt3__23mapI17ScriptingClassPtr13dynamic_arrayIS2_Lj0EENS0_4lessIS2_EENS0_9allocatorINS0_4pairIKS2_S4_EEEEEELb0EE16StaticInitializeEPv
1409:__ZN13RuntimeStaticINSt3__23mapI17ScriptingClassPtr13dynamic_arrayIS2_Lj0EENS0_4lessIS2_EENS0_9allocatorINS0_4pairIKS2_S4_EEEEEELb0EE13StaticDestroyEPv
1410:__ZN13RuntimeStaticINSt3__23mapI17ScriptingClassPtrS2_NS0_4lessIS2_EENS0_9allocatorINS0_4pairIKS2_S2_EEEEEELb0EE16StaticInitializeEPv
1411:__ZN13RuntimeStaticINSt3__23mapI17ScriptingClassPtrS2_NS0_4lessIS2_EENS0_9allocatorINS0_4pairIKS2_S2_EEEEEELb0EE13StaticDestroyEPv
1412:__ZN13RuntimeStaticINSt3__23mapI17ScriptingClassPtriNS0_4lessIS2_EENS0_9allocatorINS0_4pairIKS2_iEEEEEELb0EE16StaticInitializeEPv
1413:__ZN13RuntimeStaticINSt3__23mapI17ScriptingClassPtriNS0_4lessIS2_EENS0_9allocatorINS0_4pairIKS2_iEEEEEELb0EE13StaticDestroyEPv
1414:__ZN9profiling6MarkerC2EtPKcNS0_5FlagsE
1415:__ZN4core8hash_mapINS_12basic_stringIcNS_20StringStorageDefaultIcEEEEPN9profiling6MarkerENS_4hashIS4_EENSt3__28equal_toIS4_EEE6insertERKS4_RKS7_
1416:__ZN4core8hash_setINS_4pairIKNS_12basic_stringIcNS_20StringStorageDefaultIcEEEEPN9profiling6MarkerELb1EEENS_9hash_pairINS_4hashIS5_EES6_S9_EENS_10equal_pairINSt3__28equal_toIS5_EES6_S9_EEE4growEi
1417:_XXH32
1418:__ZNSt3__26__treeINS_12__value_typeI17ScriptingClassPtriEENS_19__map_value_compareIS2_S3_NS_4lessIS2_EELb1EEENS_9allocatorIS3_EEE7destroyEPNS_11__tree_nodeIS3_PvEE
1419:__ZNSt3__26__treeINS_12__value_typeI17ScriptingClassPtrS2_EENS_19__map_value_compareIS2_S3_NS_4lessIS2_EELb1EEENS_9allocatorIS3_EEE7destroyEPNS_11__tree_nodeIS3_PvEE
1420:__ZNSt3__26__treeINS_12__value_typeI17ScriptingClassPtr13dynamic_arrayIS2_Lj0EEEENS_19__map_value_compareIS2_S5_NS_4lessIS2_EELb1EEENS_9allocatorIS5_EEE7destroyEPNS_11__tree_nodeIS5_PvEE
1421:__ZNSt3__26__treeINS_12__value_typeIN4core12basic_stringIcNS2_20StringStorageDefaultIcEEEEPvEENS_19__map_value_compareIS6_S8_NS_4lessIS6_EELb1EEENS_9allocatorIS8_EEE7destroyEPNS_11__tree_nodeIS8_S7_EE
1422:__ZL24ClearRegisteredCallbacksPv
1423:__ZN13RuntimeStaticI15DirectorManagerLb0EE16StaticInitializeEPv
1424:__ZN13RuntimeStaticI15DirectorManagerLb0EE13StaticDestroyEPv
1425:__ZN15DirectorManagerD2Ev
1426:__ZN15DirectorManager12CleanupClassEv
1427:__ZN15DirectorManager14ConnectionPool8DestructEv
1428:__ZNSt3__26__treeINS_12__value_typeIPvsEENS_19__map_value_compareIS2_S3_NS_4lessIS2_EELb1EEE13stl_allocatorIS3_L18MemLabelIdentifier87ELi16EEE7destroyEPNS_11__tree_nodeIS3_S2_EE
1429:__ZN15DirectorManager14ConnectionPool11ClearUnsafeEv
1430:__Z23DestroyMutexLockedStackP16MutexLockedStack
1431:__ZN24StaticInitializeInternal13ConstructTypeI15DirectorManagerLb0EEEPvS2_10MemLabelId
1432:__ZN15DirectorManagerC2Ev
1433:__ZN15DirectorManager15InitializeClassEv
1434:__ZZN15DirectorManager15InitializeClassEvEN40EarlyUpdateDirectorSampleTimeRegistrator7ForwardEv
1435:__ZZN15DirectorManager15InitializeClassEvEN45FixedUpdateDirectorFixedSampleTimeRegistrator7ForwardEv
1436:__ZZN15DirectorManager15InitializeClassEvEN41FixedUpdateDirectorFixedUpdateRegistrator7ForwardEv
1437:__ZZN15DirectorManager15InitializeClassEvEN52FixedUpdateDirectorFixedUpdatePostPhysicsRegistrator7ForwardEv
1438:__ZZN15DirectorManager15InitializeClassEvEN31UpdateDirectorUpdateRegistrator7ForwardEv
1439:__ZZN15DirectorManager15InitializeClassEvEN48PreLateUpdateDirectorDeferredEvaluateRegistrator7ForwardEv
1440:__ZZN15DirectorManager15InitializeClassEvEN43PostLateUpdateDirectorLateUpdateRegistrator7ForwardEv
1441:__ZZN15DirectorManager15InitializeClassEvEN44PostLateUpdateDirectorRenderImageRegistrator7ForwardEv
1442:__ZZN15DirectorManager15InitializeClassEvEN52PreLateUpdateDirectorUpdateAnimationBeginRegistrator7ForwardEv
1443:__ZZN15DirectorManager15InitializeClassEvEN50PreLateUpdateDirectorUpdateAnimationEndRegistrator7ForwardEv
1444:__ZZN15DirectorManager15InitializeClassEvEN42shutdownBeforeCleanupAllObjectsRegistrator7ForwardEv
1445:__ZZN15DirectorManager15InitializeClassEvEN32enterPlayModePreStartRegistrator7ForwardEv
1446:__ZN15DirectorManager14ConnectionPool14InitializePoolEjf
1447:__Z22CreateMutexLockedStackv
1448:__ZN17DirectorFrameTime14ResetDSPValuesEv
1449:__ZN15DirectorManager23ProcessPlayStateChangesEv
1450:__Z18FlushGraphCommandsR13dynamic_arrayI16GraphCommandPairLj0EER16MutexLockedStack
1451:__ZN13PlayableGraph12PrepareFrameE16PrepareFrameTypedyj21DirectorThreadContext
1452:__ZN14PlayableOutput21DispatchNotificationsEv
1453:__ZN13PlayableGraph7DestroyEv
1454:__ZN13PlayableGraphD2Ev
1455:__ZN13PlayableGraph23DestroyPendingPlayablesEv
1456:__ZN15DirectorManager21RebuildStageCallbacksEv
1457:__ZN15DirectorManager12RegisterJobsEP13PlayableGraph
1458:__ZNSt3__26vectorI20ProcessCallbackGroupNS_9allocatorIS1_EEE21__push_back_slow_pathIRKS1_EEvOT_
1459:__ZN20dynamic_array_detail18dynamic_array_data13resize_bufferEj12ResizePolicyjj
1460:__ZN14PlayableOutput26ClearInvalidSourcePlayableEv
1461:__ZN17ScriptingGCHandle15ReleaseAndClearEv
1462:__ZN13PlayableGraph14DestroyOutputsEv
1463:__ZNK8Playable6HandleEv
1464:__ZN8Playable16DisconnectInputsEPS_
1465:__ZN8Playable21DisconnectFromOutputsEPS_
1466:__ZN8Playable10DisconnectEPS_i
1467:__ZN15DirectorManager11AcquireNodeEv
1468:__ZN14PlayableOutput7DestroyEv
1469:__ZN15DirectorManager14FreeOutputNodeEP19HPlayableOutputNode
1470:__ZN13dynamic_arrayI25PlayableNotificationEntryLj0EE18resize_initializedEj12ResizePolicy
1471:__ZN17ScriptingGCHandle7AcquireE18ScriptingObjectPtr25ScriptingGCHandleWeakness
1472:__Z23GetCoreScriptingClassesv
1473:__Z30scripting_class_is_subclass_of17ScriptingClassPtrS_
1474:__ZNK10GameObject8IsActiveEv
1475:__ZN18ScriptingArguments9AddStructEPKv
1476:__ZN18ScriptingArguments9AddObjectE18ScriptingObjectPtr
1477:__ZN19ScriptingInvocation6InvokeEP21ScriptingExceptionPtrb
1478:__Z23scripting_method_invoke18ScriptingMethodPtr18ScriptingObjectPtrR18ScriptingArgumentsP21ScriptingExceptionPtrb
1479:__ZN9Scripting12LogExceptionE21ScriptingExceptionPtriPKcb
1480:__Z30scripting_stack_trace_info_for21ScriptingExceptionPtrR14StackTraceInfo
1481:__ZN18ScriptingArguments12AddOutObjectEP18ScriptingObjectPtr
1482:__Z24scripting_cpp_string_for18ScriptingStringPtr
1483:__Z21PostprocessStacktracePKcRN4core12basic_stringIcNS1_20StringStorageDefaultIcEEEE
1484:__ZN18ScriptingArguments9AddStringEPKc
1485:__ZN18ScriptingArguments10AddBooleanEb
1486:__ZN19ScriptingInvocation6InvokeI18ScriptingStringPtrEET_P21ScriptingExceptionPtrb
1487:__Z18ConvertUTF16toUTF8PKtiPhRi
1488:__Z18ConvertUTF16toUTF8PPKtS0_PPhS2_15ConversionFlags
1489:__ZN19ScriptingInvocationC2E18ScriptingMethodPtr
1490:__ZN18ScriptingArgumentsC2Ev
1491:__ZL30InitializeCoreScriptingClassesv
1492:__ZL27CleanupCoreScriptingClassesv
1493:__Z27SetupModuleScriptingClassesPFvvES0_
1494:__Z12OptionalTypePKcS0_S0_
1495:__Z11RequireTypePKcS0_S0_
1496:__Z13RequireMethodPKcS0_S0_S0_
1497:__Z14OptionalMethodPKcS0_S0_S0_
1498:__ZN9Scripting9GetMethodE17ScriptingClassPtrPKc
1499:__Z36scripting_class_get_method_from_name17ScriptingClassPtrPKci
1500:__Z43scripting_class_get_method_from_name_filter17ScriptingClassPtrPKciN24ScriptingMethodFiltering18MethodSearchFilterEPK16ScriptingTypePtr
1501:__ZN24ScriptingMethodFiltering36MethodDescriptionMatchesSearchFilterENS_18MethodSearchFilterEbi
1502:__Z29scripting_class_from_fullnamePKcS0_S0_
1503:__Z32scripting_class_get_nested_types17ScriptingClassPtrRNSt3__26vectorIS_13stl_allocatorIS_L18MemLabelIdentifier1ELi16EEEE
1504:__ZNSt3__26vectorI17ScriptingClassPtr13stl_allocatorIS1_L18MemLabelIdentifier1ELi16EEE21__push_back_slow_pathIRKS1_EEvOT_
1505:__ZN11MonoManager17GetScriptingClassEPKcS1_S1_
1506:__ZNK4core8hash_setINS_4pairIKNS_12basic_stringIcNS_20StringStorageDefaultIcEEEEiLb1EEENS_9hash_pairINS_4hashIS5_EES6_iEENS_10equal_pairINSt3__28equal_toIS5_EES6_iEEE6lookupIS5_EEPNSH_4nodeERKT_
1507:__ZN14PlayableOutput15PrepareTraverseERK9FrameDatai
1508:__ZN8Playable19PrepareFrameVisitorER19DirectorVisitorInfo
1509:__ZN25PreOrderPlayableTraverser8TraverseER19DirectorVisitorInfo
1510:__ZN13PlayableGraph18DisableMultithreadEv
1511:__ZN13PlayableGraph6HandleEv
1512:__ZN8Playable16ProcessPlayStateERK19DirectorVisitorInfo
1513:__ZN8Playable16CallOnGraphStartEv
1514:__ZN15DirectorManager29CacheScriptingMethodsForClassE17ScriptingClassPtr
1515:__ZNK15DirectorManager16GetScriptMethodsEs
1516:__ZN15DirectorManager17AcquireOutputNodeEv
1517:__ZNK15PlayableMethods20InvokeBehaviourDelayER18ScriptingObjectPtrRK9HPlayableP18ScriptingFrameData
1518:__ZNK15PlayableMethods19InvokeBehaviourPlayER18ScriptingObjectPtrRK9HPlayableP18ScriptingFrameData
1519:__ZNK15PlayableMethods20InvokeBehaviourPauseER18ScriptingObjectPtrRK9HPlayableP18ScriptingFrameData
1520:__ZN8Playable15CallOnGraphStopEv
1521:__ZNK15PlayableMethods17InvokeOnGraphStopER18ScriptingObjectPtrRK9HPlayable
1522:__ZN9Scripting29GetFirstNonGenericParentClassE17ScriptingClassPtrS0_
1523:__ZN9Scripting21GetOverrideMethodOnlyEPKc17ScriptingClassPtrS2_
1524:__ZNK15PlayableMethods18InvokeOnGraphStartER18ScriptingObjectPtrRK9HPlayable
1525:__ZN15DirectorManager20ExecutePrepareFramesE13DirectorStage
1526:__ZL19PrepareFrameJobFuncP15PrepareFrameJobj
1527:__Z26ScheduleJobForEachInternalR8JobFencePFvPvjES1_iPFvS1_E11JobPriority
1528:__ZN14PlayableOutput25FireConnectionHashChangedEv
1529:__ZN13PlayableGraph8EvaluateEdyj
1530:__ZN15DirectorManager17OnSampleFixedTimeEv
1531:__ZN17DirectorFrameTime10SampleTimeEfffb
1532:__ZN17DirectorFrameTime21CalculateDSPDeltaTimeEv
1533:__ZN15DirectorManager12OnSampleTimeEv
1534:__ZN15DirectorManager14ConnectionPool16GrowEmptyBucketsEv
1535:__ZN15DirectorManager14ConnectionPool10CreateItemEi
1536:__ZL32StaticInitializeIUnityInterfacesPv
1537:__ZL29StaticCleanupIUnityInterfacesPv
1538:__ZL30StaticInitializeIUnityGraphicsPv
1539:__ZL30StaticInitializeIUnityProfilerPv
1540:__ZL27StaticCleanupIUnityProfilerPv
1541:__ZN13RuntimeStaticI13dynamic_arrayI22RenderingExtPluginDescLj0EELb0EE16StaticInitializeEPv
1542:__ZN13RuntimeStaticI13dynamic_arrayI22RenderingExtPluginDescLj0EELb0EE13StaticDestroyEPv
1543:__ZN13RuntimeStaticI13dynamic_arrayI19ShaderExtPluginDescLj0EELb0EE16StaticInitializeEPv
1544:__ZN13RuntimeStaticI37UnityShaderCompilerExtPluginConfigureLb0EE16StaticInitializeEPv
1545:__ZN24StaticInitializeInternal13ConstructTypeI37UnityShaderCompilerExtPluginConfigureLb0EEEPvS2_10MemLabelId
1546:__ZN37UnityShaderCompilerExtPluginConfigure14ReserveKeywordEPKc
1547:__ZN37UnityShaderCompilerExtPluginConfigure25SetGPUProgramCompilerMaskEj
1548:__ZN37UnityShaderCompilerExtPluginConfigure20SetShaderProgramMaskEj
1549:__ZN8keywords6CreateEPKc
1550:__ZN8keywords6CreateEPKc17ShaderKeywordType
1551:__Z6StrCmpPKcS0_
1552:__Z27LogRepeatingStringWithFlagsRKN4core12basic_stringIcNS_20StringStorageDefaultIcEEEE15LogMessageFlagsi
1553:__ZNSt3__26__treeINS_12__value_typeIPKc17ShaderKeywordDataEENS_19__map_value_compareIS3_S5_15compare_tstringIS3_ELb1EEENS_9allocatorIS5_EEE21__emplace_unique_implIJNS_4pairIPcS4_EEEEENSE_INS_15__tree_iteratorIS5_PNS_11__tree_nodeIS5_PvEEiEEbEEDpOT_
1554:__ZNSt3__26__treeI19RepeatingLogMessageNS_4lessIS1_EE13stl_allocatorIS1_L18MemLabelIdentifier75ELi16EEE4findIS1_EENS_15__tree_iteratorIS1_PNS_11__tree_nodeIS1_PvEEiEERKT_
1555:__ZNSt3__26__treeI19RepeatingLogMessageNS_4lessIS1_EE13stl_allocatorIS1_L18MemLabelIdentifier75ELi16EEE25__emplace_unique_key_argsIS1_JRKS1_EEENS_4pairINS_15__tree_iteratorIS1_PNS_11__tree_nodeIS1_PvEEiEEbEERKT_DpOT0_
1556:__ZNSt3__26__treeI19RepeatingLogMessageNS_4lessIS1_EE13stl_allocatorIS1_L18MemLabelIdentifier75ELi16EEE12__find_equalIS1_EERPNS_16__tree_node_baseIPvEERPNS_15__tree_end_nodeISC_EERKT_
1557:__ZN24StaticInitializeInternal13ConstructTypeI13dynamic_arrayI19ShaderExtPluginDescLj0EELb0EEEPvS4_10MemLabelId
1558:__ZN24ProfilerCallbacksHandlerD2Ev
1559:__ZN24ProfilerCallbacksHandler22CreateCategoryCallbackEtPv
1560:__ZN24ProfilerCallbacksHandler19CreateEventCallbackEPN9profiling6MarkerEPv
1561:__ZN24ProfilerCallbacksHandlerC2E10MemLabelId
1562:__Z34RegisterCreateCategoryCallbackImplPFvPK25UnityProfilerCategoryDescPvES2_
1563:__Z36UnregisterCreateCategoryCallbackImplPFvPK25UnityProfilerCategoryDescPvES2_
1564:__Z31RegisterCreateEventCallbackImplPFvPK23UnityProfilerMarkerDescPvES2_
1565:__Z25RegisterEventCallbackImplPK23UnityProfilerMarkerDescPFvS1_ttPK23UnityProfilerMarkerDataPvES5_
1566:__Z27UnregisterEventCallbackImplPK23UnityProfilerMarkerDescPFvS1_ttPK23UnityProfilerMarkerDataPvES5_
1567:__Z25RegisterFrameCallbackImplPFvPvES_
1568:__Z32RegisterCreateThreadCallbackImplPFvPK23UnityProfilerThreadDescPvES2_
1569:__ZN13dynamic_arrayIN24ProfilerCallbacksHandler17EventCallbackDataELj0EE4growEv
1570:__ZN24ProfilerCallbacksHandler13FrameCallbackEPv
1571:__ZL15GetRendererImplv
1572:__Z31RegisterDeviceEventCallbackImplPFv23UnityGfxDeviceEventTypeE
1573:__Z33UnregisterDeviceEventCallbackImplPFv23UnityGfxDeviceEventTypeE
1574:__ZL23ReserveEventIDRangeImpli
1575:__ZNSt3__26__treeINS_12__value_typeI18UnityInterfaceGUIDP15IUnityInterfaceEENS_19__map_value_compareIS2_S5_NS_4lessIS2_EELb1EEE13stl_allocatorIS5_L18MemLabelIdentifier7ELi16EEE7destroyEPNS_11__tree_nodeIS5_PvEE
1576:__ZL16GetInterfaceImpl18UnityInterfaceGUID
1577:__ZL21GetInterfaceSplitImplyy
1578:__ZL21RegisterInterfaceImpl18UnityInterfaceGUIDP15IUnityInterface
1579:__ZL26RegisterInterfaceSplitImplyyP15IUnityInterface
1580:__ZNSt3__26__treeINS_12__value_typeI18UnityInterfaceGUIDP15IUnityInterfaceEENS_19__map_value_compareIS2_S5_NS_4lessIS2_EELb1EEE13stl_allocatorIS5_L18MemLabelIdentifier7ELi16EEE25__emplace_unique_key_argsIS2_JNS_4pairIS2_S4_EEEEENSF_INS_15__tree_iteratorIS5_PNS_11__tree_nodeIS5_PvEEiEEbEERKT_DpOT0_
1581:__ZL25CleanupTextureIDGeneratorPv
1582:__ZN33InstancedMeshIntermediateRenderer16StaticInitializeEPv
1583:__ZN33InstancedMeshIntermediateRenderer13StaticDestroyEPv
1584:__ZN32IndirectMeshIntermediateRenderer16StaticInitializeEPv
1585:__ZN32IndirectMeshIntermediateRenderer13StaticDestroyEPv
1586:__ZN10MemoryPoolD2Ev
1587:__ZN10MemoryPoolC2E10MemLabelIdbPKciii
1588:__ZN13HandleManager12ClearHandlesEv
1589:__ZN13HandleManagerC2Ev
1590:__ZN9ShaderLab16FastPropertyName4InitEPKc
1591:__Z20IsVectorBuiltinParamPKcPi
1592:__Z20IsMatrixBuiltinParamPKcPi
1593:__Z20IsTexEnvBuiltinParamPKcPi
1594:__ZNSt3__26__treeINS_12__value_typeIPKciEENS_19__map_value_compareIS3_S4_N9ShaderLab14CStringCompareELb1EEENS_9allocatorIS4_EEE21__emplace_unique_implIJNS_4pairIPciEEEEENSD_INS_15__tree_iteratorIS4_PNS_11__tree_nodeIS4_PvEEiEEbEEDpOT_
1595:__ZN10InstancingL16RegisterCallbackEPv
1596:__ZN10InstancingL18UnregisterCallbackEPv
1597:__ZN10InstancingL21OnGraphicsCapsChangedEv
1598:__ZN13RuntimeStaticI21ScalableBufferManagerLb0EE13StaticDestroyEPv
1599:__Z19CleanupTextureIdMapPv
1600:__ZNSt3__26__treeIP17RenderSurfaceBaseNS_4lessIS2_EENS_9allocatorIS2_EEE7destroyEPNS_11__tree_nodeIS2_PvEE
1601:__ZN13RuntimeStaticI18StackAllocatorPoolLb0EE16StaticInitializeEPv
1602:__ZN13RuntimeStaticI18StackAllocatorPoolLb0EE13StaticDestroyEPv
1603:__ZN18StackAllocatorPoolD2Ev
1604:__ZN18StackAllocatorPool23ClearMainThreadFallbackEv
1605:__ZN14StackAllocatorD2Ev
1606:__ZN14StackAllocatorD0Ev
1607:__ZNK14StackAllocator8ContainsEPKv
1608:__ZNK14StackAllocator10GetPtrSizeEPKv
1609:__ZN14StackAllocator16FrameMaintenanceEb
1610:__ZN13MemoryManager18LowLevelReallocateEPvjj
1611:__ZN14StackAllocator18FreeAllAllocationsEv
1612:__ZN24StaticInitializeInternal13ConstructTypeI18StackAllocatorPoolLb0EEEPvS2_10MemLabelId
1613:__ZN13RuntimeStaticI13ModuleManagerLb0EE13StaticDestroyEPv
1614:__ZN12_GLOBAL__N_138ArchiveRedirectFileSystemStaticDestroyEPv
1615:__ZN13RuntimeStaticINSt3__26vectorIN4core12basic_stringIcNS2_20StringStorageDefaultIcEEEENS0_9allocatorIS6_EEEELb0EE16StaticInitializeEPv
1616:__ZN13RuntimeStaticINSt3__26vectorIN4core12basic_stringIcNS2_20StringStorageDefaultIcEEEENS0_9allocatorIS6_EEEELb0EE13StaticDestroyEPv
1617:__ZN13RuntimeStaticINSt3__23setI19RepeatingLogMessageNS0_4lessIS2_EE13stl_allocatorIS2_L18MemLabelIdentifier75ELi16EEEELb0EE16StaticInitializeEPv
1618:__ZN13RuntimeStaticINSt3__23setI19RepeatingLogMessageNS0_4lessIS2_EE13stl_allocatorIS2_L18MemLabelIdentifier75ELi16EEEELb0EE13StaticDestroyEPv
1619:__ZN13RuntimeStaticI14CallbackArray1IbELb0EE16StaticInitializeEPv
1620:__ZN13RuntimeStaticI14CallbackArray1IbELb0EE13StaticDestroyEPv
1621:__ZN24StaticInitializeInternal13ConstructTypeI14CallbackArray1IbELb0EEEPvS3_10MemLabelId
1622:__ZNSt3__26__treeI19RepeatingLogMessageNS_4lessIS1_EE13stl_allocatorIS1_L18MemLabelIdentifier75ELi16EEE7destroyEPNS_11__tree_nodeIS1_PvEE
1623:__ZN12UnityVersionC2EPKc
1624:__ZN10MemoryPool16StaticInitializeEPv
1625:__ZN10MemoryPool13StaticDestroyEPv
1626:__Z15InitializeCRC32Pv
1627:__ZN5crc3215InitializeTableEv
1628:__ZN23DefaultMeshVertexFormatC2E17ShaderChannelMask
1629:__ZN13RuntimeStaticINSt3__28multimapIi25TransformAccessArrayEntryNS0_4lessIiEENS0_9allocatorINS0_4pairIKiS2_EEEEEELb0EE16StaticInitializeEPv
1630:__ZN13RuntimeStaticINSt3__28multimapIi25TransformAccessArrayEntryNS0_4lessIiEENS0_9allocatorINS0_4pairIKiS2_EEEEEELb0EE13StaticDestroyEPv
1631:__ZL36TransformAccessArray_InitializeClassPv
1632:__ZL33TransformAccessArray_CleanupClassPv
1633:__ZN32TransformHierarchyChangeDispatch15InitializeClassEPv
1634:__ZN32TransformHierarchyChangeDispatch12CleanupClassEPv
1635:__ZN32TransformHierarchyChangeDispatch16UnregisterSystemER36TransformHierarchyChangeSystemHandle
1636:__ZL29TransformAccessChangeCallbackPK15TransformAccessj
1637:__ZN32TransformHierarchyChangeDispatch14RegisterSystemEPKcNS_12InterestTypeEPFvPK15TransformAccessjE
1638:__ZL30TransformAccessDestroyCallbackPK15TransformAccessj
1639:__ZL20PatchTransformAccessiRK15TransformAccessb
1640:__ZNSt3__26__treeINS_12__value_typeIi25TransformAccessArrayEntryEENS_19__map_value_compareIiS3_NS_4lessIiEELb1EEENS_9allocatorIS3_EEE7destroyEPNS_11__tree_nodeIS3_PvEE
1641:__ZN23TransformChangeDispatch15InitializeClassEPv
1642:__ZN23TransformChangeDispatch12CleanupClassEPv
1643:__ZN23TransformChangeDispatchC2Ev
1644:__ZN13RuntimeStaticIN4core12basic_stringIcNS0_20StringStorageDefaultIcEEEELb0EE16StaticInitializeEPv
1645:__ZN13RuntimeStaticIN4core12basic_stringIcNS0_20StringStorageDefaultIcEEEELb0EE13StaticDestroyEPv
1646:__ZN9ShaderLabL25StaticInitializeShaderLabEPv
1647:__ZN9ShaderLabL22StaticDestroyShaderLabEPv
1648:__ZNSt3__25stackIPN9ShaderLab21SerializedShaderStateENS_5dequeIS3_NS_9allocatorIS3_EEEEED2Ev
1649:__ZN8keywords7CleanupEv
1650:__ZN9shadertag7CleanupEv
1651:__ZNSt3__26__treeINS_12__value_typeIPKc11ShaderTagIDEENS_19__map_value_compareIS3_S5_27compare_tstring_insensitiveIS3_ELb1EEENS_9allocatorIS5_EEE7destroyEPNS_11__tree_nodeIS5_PvEE
1652:__ZNSt3__26__treeINS_12__value_typeIPKc17ShaderKeywordDataEENS_19__map_value_compareIS3_S5_15compare_tstringIS3_ELb1EEENS_9allocatorIS5_EEE7destroyEPNS_11__tree_nodeIS5_PvEE
1653:__ZN8keywords10InitializeEv
1654:__ZN9shadertag10InitializeEv
1655:__ZN9shadertag14GetShaderTagIDERKN4core12basic_stringIcNS0_20StringStorageDefaultIcEEEE
1656:__Z7StrICmpPKcS0_
1657:__ZNSt3__26__treeINS_12__value_typeIPKc11ShaderTagIDEENS_19__map_value_compareIS3_S5_27compare_tstring_insensitiveIS3_ELb1EEENS_9allocatorIS5_EEE21__emplace_unique_implIJNS_4pairIPcS4_EEEEENSE_INS_15__tree_iteratorIS5_PNS_11__tree_nodeIS5_PvEEiEEbEEDpOT_
1658:__ZN24StaticInitializeInternal13ConstructTypeIN4core12basic_stringIcNS1_20StringStorageDefaultIcEEEELb0EEEPvS6_10MemLabelId
1659:__ZN9ShaderLab19CommonPropertyNames16StaticInitializeEPv
1660:__ZN9ShaderLab19CommonPropertyNames13StaticCleanupEPv
1661:__ZNSt3__26__treeINS_12__value_typeIPKciEENS_19__map_value_compareIS3_S4_N9ShaderLab14CStringCompareELb1EEENS_9allocatorIS4_EEE7destroyEPNS_11__tree_nodeIS4_PvEE
1662:__Z30CleanupBuiltinShaderParamNamesv
1663:__Z33InitializeBuiltinShaderParamNamesv
1664:__ZN13dynamic_arrayIN12_GLOBAL__N_114ParamNameIndexELj0EE21resize_buffer_nocheckEj12ResizePolicy
1665:__ZNSt3__26__sortIRNS_6__lessIN12_GLOBAL__N_114ParamNameIndexES3_EEPS3_EEvT0_S7_T_
1666:__ZNSt3__27__sort3IRNS_6__lessIN12_GLOBAL__N_114ParamNameIndexES3_EEPS3_EEjT0_S7_S7_T_
1667:__ZNSt3__27__sort4IRNS_6__lessIN12_GLOBAL__N_114ParamNameIndexES3_EEPS3_EEjT0_S7_S7_S7_T_
1668:__ZNSt3__27__sort5IRNS_6__lessIN12_GLOBAL__N_114ParamNameIndexES3_EEPS3_EEjT0_S7_S7_S7_S7_T_
1669:__ZNSt3__227__insertion_sort_incompleteIRNS_6__lessIN12_GLOBAL__N_114ParamNameIndexES3_EEPS3_EEbT0_S7_T_
1670:__ZL22InitializeGlobalCBKeysPv
1671:__ZN13RuntimeStaticI12GraphicsCapsLb0EE16StaticInitializeEPv
1672:__ZN13RuntimeStaticI12GraphicsCapsLb0EE13StaticDestroyEPv
1673:__ZN12GraphicsCapsD2Ev
1674:__ZN24StaticInitializeInternal13ConstructTypeI12GraphicsCapsLb0EEEPvS2_10MemLabelId
1675:__ZN12GraphicsCapsC2Ev
1676:__ZL35StaticInitializeRuntimeSceneManagerPv
1677:__ZL32StaticDestroyRuntimeSceneManagerPv
1678:__ZN19RuntimeSceneManagerC2E10MemLabelId
1679:__ZN10UnityScene14SetPathAndGUIDERKN4core12basic_stringIcNS0_20StringStorageDefaultIcEEEERK9UnityGUID
1680:__ZL32MarkLevelGameManagerDependenciesR27GarbageCollectorThreadState
1681:__ZL16SceneWasUnloadedi
1682:__ZL18ActiveSceneChangedP10UnitySceneS0_
1683:__Z20MarkInstanceIDAsRootiR27GarbageCollectorThreadState
1684:__Z24GetLastPathNameComponentRKN4core12basic_stringIcNS_20StringStorageDefaultIcEEEE
1685:__Z23DeletePathNameExtensionRKN4core12basic_stringIcNS_20StringStorageDefaultIcEEEE
1686:__ZN19RuntimeSceneManagerD2Ev
1687:__ZN19RuntimeSceneManagerD0Ev
1688:__ZN19RuntimeSceneManager8GetSceneEi
1689:__ZN19RuntimeSceneManager11MergeScenesER10UnitySceneS1_
1690:__ZN19RuntimeSceneManager11UnloadSceneEP10UnityScene18UnloadSceneOptions
1691:__ZN10UnityScene24OnGameObjectChangedSceneER10GameObjectPS_S2_
1692:__ZN10GameObject10DeactivateE19DeactivateOperation
1693:__ZN10GameObject8ActivateEv
1694:__ZN10GameObject32ActivateAwakeRecursivelyInternalE19DeactivateOperationR18AwakeFromLoadQueue
1695:__ZN18AwakeFromLoadQueue13AwakeFromLoadE17AwakeFromLoadModeb
1696:__ZN18AwakeFromLoadQueueD2Ev
1697:__ZL53SortBehaviourItemByExecutionOrderAndReverseInstanceIDRKN18AwakeFromLoadQueue4ItemES2_
1698:__ZNSt3__26__sortIRPFbRKN18AwakeFromLoadQueue4ItemES4_EPS2_EEvT0_S9_T_
1699:__ZNSt3__27__sort4IRPFbRKN18AwakeFromLoadQueue4ItemES4_EPS2_EEjT0_S9_S9_S9_T_
1700:__ZNSt3__218__insertion_sort_3IRPFbRKN18AwakeFromLoadQueue4ItemES4_EPS2_EEvT0_S9_T_
1701:__ZNSt3__227__insertion_sort_incompleteIRPFbRKN18AwakeFromLoadQueue4ItemES4_EPS2_EEbT0_S9_T_
1702:__ZNK21ExecutionOrderManager23GetScriptExecutionOrderEiPKN5Unity4TypeE
1703:__ZN18AwakeFromLoadQueue3AddER6ObjectPK8TypeTreeb17AwakeFromLoadMode
1704:__ZN10GameObject18UpdateActiveGONodeEv
1705:__ZN18AwakeFromLoadQueue19DetermineQueueIndexEPKN5Unity4TypeER6Object
1706:__ZN18AwakeFromLoadQueueC2E10MemLabelId
1707:__ZN19RuntimeSceneManager14CanUnloadSceneEP10UnityScene
1708:__ZN19RuntimeSceneManager19UnloadSceneInternalEP10UnityScene18UnloadSceneOptions
1709:__ZN10UnitySceneD2Ev
1710:__ZN19RuntimeSceneManager14SetActiveSceneER10UnityScene
1711:__Z22DestroyObjectHighLevelP6Objectb
1712:__Z19DestroySingleObjectP6Object
1713:__Z31ReadObjectFromPersistentManageri
1714:__ZN17PersistentManager10ReadObjectEi17AwakeFromLoadMode
1715:__ZN17PersistentManager37RegisterPartiallyLoadedObjectInternalEi
1716:__ZN17PersistentManager18ReadObjectThreadedEiNS_9LockFlagsE
1717:__ZN17PersistentManager32LoadRemainingPreallocatedObjectsENS_9LockFlagsE
1718:__ZN17PersistentManager27IntegrateAllThreadedObjectsEv
1719:__ZN17PersistentManager32CopyToAwakeFromLoadQueueInternalER18AwakeFromLoadQueue
1720:__ZN6Object24RegisterInstanceIDNoLockEPS_
1721:__ZL20SortItemByInstanceIDRKN18AwakeFromLoadQueue4ItemES2_
1722:__ZN18AwakeFromLoadQueue28InvokePersistentManagerAwakeEPNS_4ItemEj17AwakeFromLoadMode
1723:__ZN4core8hash_setINS_4pairIKiP6ObjectLb0EEENS_9hash_pairINS_4hashIiEES2_S4_EENS_10equal_pairINSt3__28equal_toIiEES2_S4_EEE6insertERKS5_
1724:__ZN18AwakeFromLoadQueue7ReserveEj
1725:__ZNSt3__26__sortIRNS_6__lessI14ObjectLoadDataS2_EEPS2_EEvT0_S6_T_
1726:__ZN17PersistentManager29ReadAndActivateObjectThreadedEiRK26SerializedObjectIdentifierP14SerializedFilebbNS_9LockFlagsE
1727:__ZN17PersistentManager34GetSerializedFileIfObjectAvailableEixNS_9LockFlagsE
1728:__ZN17PersistentManager32CreateThreadActivationQueueEntryER14SerializedFile26SerializedObjectIdentifieribNS_9LockFlagsE
1729:__ZN14SerializedFile10ReadObjectEx18ObjectCreationModebPPK8TypeTreePbR6Object
1730:__ZN17PersistentManager23PostReadActivationQueueEiPK8TypeTreebNS_9LockFlagsE
1731:__ZN13dynamic_arrayI12TypeTreeNodeLj0EEC2Ej10MemLabelId
1732:__Z16GenerateTypeTreeRK6ObjectR8TypeTree24TransferInstructionFlags
1733:__Z26IsStreamedBinaryCompatibleRK16TypeTreeIteratorS1_
1734:__ZN14SafeBinaryRead4InitERK16TypeTreeIteratorxx24TransferInstructionFlags10MemLabelId
1735:__ZN12CachedReader8InitReadER15CacheReaderBasejj
1736:__ZN12CachedReader3EndEv
1737:__ZL23OutOfBoundsReadingErrorPKN5Unity4TypeEiiR6Object
1738:__ZNK10MonoScript22GetScriptFullClassNameEv
1739:__ZN12CachedReader16OutOfBoundsErrorEjj
1740:__ZN14SafeBinaryReadC2Ev
1741:__ZN13dynamic_arrayI12TypeTreeNodeLj0EE21resize_buffer_nocheckEj12ResizePolicy
1742:__ZN24GenerateTypeTreeTransferC2ER8TypeTree24TransferInstructionFlagsPvi
1743:__ZN8TypeTreeC2E10MemLabelId
1744:__ZN17PersistentManager13ProduceObjectER14SerializedFile26SerializedObjectIdentifieri18ObjectCreationModeNS_9LockFlagsE
1745:__ZN4core8hash_mapIi17ThreadedAwakeDataNS_4hashIiEENSt3__28equal_toIiEEE6insertERKiRKS1_
1746:__ZN4core8hash_setINS_4pairIKi17ThreadedAwakeDataLb0EEENS_9hash_pairINS_4hashIiEES2_S3_EENS_10equal_pairINSt3__28equal_toIiEES2_S3_EEE4growEi
1747:__ZN6Object7ProduceEPKN5Unity4TypeES3_i10MemLabelId18ObjectCreationMode
1748:__ZN17PersistentManager43LocalSerializedObjectIdentifierToInstanceIDEiRK31LocalSerializedObjectIdentifierRiNS_9LockFlagsE
1749:__ZN17PersistentManager22GetFromActivationQueueEiNS_9LockFlagsE
1750:__ZN22SerializableManagedRef19RebuildMonoInstanceEP6Object17ScriptingClassPtr18ScriptingObjectPtrP10MonoScript
1751:__ZN9Scripting31ConnectScriptingWrapperToObjectE18ScriptingObjectPtrP6Object
1752:__ZN22SerializableManagedRef19SetupScriptingCacheEP6Object17ScriptingClassPtrP10MonoScript
1753:__Z64scripting_unity_engine_object_new_and_invoke_default_constructor17ScriptingClassPtrP6ObjectP21ScriptingExceptionPtr
1754:__ZNK22SerializableManagedRef22GetScriptFullClassNameEv
1755:__Z27FindOrCreateMonoScriptCache17ScriptingClassPtr22InitScriptingCacheTypeP6Objecti
1756:__ZN16ScriptingManager18GetMonoScriptCacheEi
1757:__Z18BuildScriptClassId17ScriptingClassPtr
1758:__Z21CreateMonoScriptCacheRKN4core12basic_stringIcNS_20StringStorageDefaultIcEEEE17ScriptingClassPtr22InitScriptingCacheTypeP6Objecti
1759:__Z27scripting_class_get_methods17ScriptingClassPtrRNSt3__26vectorI18ScriptingMethodPtr13stl_allocatorIS2_L18MemLabelIdentifier1ELi16EEEE
1760:__ZNSt3__26__treeINS_12__value_typeIPKc18ScriptingMethodPtrEENS_19__map_value_compareIS3_S5_14CStringCompareLb1EEE13stl_allocatorIS5_L18MemLabelIdentifier1ELi16EEE25__emplace_unique_key_argsIS3_JRKNS_21piecewise_construct_tENS_5tupleIJOS3_EEENSH_IJEEEEEENS_4pairINS_15__tree_iteratorIS5_PNS_11__tree_nodeIS5_PvEEiEEbEERKT_DpOT0_
1761:__Z25scripting_class_from_type16ScriptingTypePtr
1762:__ZNSt3__26__treeINS_12__value_typeIPKc18ScriptingMethodPtrEENS_19__map_value_compareIS3_S5_14CStringCompareLb1EEE13stl_allocatorIS5_L18MemLabelIdentifier1ELi16EEE7destroyEPNS_11__tree_nodeIS5_PvEE
1763:__ZN16ScriptingManager27NativeTypeForScriptingClassE17ScriptingClassPtr
1764:__ZN9Scripting25GetTypeFromScriptingClassE17ScriptingClassPtr
1765:__ZN23ManagedAttributeManager24GetDefaultExecutionOrderE17ScriptingClassPtr
1766:__Z26scripting_class_get_object17ScriptingClassPtr
1767:__ZN19ScriptingInvocation6InvokeIiEET_P21ScriptingExceptionPtrb
1768:__ZN5Unity4Type14FindTypeByNameEPKcNS0_22CaseSensitivityOptionsE
1769:__ZNK11TypeManager15ClassNameToRTTIEPKcb
1770:__ZNK4core8hash_setINS_4pairIKPKcPK4RTTILb0EEENS_9hash_pairIN11TypeManager23ConstCharPtrHashFunctorES4_S7_EENS_10equal_pairINSA_19ConstCharPtrEqualToES4_S7_EEE6lookupIS3_EEPNSG_4nodeERKT_
1771:__Z33RenderImageFilterValidateCallback18ScriptingMethodPtr17ScriptingClassPtrP6Object
1772:__Z31AudioFilterReadValidateCallback18ScriptingMethodPtr17ScriptingClassPtrP6Object
1773:__Z21CheckMethodParameters18ScriptingMethodPtr17ScriptingClassPtrPS0_jP6ObjectR11MonoManager
1774:__Z26GetScriptClassIdComponents17ScriptingClassPtrRN4core17string_with_labelILi1EEES3_S3_
1775:__ZL21AppendNestedClassName17ScriptingClassPtrRN4core17string_with_labelILi1EEE
1776:__ZN8Remapper23GetOrGenerateInstanceIDERK26SerializedObjectIdentifier
1777:__ZN17PersistentManager25PreallocateObjectThreadedEiNS_9LockFlagsE
1778:__ZN25DiagnosticsUtils_Bindings10ForceCrashENS_19ForcedCrashCategoryEP21ScriptingExceptionPtr
1779:__ZN9Scripting23CreateArgumentExceptionEPKcz
1780:__ZN17PersistentManager22MakeObjectUnpersistentEi13UnpersistMode
1781:__Z28delete_object_internal_step1P6Object
1782:__ZN12EventManager11InvokeEventEP10EventEntryPvi
1783:__ZN12EventManager11RemoveEventEP10EventEntry
1784:__ZN17PersistentManager15DestroyFromFileEi
1785:__ZN8Remapper6RemoveEi
1786:__ZN17PersistentManager26GetStreamNameSpaceInternalEi
1787:__ZN13dynamic_arrayIxLj0EE4growEv
1788:__ZN17PersistentManager19RemapToAbsolutePathERKN4core12basic_stringIcNS0_20StringStorageDefaultIcEEEE
1789:__Z13IsFileCreatedRKN4core12basic_stringIcNS_20StringStorageDefaultIcEEEE
1790:__ZN14SerializedFile14InitializeReadERKN4core12basic_stringIcNS0_20StringStorageDefaultIcEEEER18ResourceImageGroupjb24TransferInstructionFlagsjj
1791:__ZN14SerializedFileD2Ev
1792:__ZN17PersistentManager31PostLoadStreamNameSpaceInternalER15StreamNameSpacei
1793:__ZNSt3__26vectorINS_4pairIiiEE13stl_allocatorIS2_L18MemLabelIdentifier39ELi16EEE6insertENS_11__wrap_iterIPKS2_EEOS2_
1794:__ZNSt3__214__split_bufferINS_4pairIiiEER13stl_allocatorIS2_L18MemLabelIdentifier39ELi16EEE9push_backEOS2_
1795:__ZN18ResourceImageGroup7CleanupEv
1796:__ZN19dynamic_block_arrayI14FileIdentifierLj64EED2Ev
1797:__ZN13dynamic_arrayIN14SerializedFile14SerializedTypeELj0EED2Ev
1798:__ZN13dynamic_arrayI14FileIdentifierLj0EED2Ev
1799:__ZN13ResourceImageD2Ev
1800:__ZN14SerializedFile10ReadHeaderEv
1801:__Z28PrintSerializedFileLoadErrorRKN4core12basic_stringIcNS_20StringStorageDefaultIcEEEEj23SerializedFileLoadError
1802:__Z11FormatBytesx
1803:__Z12FormatStringPKcz
1804:__Z12FormatBufferPciPKcPi
1805:__Z13ReadFileCacheR15CacheReaderBasePvjj
1806:__ZN14SerializedFile12ReadMetadataILb0EEEbijPKhjj
1807:__ZN14SerializedFile12ReadMetadataILb1EEEbijPKhjj
1808:__ZN14SerializedFile27PatchRemapDeprecatedClassesEv
1809:__ZN5Unity4Type26FindTypeByPersistentTypeIDEi
1810:__ZN5Unity4Type41GetDeserializationStubForPersistentTypeIDEi
1811:__ZL38FindOrCreateSerializedTypeForUnityTypeR13dynamic_arrayIN14SerializedFile14SerializedTypeELj0EEPKN5Unity4TypeEbsi
1812:__ZN11TypeManager45GetDeserializationRTTIStubForPersistentTypeIDEi
1813:__ZNK11TypeManager22PersistentTypeIDToRTTIEi
1814:__ZL10ReadStringRN4core12basic_stringIcNS_20StringStorageDefaultIcEEEERPKhS6_
1815:__ZN13dynamic_arrayIN14SerializedFile14SerializedTypeELj0EE18resize_initializedEjRKS1_12ResizePolicy
1816:__ZN14SerializedFile14SerializedType8ReadTypeILb1EEEbibRPKhS3_Pi
1817:__ZL26ExtractScriptTypeReferenceRK16TypeTreeIteratorjR15CacheReaderBasebR31LocalSerializedObjectIdentifier
1818:__ZN13dynamic_arrayI31LocalSerializedObjectIdentifierLj0EE4growEv
1819:__ZNSt3__26vectorINS_4pairIxN14SerializedFile10ObjectInfoEEENS_9allocatorIS4_EEE21__push_back_slow_pathIS4_EEvOT_
1820:__ZN13dynamic_arrayI31LocalSerializedObjectIdentifierLj0EE21resize_buffer_nocheckEj12ResizePolicy
1821:__ZN19dynamic_block_arrayI14FileIdentifierLj64EE28resize_with_resizer_internalINS1_20ResizerWithNoDefaultEEEvjRKT_
1822:__ZNSt3__26__treeINS_12__value_typeIiiEENS_19__map_value_compareIiS2_NS_4lessIiEELb1EEENS_9allocatorIS2_EEE7destroyEPNS_11__tree_nodeIS2_PvEE
1823:__ZN19dynamic_block_arrayI14FileIdentifierLj64EE4growEj
1824:__ZN13dynamic_arrayI14FileIdentifierLj0EE18resize_initializedEj12ResizePolicy
1825:__ZN8TypeTree8BlobReadERPKhS1_ib
1826:__ZL16ReadTypeTreeImplILb1EEbR8TypeTreeRK16TypeTreeIteratorRPKhS6_i
1827:__ZL12CreateStringPjR13dynamic_arrayIcLj0EEPKc
1828:__ZN13dynamic_arrayI12TypeTreeNodeLj0EE4growEv
1829:__ZNK17CommonStringTable16FindCommonStringEPKc
1830:__ZN14SerializedFile14SerializedType8ReadTypeILb0EEEbibRPKhS3_Pi
1831:__ZL16ReadTypeTreeImplILb0EEbR8TypeTreeRK16TypeTreeIteratorRPKhS6_i
1832:__ZN14FileCacherReadC2E10MemLabelIdRKN4core12basic_stringIcNS1_20StringStorageDefaultIcEEEEjb
1833:__Z18PathToAbsolutePathRKN4core12basic_stringIcNS_20StringStorageDefaultIcEEEE
1834:__ZN13FileEntryDataD2Ev
1835:__ZN15FileSystemEntryC2EPKc
1836:__ZN15FileSystemEntry3SetEPKc
1837:__Z24ConvertSeparatorsToUnityPc
1838:__ZNK10FileSystem10ToAbsoluteEPKc
1839:__ZN14FileCacherReadD2Ev
1840:__ZN14FileCacherReadD0Ev
1841:__ZN14FileCacherRead10DirectReadEPvjj
1842:__ZN14FileCacherRead14LockCacheBlockEjPPhS1_
1843:__ZN14FileCacherRead16UnlockCacheBlockEj
1844:__ZNK14FileCacherRead12GetCacheSizeEv
1845:__ZNK14FileCacherRead11GetPathNameEv
1846:__ZN15CacheReaderBase18GetAddressOfMemoryEv
1847:__ZN14FileCacherRead7RequestEiiRNS_10CacheBlockEb
1848:__Z15SyncReadRequestP16AsyncReadCommand
1849:__ZN13OpenFileCache10OpenCachedERKN4core12basic_stringIcNS0_20StringStorageDefaultIcEEEE
1850:__ZN4File4ReadEyPvj
1851:__ZN12FileAccessor4ReadEyyPvPy
1852:__ZN4File5CloseEv
1853:__ZN4File4OpenERKN4core12basic_stringIcNS0_20StringStorageDefaultIcEEEENS_10PermissionENS_12AutoBehaviorE
1854:__ZN4File19OpenFileSystemEntryERK15FileSystemEntryNS_10PermissionENS_12AutoBehaviorE
1855:__ZN12FileAccessor5CloseEv
1856:__ZN13FileEntryDataaSERKS_
1857:__ZN12FileAccessor4OpenER15FileSystemEntry14FilePermission16FileAutoBehavior
1858:__ZN12FileAccessorC2Ev
1859:__ZN12FileAccessorD2Ev
1860:__ZN12FileAccessorD0Ev
1861:__ZN13OpenFileCache10ForceCloseERKN4core12basic_stringIcNS0_20StringStorageDefaultIcEEEE
1862:__ZNSt3__27__sort4IRNS_6__lessI14ObjectLoadDataS2_EEPS2_EEjT0_S6_S6_S6_T_
1863:__ZNSt3__27__sort5IRNS_6__lessI14ObjectLoadDataS2_EEPS2_EEjT0_S6_S6_S6_S6_T_
1864:__ZNSt3__218__insertion_sort_3IRNS_6__lessI14ObjectLoadDataS2_EEPS2_EEvT0_S6_T_
1865:__ZNSt3__227__insertion_sort_incompleteIRNS_6__lessI14ObjectLoadDataS2_EEPS2_EEbT0_S6_T_
1866:__ZN6Object18RegisterInstanceIDEPS_
1867:__Z16CanDestroyObjectP6Objectb
1868:__Z31DestroyObjectHighLevel_InternalP6Objectb
1869:__ZN10GameObject17GetComponentIndexEPN5Unity9ComponentE
1870:__ZN10GameObject22RemoveComponentAtIndexEi
1871:__ZL19PreDestroyRecursiveR10GameObjectPj
1872:__ZNK10GameObject20QueryComponentByTypeEPKN5Unity4TypeE
1873:__ZN9Transform16RemoveFromParentENS_20RemoveFromParentModeE
1874:__ZL26DestroyGameObjectRecursiveR10GameObjectR11BatchDelete
1875:__Z17CommitBatchDeleteR11BatchDelete
1876:__Z28delete_object_internal_step2P6Object
1877:__ZN32TransformHierarchyChangeDispatch26DispatchSelfAndAllChildrenE15TransformAccessNS_12InterestTypeE
1878:__ZN17TransformInternal20FreeTransformHandlesER18TransformHierarchyi
1879:__ZN17TransformInternal25DestroyTransformHierarchyEP18TransformHierarchy
1880:__ZN17TransformInternal21DetachTransformThreadER18TransformHierarchyjj
1881:__ZN17TransformInternal19FreeTransformThreadER18TransformHierarchyjj
1882:__ZN17TransformInternal27UpdateDeepChildCountUpwardsER18TransformHierarchyii
1883:__ZN32TransformHierarchyChangeDispatch22DispatchSelfAndParentsE15TransformAccessNS_12InterestTypeE
1884:__ZN5Unity9Component14SendMessageAnyERK17MessageIdentifierR11MessageData
1885:__ZN10GameObject14SendMessageAnyERK17MessageIdentifierR11MessageData
1886:__ZN16MessageForwarder13HandleMessageEPviR11MessageData
1887:__ZN23TransformChangeDispatch24RemoveTransformHierarchyER18TransformHierarchy
1888:__ZN10GameObject21WillDestroyGameObjectEv
1889:__Z19CanReplaceComponentRN5Unity9ComponentEPKNS_4TypeEPN4core12basic_stringIcNS5_20StringStorageDefaultIcEEEE
1890:__Z34FindRequiredComponentsForComponentPKN5Unity4TypeE
1891:__Z24GetComponentOrScriptNameRN5Unity9ComponentE
1892:__ZNK22SerializableManagedRef18GetScriptClassNameEv
1893:__Z6AppendRKN4core12basic_stringIcNS_20StringStorageDefaultIcEEEEPKc
1894:__Z25InitComponentRequirementsv
1895:__ZNSt3__26__treeINS_12__value_typeIPKN5Unity4TypeE10vector_setIS5_NS_4lessIS5_EENS_9allocatorIS5_EEEEENS_19__map_value_compareIS5_SC_S8_Lb1EEENS9_ISC_EEE7destroyEPNS_11__tree_nodeISC_PvEE
1896:__Z38InitComponentRequirementsForModuleSpecRK10ModuleSpec
1897:__ZN13ModuleManager3GetEv
1898:__ZNK5Unity4Type21FindAllDerivedClassesER13dynamic_arrayIPKS0_Lj0EENS0_17TypeFilterOptionsE
1899:__ZNSt3__26vectorIPKN5Unity4TypeENS_9allocatorIS4_EEE6assignIPS4_EENS_9enable_ifIXaasr21__is_forward_iteratorIT_EE5valuesr16is_constructibleIS4_NS_15iterator_traitsISB_E9referenceEEE5valueEvE4typeESB_SB_
1900:__ZNSt3__26__sortIRNS_4lessIPKN5Unity4TypeEEEPS5_EEvT0_S9_T_
1901:__ZL23AddConflictingClassIMPLPKN5Unity4TypeES2_
1902:__ZNSt3__27__sort5IRNS_4lessIPKN5Unity4TypeEEEPS5_EEjT0_S9_S9_S9_S9_T_
1903:__ZNSt3__227__insertion_sort_incompleteIRNS_4lessIPKN5Unity4TypeEEEPS5_EEbT0_S9_T_
1904:__ZNK11TypeManager23FindAllRTTIDerivedTypesEPK4RTTIR13dynamic_arrayIS2_Lj0EEb
1905:__ZN24StaticInitializeInternal13ConstructTypeI13ModuleManagerLb0EEEPvS2_10MemLabelId
1906:__ZN10UnityScene43RegisterLevelGameManagersWithManagerContextEv
1907:__ZN13RuntimeStaticI21AssetReferenceStorageLb0EE16StaticInitializeEPv
1908:__ZN13RuntimeStaticI21AssetReferenceStorageLb0EE13StaticDestroyEPv
1909:__ZL19StaticCleanupPlayerPv
1910:__ZN22BuiltinResourceManager16StaticInitializeEPv
1911:__ZN22BuiltinResourceManager13StaticDestroyEPv
1912:__ZN21AssetReferenceStorageD2Ev
1913:__ZN21AssetReferenceStorage22GarbageCollectCallbackEPS_R27GarbageCollectorThreadState
1914:__ZN24StaticInitializeInternal13ConstructTypeI21AssetReferenceStorageLb0EEEPvS2_10MemLabelId
1915:__ZN13RuntimeStaticI19EndOfFrameCallbacksLb0EE16StaticInitializeEPv
1916:__ZN13RuntimeStaticI19EndOfFrameCallbacksLb0EE13StaticDestroyEPv
1917:__ZN13RuntimeStaticI19UnityPluginRegistryLb0EE16StaticInitializeEPv
1918:__ZN13RuntimeStaticI19UnityPluginRegistryLb0EE13StaticDestroyEPv
1919:__ZN13RuntimeStaticINSt3__23mapIN4core12basic_stringIcNS2_20StringStorageDefaultIcEEEES6_NS0_4lessIS6_EE13stl_allocatorINS0_4pairIKS6_S6_EEL18MemLabelIdentifier13ELi16EEEELb0EE16StaticInitializeEPv
1920:__ZN13RuntimeStaticINSt3__23mapIN4core12basic_stringIcNS2_20StringStorageDefaultIcEEEES6_NS0_4lessIS6_EE13stl_allocatorINS0_4pairIKS6_S6_EEL18MemLabelIdentifier13ELi16EEEELb0EE13StaticDestroyEPv
1921:__ZNSt3__26__treeINS_12__value_typeIN4core12basic_stringIcNS2_20StringStorageDefaultIcEEEES6_EENS_19__map_value_compareIS6_S7_NS_4lessIS6_EELb1EEE13stl_allocatorIS7_L18MemLabelIdentifier13ELi16EEE7destroyEPNS_11__tree_nodeIS7_PvEE
1922:__ZN24StaticInitializeInternal13ConstructTypeI19UnityPluginRegistryLb0EEEPvS2_10MemLabelId
1923:__ZN19EndOfFrameCallbacks8DequeAllEv
1924:__Z23DestroyMutexLockedQueueP16MutexLockedQueue10MemLabelId
1925:__ZN24StaticInitializeInternal13ConstructTypeI19EndOfFrameCallbacksLb0EEEPvS2_10MemLabelId
1926:__Z22CreateMutexLockedQueue10MemLabelId
1927:__ZN21ComponentRequirements16StaticInitializeEPv
1928:__ZN21ComponentRequirements13StaticDestroyEPv
1929:__Z22CleanupCachingManagersPv
1930:__ZN15FileSystemEntry6DeleteEb
1931:__ZN4Rand14RandomizeStateEv
1932:__Z24GetCurrentTimeAsDateTimev
1933:__ZN10SpookyHash7Hash128EPKvjPyS2_
1934:__ZN10SpookyHash5ShortEPKvjPyS2_
1935:__ZL30InitializeHalfConversionTablesPv
1936:__ZL30InitializeRegisterDomainReloadPv
1937:__Z27CleanupAllJobReflectionDatav
1938:__ZN13RuntimeStaticI22ThreadSharedObjectPoolI26ScriptableShadowCasterDataELb1EE16StaticInitializeEPv
1939:__ZN13RuntimeStaticI22ThreadSharedObjectPoolI26ScriptableShadowCasterDataELb1EE13StaticDestroyEPv
1940:__ZN22ThreadSharedObjectPoolI26ScriptableShadowCasterDataE5ClearEv
1941:__ZN13dynamic_arrayI20ShadowCasterPartDataLj0EED2Ev
1942:__ZN15RenderNodeQueueD2Ev
1943:__ZN15RenderNodeQueue5ResetEb
1944:__ZN19AtomicPageAllocatorD2Ev
1945:__ZN19AtomicPageAllocator5ClearEv
1946:__ZN13dynamic_arrayI16ShadowCasterDataLj0EE9owns_dataEv
1947:__ZN13dynamic_arrayI16ShadowCasterDataLj0EE10deallocateEv
1948:__ZN24StaticInitializeInternal13ConstructTypeI22ThreadSharedObjectPoolI26ScriptableShadowCasterDataELb1EEEPvS4_10MemLabelId
1949:__ZN13RuntimeStaticI17UniqueIDGeneratorLb0EE16StaticInitializeEPv
1950:__ZN23DefaultMeshVertexFormatC2ERK18VertexChannelsInfo
1951:__ZN24StaticInitializeInternal13ConstructTypeI17UniqueIDGeneratorLb0EEEPvS2_10MemLabelId
1952:__ZN17UniqueIDGeneratorC2E10MemLabelId
1953:__ZN13RuntimeStaticI23MeshVertexFormatManagerLb0EE16StaticInitializeEPv
1954:__ZN13RuntimeStaticI23MeshVertexFormatManagerLb0EE13StaticDestroyEPv
1955:__ZNSt3__26__treeINS_12__value_typeI18VertexChannelsInfo16MeshVertexFormatEENS_19__map_value_compareIS2_S4_NS_4lessIS2_EELb1EEE13stl_allocatorIS4_L18MemLabelIdentifier17ELi16EEE7destroyEPNS_11__tree_nodeIS4_PvEE
1956:__ZN23DynamicVBOBufferManager26CleanupThreadLocalDataListEPv
1957:__Z25InitializeLODGroupManagerPv
1958:__Z22CleanupLODGroupManagerPv
1959:__ZN15LODGroupManagerD2Ev
1960:__ZN17UniqueIDGenerator7CleanupEv
1961:__ZN23TransformChangeDispatch16UnregisterSystemER27TransformChangeSystemHandle
1962:__ZN17UniqueIDGenerator16DestroyPureIndexEj
1963:__ZN17UniqueIDGenerator15CreatePureIndexEv
1964:__ZN23TransformChangeDispatch14RegisterSystemEPKcNS_12InterestTypeE
1965:__ZN21BillboardBatchManager16StaticInitializeEPv
1966:__ZN21BillboardBatchManager13StaticCleanupEPv
1967:__Z28BuildSingleStreamChannelInfoR18VertexChannelsInfoRK22VertexAttributeFormats17ShaderChannelMaskS4_
1968:__ZN23MeshVertexFormatManager19GetMeshVertexFormatERK18VertexChannelsInfo
1969:__ZNSt3__26__treeINS_12__value_typeI18VertexChannelsInfo16MeshVertexFormatEENS_19__map_value_compareIS2_S4_NS_4lessIS2_EELb1EEE13stl_allocatorIS4_L18MemLabelIdentifier17ELi16EEE13__lower_boundIS2_EENS_15__tree_iteratorIS4_PNS_11__tree_nodeIS4_PvEEiEERKT_SI_PNS_15__tree_end_nodeIPNS_16__tree_node_baseISG_EEEE
1970:__ZN16MeshVertexFormatC2ERK18VertexChannelsInfo
1971:__ZNSt3__26__treeINS_12__value_typeI18VertexChannelsInfo16MeshVertexFormatEENS_19__map_value_compareIS2_S4_NS_4lessIS2_EELb1EEE13stl_allocatorIS4_L18MemLabelIdentifier17ELi16EEE12__find_equalIS2_EERPNS_16__tree_node_baseIPvEENS_21__tree_const_iteratorIS4_PNS_11__tree_nodeIS4_SF_EEiEERPNS_15__tree_end_nodeISH_EESI_RKT_
1972:__ZNSt3__26__treeINS_12__value_typeI18VertexChannelsInfo16MeshVertexFormatEENS_19__map_value_compareIS2_S4_NS_4lessIS2_EELb1EEE13stl_allocatorIS4_L18MemLabelIdentifier17ELi16EEE12__find_equalIS2_EERPNS_16__tree_node_baseIPvEERPNS_15__tree_end_nodeISH_EERKT_
1973:__ZN13RuntimeStaticI10WatermarksLb0EE16StaticInitializeEPv
1974:__ZN20DiagnosticSwitchBaseC2EPKcS1_NS_11SwitchFlagsE
1975:__ZN16DiagnosticSwitchIbE18SetValueFromStringEPKc
1976:__ZN16DiagnosticSwitchIbE20ApplyPersistentValueEv
1977:__ZN16DiagnosticSwitchIbE20CollectScriptingInfoERN20DiagnosticSwitchBase13ScriptingInfoE
1978:__ZN16DiagnosticSwitchIbE24UpdateFromScriptingValueE18ScriptingObjectPtrb
1979:__ZN9Scripting26RaiseArgumentNullExceptionEPKc
1980:__ZN9Scripting22RaiseArgumentExceptionEPKcz
1981:__ZN9Scripting24RaiseSystemExceptionImplEPKcS1_Pi
1982:__ZN9Scripting26CreateManagedExceptionImplEPKcS1_S1_Pi
1983:__Z30CreateBoxedObjectFromPrimitiveb
1984:__ZN16DiagnosticSwitchIbE18GetPersistentValueEv
1985:__Z19scripting_value_box17ScriptingClassPtrPv
1986:__Z14IsStringNumberPKc
1987:__Z14StringToUInt32RKN4core16basic_string_refIcEE
1988:__ZN24StaticInitializeInternal13ConstructTypeI10WatermarksLb0EEEPvS2_10MemLabelId
1989:__ZN18AsyncUploadManager16StaticInitializeEPv
1990:__ZN18AsyncUploadManager13StaticDestroyEPv
1991:__ZN18AsyncUploadManagerD2Ev
1992:__ZN18ConcurrentFreeListI12AsyncCommandE7CleanUpEv
1993:__ZN14QueueAllocatorD2Ev
1994:__ZN18AsyncUploadManagerC2E10MemLabelId
1995:__ZN13RuntimeStaticIN4core8hash_mapIiiNS0_4hashIiEENSt3__28equal_toIiEEEELb0EE16StaticInitializeEPv
1996:__ZN13RuntimeStaticIN4core8hash_mapIiiNS0_4hashIiEENSt3__28equal_toIiEEEELb0EE13StaticDestroyEPv
1997:__ZN24StaticInitializeInternal13ConstructTypeIN4core8hash_mapIiiNS1_4hashIiEENSt3__28equal_toIiEEEELb0EEEPvS9_10MemLabelId
1998:__ZL38StaticRegister_LightmapSettingsManagerPv
1999:__ZL33StaticUnregister_LightmapSettingsPv
2000:__ZL14DidUnloadScenei
2001:__ZL21SceneLoadedAfterAwakeiR18AwakeFromLoadQueue16SceneLoadingMode
2002:__Z20DidChangeActiveSceneP10UnitySceneS0_
2003:__ZL12WipeSettingsv
2004:__ZNK10UnityScene19GetLevelGameManagerEi
2005:__ZN16LightmapSettings8CopyFromEPKS_
2006:__ZN13dynamic_arrayI10SceneRangeLj0EE21resize_buffer_nocheckEj12ResizePolicy
2007:__ZN21EnlightenSceneMappingaSERKS_
2008:__ZN16LightmapSettings7RebuildEv
2009:__ZN16LightmapSettings28SetDynamicGILightmapTexturesEPK22RealtimeLightmapIDDataj
2010:__Znaj
2011:__ZN13dynamic_arrayI28EnlightenRendererInformationLj0EE21resize_buffer_nocheckEj12ResizePolicy
2012:__ZN13dynamic_arrayI26EnlightenSystemInformationLj0EE21resize_buffer_nocheckEj12ResizePolicy
2013:__ZN13dynamic_arrayI31EnlightenSystemAtlasInformationLj0EE21resize_buffer_nocheckEj12ResizePolicy
2014:__ZNSt3__26vectorINS_4pairIijEENS_9allocatorIS2_EEE6assignIPS2_EENS_9enable_ifIXaasr21__is_forward_iteratorIT_EE5valuesr16is_constructibleIS2_NS_15iterator_traitsIS9_E9referenceEEE5valueEvE4typeES9_S9_
2015:__ZN4core8hash_mapIiP16LightmapSettingsNS_4hashIiEENSt3__28equal_toIiEEEixERKi
2016:__ZNK23LightmapSettingsManager24CheckSettingsConsistencyEv
2017:__ZN16LightmapSettings15AppendLightmapsEiRK13dynamic_arrayI12LightmapDataLj0EE
2018:__ZN21EnlightenSceneMapping6AppendEiRKS_
2019:__ZN21EnlightenSceneMapping14SetSceneHandleEi
2020:__Z24InitializeMainSceneRangeiiiR13dynamic_arrayI10SceneRangeLj0EE
2021:__ZN13dynamic_arrayI10SceneRangeLj0EE4growEv
2022:__ZNSt3__26vectorINS_4pairIijEENS_9allocatorIS2_EEE21__push_back_slow_pathIS2_EEvOT_
2023:__ZN13sorted_vectorINSt3__24pairIijEEN10vector_mapIijNS0_4lessIiEENS0_9allocatorIS2_EEE13value_compareES7_E21sort_clear_duplicatesEv
2024:__ZnwjRKSt9nothrow_t
2025:__ZNSt3__213__stable_sortIRN10vector_mapIijNS_4lessIiEENS_9allocatorINS_4pairIijEEEEE13value_compareENS_11__wrap_iterIPS6_EEEEvT0_SE_T_NS_15iterator_traitsISE_E15difference_typeEPNSH_10value_typeEi
2026:__ZNSt3__218__stable_sort_moveIRN10vector_mapIijNS_4lessIiEENS_9allocatorINS_4pairIijEEEEE13value_compareENS_11__wrap_iterIPS6_EEEEvT0_SE_T_NS_15iterator_traitsISE_E15difference_typeEPNSH_10value_typeE
2027:__ZNSt3__215__inplace_mergeIRN10vector_mapIijNS_4lessIiEENS_9allocatorINS_4pairIijEEEEE13value_compareENS_11__wrap_iterIPS6_EEEEvT0_SE_SE_T_NS_15iterator_traitsISE_E15difference_typeESI_PNSH_10value_typeEi
2028:__ZNSt3__224__buffered_inplace_mergeIRN10vector_mapIijNS_4lessIiEENS_9allocatorINS_4pairIijEEEEE13value_compareENS_11__wrap_iterIPS6_EEEEvT0_SE_SE_T_NS_15iterator_traitsISE_E15difference_typeESI_PNSH_10value_typeE
2029:__Z16AppendSceneRangeiiiiiR13dynamic_arrayI10SceneRangeLj0EE
2030:__ZNK10GISettings26GetEnableRealtimeLightmapsEv
2031:__ZN9Scripting11UnityEngine12Experimental9Rendering31SupportedRenderingFeaturesProxy32IsLightmapBakeTypeSupportedByRefEiPvP21ScriptingExceptionPtr
2032:__ZN18ScriptingArguments7AddEnumEi
2033:__ZN18ScriptingArguments9AddIntPtrEPv
2034:__ZN19ScriptingInvocation6InvokeIvEET_P21ScriptingExceptionPtrb
2035:__ZN23LightmapSettingsManager19RemoveSceneSettingsEi
2036:__ZN21EnlightenSceneMapping5EraseEi
2037:__ZN16LightmapSettings15RemoveLightmapsEi
2038:__Z26ExtractAllRenderersInSceneR13dynamic_arrayIP8RendererLj0EE
2039:__Z25ExtractAllTerrainsInSceneR13dynamic_arrayIP7TerrainLj0EE
2040:__ZN6Object17FindObjectsOfTypeEPKN5Unity4TypeER13dynamic_arrayIPS_Lj0EEb
2041:__ZL31FindObjectsOfTypeImplementationPN4core8hash_setIP6ObjectNS_4hashIS2_EENSt3__28equal_toIS2_EEEEPKN5Unity4TypeER13dynamic_arrayIS2_Lj0EE
2042:__ZNSt3__26__sortIR17CompareInstanceIDPP6ObjectEEvT0_S6_T_
2043:__ZNSt3__27__sort5IR17CompareInstanceIDPP6ObjectEEjT0_S6_S6_S6_S6_T_
2044:__ZNSt3__227__insertion_sort_incompleteIR17CompareInstanceIDPP6ObjectEEbT0_S6_T_
2045:__Z14FindSceneIndexRK13dynamic_arrayI10SceneRangeLj0EEi
2046:__ZN13RuntimeStaticI19MemorylessRequesterLb0EE16StaticInitializeEPv
2047:__ZN13RuntimeStaticI19MemorylessRequesterLb0EE13StaticDestroyEPv
2048:__ZN13RuntimeStaticI19MemorylessRequesterLb0EE7DestroyEv
2049:__ZL33MemorylessRequesterDidUnloadScenei
2050:__ZN24StaticInitializeInternal13ConstructTypeI19MemorylessRequesterLb0EEEPvS2_10MemLabelId
2051:__ZL31InitializeRendererUpdateManagerPv
2052:__ZL28CleanupRendererUpdateManagerPv
2053:__ZN21RendererUpdateManagerD2Ev
2054:__ZN10Matrix4x4f11SetIdentityEv
2055:__ZN13RuntimeStaticI17UniqueIDGeneratorLb1EE16StaticInitializeEPv
2056:__Z37InitializeIntermediateRendererManagerPv
2057:__Z34CleanupIntermediateRendererManagerPv
2058:__ZN27IntermediateRendererManagerD2Ev
2059:__ZN27IntermediateRendererManager27RemoveIntermediateRenderersEi
2060:__ZN21IntermediateRenderers5ClearEj
2061:__ZN24StaticInitializeInternal13ConstructTypeI17UniqueIDGeneratorLb1EEEPvS2_10MemLabelId
2062:__ZL28InitializeAsyncUploadTexturePv
2063:__ZL26ShutdownAsyncUploadTexturePv
2064:__ZN18ConcurrentFreeListI24TextureUploadInstructionE7CleanUpEv
2065:__ZN15GlobalCallbacksC2Ev
2066:__ZN17CommonStringTable16StaticInitializeEPv
2067:__ZN17CommonStringTable13StaticCleanupEPv
2068:__ZN17CommonStringTableD2Ev
2069:__ZN17CommonStringTableC2E10MemLabelId
2070:__ZL24CleanupPrepassRenderLoopPv
2071:__ZN16memory_pool_implILi20EE15AutoPoolWrapper10InitializeEPv
2072:__ZN16memory_pool_implILi20EE15AutoPoolWrapper12UninitializeEPv
2073:__ZN10MemoryPool24RegisterStaticMemoryPoolEPS_
2074:__ZNSt3__26vectorIP10MemoryPool13stl_allocatorIS2_L18MemLabelIdentifier77ELi16EEE21__push_back_slow_pathIRKS2_EEvOT_
2075:__ZN19CullingGroupManager15InitializeClassEPv
2076:__ZN19CullingGroupManager12CleanupClassEPv
2077:___cxx_global_var_init_1091
2078:___cxx_global_var_init_1
2079:__ZL14CleanupShadowsPv
2080:__ZN9ShaderLab16FastPropertyNameC2EPKc
2081:__ZN11ColorRGBA32C2Ehhhh
2082:__ZNK11ColorRGBA32cv10ColorRGBAfEv
2083:__ZN10ColorRGBAfC2Effff
2084:__ZL25CleanupImageFilterGlobalsPv
2085:__ZN13RuntimeStaticI13RendererSceneLb0EE16StaticInitializeEPv
2086:__ZN13RuntimeStaticI13RendererSceneLb0EE13StaticDestroyEPv
2087:__ZN13RendererSceneD2Ev
2088:__ZN13RendererScene14RemoveRendererEi
2089:__ZN13RendererScene28SceneAfterCullingOutputReadyEPK9IndexListPK16RendererCullData
2090:__ZN13RendererScene16UpdateVisibilityEPK9IndexList
2091:__ZN24StaticInitializeInternal13ConstructTypeI13RendererSceneLb0EEEPvS2_10MemLabelId
2092:__ZN13RuntimeStaticI13dynamic_arrayIP6CameraLj0EELb0EE16StaticInitializeEPv
2093:__ZL33CleanupCubemapGPUUtilityMaterialsPv
2094:__ZN24MeshIntermediateRenderer16StaticInitializeEPv
2095:__ZN24MeshIntermediateRenderer13StaticDestroyEPv
2096:__ZN13RuntimeStaticI20BurstCompilerServiceLb0EE16StaticInitializeEPv
2097:__ZN13RuntimeStaticI20BurstCompilerServiceLb0EE13StaticDestroyEPv
2098:__ZL44DelegateCache_InitializeRegisterDomainReloadPv
2099:__ZL25CleanupAllCachedDelegatesv
2100:__ZN20BurstCompilerService12InternalDataD2Ev
2101:__ZN24StaticInitializeInternal13ConstructTypeI20BurstCompilerServiceLb0EEEPvS2_10MemLabelId
2102:__ZN20BurstCompilerServiceC2Ev
2103:__ZL22RegisterICallWithBurstPKcPKv
2104:__Z41scripting_add_icall_registration_callbackPFvPKcPKvE
2105:__ZN4core8hash_mapINS_12basic_stringIcNS_20StringStorageDefaultIcEEEEPKvNS_4hashIS4_EENSt3__28equal_toIS4_EEEixERKS4_
2106:__Z11burst_abortPKcS0_
2107:__Z17DebugStringToFileIN4core12basic_stringIcNS0_20StringStorageDefaultIcEEEEEvRKT_iPKci15LogMessageFlagsiiPFvRK11CppLogEntryE
2108:__ZN17BaseObjectManager16StaticInitializeEPv
2109:__ZN17BaseObjectManager13StaticDestroyEPv
2110:__ZN6Object13StaticDestroyEv
2111:__ZN11TypeManager21CleanupGlobalInstanceEv
2112:__ZN11TypeManagerD2Ev
2113:__ZNSt3__26__treeINS_12__value_typeIiN11TypeManager18TypeCallbackStructEEENS_19__map_value_compareIiS4_NS_4lessIiEELb1EEENS_9allocatorIS4_EEE7destroyEPNS_11__tree_nodeIS4_PvEE
2114:__ZN11TypeManager24InitializeGlobalInstanceEv
2115:__ZN6Object16StaticInitializeEv
2116:__ZN11TypeManager12RegisterTypeERK20TypeRegistrationDesc
2117:__ZN11TypeManager36FatalErrorOnPersistentTypeIDConflictEiPKc
2118:__ZN4core8hash_mapIPKcPK4RTTIN11TypeManager23ConstCharPtrHashFunctorENS6_19ConstCharPtrEqualToEEixERKS2_
2119:__ZN13RuntimeStaticI12EventManagerLb1EE16StaticInitializeEPv
2120:__ZN13RuntimeStaticI12EventManagerLb1EE13StaticDestroyEPv
2121:__ZN13RuntimeStaticI14MessageHandlerLb0EE16StaticInitializeEPv
2122:__ZN13RuntimeStaticI14MessageHandlerLb0EE13StaticDestroyEPv
2123:__ZNSt3__213__vector_baseI16MessageForwarder13stl_allocatorIS1_L18MemLabelIdentifier7ELi8EEED2Ev
2124:__ZN24StaticInitializeInternal13ConstructTypeI14MessageHandlerLb0EEEPvS2_10MemLabelId
2125:__ZN24StaticInitializeInternal13ConstructTypeI12EventManagerLb1EEEPvS2_10MemLabelId
2126:__ZL39CreateRegisteredMessageIdentifiersArrayPv
2127:__ZL40DestroyRegisteredMessageIdentifiersArrayPv
2128:__ZN13RuntimeStaticI12AdsIdHandlerLb0EE16StaticInitializeEPv
2129:__ZN13RuntimeStaticI12AdsIdHandlerLb0EE13StaticDestroyEPv
2130:__ZN13RuntimeStaticI15ApplicationInfoLb0EE16StaticInitializeEPv
2131:__ZN13RuntimeStaticI15ApplicationInfoLb0EE13StaticDestroyEPv
2132:__ZN24StaticInitializeInternal13ConstructTypeI15ApplicationInfoLb0EEEPvS2_10MemLabelId
2133:__ZN12AdsIdHandlerD2Ev
2134:__ZN24StaticInitializeInternal13ConstructTypeI12AdsIdHandlerLb0EEEPvS2_10MemLabelId
2135:__ZN13RuntimeStaticI18SpriteAtlasManagerLb1EE16StaticInitializeEPv
2136:__ZN24StaticInitializeInternal13ConstructTypeI18SpriteAtlasManagerLb1EEEPvS2_10MemLabelId
2137:__ZZN18SpriteAtlasManagerC1E10MemLabelIdEN46EarlyUpdateSpriteAtlasManagerUpdateRegistrator7ForwardEv
2138:__ZN18SpriteAtlasManager21CleanupInvalidAtlasesEv
2139:__ZN18SpriteAtlasManager21RequestAtlasViaScriptEv
2140:__ZN13sorted_vectorIN4core12basic_stringIcNS0_20StringStorageDefaultIcEEEENSt3__24lessIS4_EE13stl_allocatorIS4_L18MemLabelIdentifier82ELi16EEE21sort_clear_duplicatesEv
2141:__ZN19ScriptingInvocation6InvokeIbEET_P21ScriptingExceptionPtrb
2142:__Z13FormatOrderedPKcz
2143:__ZL20FormatOrderedProcessPKcP17FormatOrderedDataPc
2144:__ZNSt3__213__stable_sortIRNS_4lessIN4core12basic_stringIcNS2_20StringStorageDefaultIcEEEEEENS_11__wrap_iterIPS6_EEEEvT0_SC_T_NS_15iterator_traitsISC_E15difference_typeEPNSF_10value_typeEi
2145:__Z37remove_duplicates_using_copy_internalINSt3__211__wrap_iterIPN4core12basic_stringIcNS2_20StringStorageDefaultIcEEEEEENS0_4lessIS6_EEET_SB_SB_T0_
2146:__ZNSt3__26vectorIN4core12basic_stringIcNS1_20StringStorageDefaultIcEEEE13stl_allocatorIS5_L18MemLabelIdentifier82ELi16EEE5eraseENS_11__wrap_iterIPKS5_EESD_
2147:__ZNSt3__216__insertion_sortIRNS_4lessIN4core12basic_stringIcNS2_20StringStorageDefaultIcEEEEEENS_11__wrap_iterIPS6_EEEEvT0_SC_T_
2148:__ZNSt3__218__stable_sort_moveIRNS_4lessIN4core12basic_stringIcNS2_20StringStorageDefaultIcEEEEEENS_11__wrap_iterIPS6_EEEEvT0_SC_T_NS_15iterator_traitsISC_E15difference_typeEPNSF_10value_typeE
2149:__ZNSt3__219__merge_move_assignIRNS_4lessIN4core12basic_stringIcNS2_20StringStorageDefaultIcEEEEEEPS6_S9_NS_11__wrap_iterIS9_EEEEvT0_SC_T1_SD_T2_T_
2150:__ZNSt3__215__inplace_mergeIRNS_4lessIN4core12basic_stringIcNS2_20StringStorageDefaultIcEEEEEENS_11__wrap_iterIPS6_EEEEvT0_SC_SC_T_NS_15iterator_traitsISC_E15difference_typeESG_PNSF_10value_typeEi
2151:__ZNSt3__224__buffered_inplace_mergeIRNS_4lessIN4core12basic_stringIcNS2_20StringStorageDefaultIcEEEEEENS_11__wrap_iterIPS6_EEEEvT0_SC_SC_T_NS_15iterator_traitsISC_E15difference_typeESG_PNSF_10value_typeE
2152:__ZNSt3__216__rotate_forwardINS_11__wrap_iterIPN4core12basic_stringIcNS2_20StringStorageDefaultIcEEEEEEEET_S9_S9_S9_
2153:__ZNSt3__220__half_inplace_mergeINS_4lessIN4core12basic_stringIcNS2_20StringStorageDefaultIcEEEEEEPS6_NS_11__wrap_iterIS8_EESA_EEvT0_SB_T1_SC_T2_T_
2154:__ZNSt3__220__half_inplace_mergeINS_8__negateIRNS_4lessIN4core12basic_stringIcNS3_20StringStorageDefaultIcEEEEEEEENS_16reverse_iteratorIPS7_EENSB_INS_11__wrap_iterISC_EEEESG_EEvT0_SH_T1_SI_T2_T_
2155:__ZNSt3__221__insertion_sort_moveIRNS_4lessIN4core12basic_stringIcNS2_20StringStorageDefaultIcEEEEEENS_11__wrap_iterIPS6_EEEEvT0_SC_PNS_15iterator_traitsISC_E10value_typeET_
2156:__ZNSt3__222__merge_move_constructIRNS_4lessIN4core12basic_stringIcNS2_20StringStorageDefaultIcEEEEEENS_11__wrap_iterIPS6_EESB_EEvT0_SC_T1_SD_PNS_15iterator_traitsISC_E10value_typeET_
2157:__ZN18SpriteAtlasManagerD2Ev
2158:__ZN18SpriteAtlasManagerD0Ev
2159:__Z29InitializeSortingGroupManagerPv
2160:__Z26CleanupSortingGroupManagerPv
2161:__ZZ29InitializeSortingGroupManagerPvEN44PostLateUpdateSortingGroupsUpdateRegistrator7ForwardEv
2162:__ZN19SortingGroupManager6UpdateEv
2163:__ZNK9Transform11GetPositionEv
2164:__ZN13RuntimeStaticI22VirtualJoystickManagerLb0EE16StaticInitializeEPv
2165:__ZN13RuntimeStaticI22VirtualJoystickManagerLb0EE13StaticDestroyEPv
2166:__ZN13RuntimeStaticI15GUIEventManagerLb0EE16StaticInitializeEPv
2167:__ZN13RuntimeStaticI15GUIEventManagerLb0EE13StaticDestroyEPv
2168:__ZNSt3__212__deque_baseI10InputEventNS_9allocatorIS1_EEE5clearEv
2169:__ZN10InputEventD2Ev
2170:__ZN24StaticInitializeInternal13ConstructTypeI15GUIEventManagerLb0EEEPvS2_10MemLabelId
2171:__ZN24StaticInitializeInternal13ConstructTypeI22VirtualJoystickManagerLb0EEEPvS2_10MemLabelId
2172:__ZN9Scripting5Unity11CollectionsL50__ManagedRegistrationHelperFunction_AllocatorProxyEPv
2173:__ZN9Scripting5Unity11CollectionsL75__ManagedRegistrationHelperFunction_DeallocateOnJobCompletionAttributeProxyEPv
2174:__ZN9Scripting5Unity11Collections8LowLevel6UnsafeL65__ManagedRegistrationHelperFunction_NativeContainerAttributeProxyEPv
2175:__ZN9Scripting5Unity11Collections8LowLevel6UnsafeL82__ManagedRegistrationHelperFunction_NativeContainerIsAtomicWriteOnlyAttributeProxyEPv
2176:__ZN9Scripting5Unity11Collections8LowLevel6UnsafeL75__ManagedRegistrationHelperFunction_NativeContainerIsReadOnlyAttributeProxyEPv
2177:__ZN9Scripting5Unity11Collections8LowLevel6UnsafeL81__ManagedRegistrationHelperFunction_NativeContainerNeedsThreadIndexAttributeProxyEPv
2178:__ZN9Scripting5Unity11Collections8LowLevel6UnsafeL98__ManagedRegistrationHelperFunction_NativeContainerSupportsDeallocateOnJobCompletionAttributeProxyEPv
2179:__ZN9Scripting5Unity11Collections8LowLevel6UnsafeL90__ManagedRegistrationHelperFunction_NativeContainerSupportsDeferredConvertListToArrayProxyEPv
2180:__ZN9Scripting5Unity11Collections8LowLevel6UnsafeL95__ManagedRegistrationHelperFunction_NativeContainerSupportsMinMaxWriteRestrictionAttributeProxyEPv
2181:__ZN9Scripting5Unity11Collections8LowLevel6UnsafeL89__ManagedRegistrationHelperFunction_NativeDisableContainerSafetyRestrictionAttributeProxyEPv
2182:__ZN9Scripting5Unity11Collections8LowLevel6UnsafeL83__ManagedRegistrationHelperFunction_NativeDisableUnsafePtrRestrictionAttributeProxyEPv
2183:__ZN9Scripting5Unity11Collections8LowLevel6UnsafeL84__ManagedRegistrationHelperFunction_NativeSetClassTypeToNullOnScheduleAttributeProxyEPv
2184:__ZN9Scripting5Unity11Collections8LowLevel6UnsafeL70__ManagedRegistrationHelperFunction_NativeSetThreadIndexAttributeProxyEPv
2185:__ZN9Scripting5Unity11CollectionsL85__ManagedRegistrationHelperFunction_NativeDisableParallelForRestrictionAttributeProxyEPv
2186:__ZN9Scripting5Unity11CollectionsL67__ManagedRegistrationHelperFunction_NativeFixedLengthAttributeProxyEPv
2187:__ZN9Scripting5Unity11CollectionsL80__ManagedRegistrationHelperFunction_NativeMatchesParallelForLengthAttributeProxyEPv
2188:__ZN9Scripting5Unity11CollectionsL58__ManagedRegistrationHelperFunction_ReadOnlyAttributeProxyEPv
2189:__ZN9Scripting5Unity11CollectionsL59__ManagedRegistrationHelperFunction_WriteOnlyAttributeProxyEPv
2190:__ZN9Scripting5Unity9ProfilingL55__ManagedRegistrationHelperFunction_ProfilerMarkerProxyEPv
2191:__ZN9Scripting5Unity9Profiling14ProfilerMarkerL50__ManagedRegistrationHelperFunction_AutoScopeProxyEPv
2192:__ZN9Scripting11UnityEngine7AndroidL51__ManagedRegistrationHelperFunction_PermissionProxyEPv
2193:__ZN9Scripting11UnityEngineL55__ManagedRegistrationHelperFunction_AnimationCurveProxyEPv
2194:__ZN9Scripting11UnityEngineL52__ManagedRegistrationHelperFunction_ApplicationProxyEPv
2195:__ZN9Scripting11UnityEngineL65__ManagedRegistrationHelperFunction_AssemblyIsEditorAssemblyProxyEPv
2196:__ZN9Scripting11UnityEngineL57__ManagedRegistrationHelperFunction_YieldInstructionProxyEPv
2197:__ZN9Scripting11UnityEngineL55__ManagedRegistrationHelperFunction_AsyncOperationProxyEPv
2198:__ZN9Scripting11UnityEngineL62__ManagedRegistrationHelperFunction_AttributeHelperEngineProxyEPv
2199:__ZN9Scripting11UnityEngineL47__ManagedRegistrationHelperFunction_ObjectProxyEPv
2200:__ZN9Scripting11UnityEngineL50__ManagedRegistrationHelperFunction_ComponentProxyEPv
2201:__ZN9Scripting11UnityEngineL50__ManagedRegistrationHelperFunction_BehaviourProxyEPv
2202:__ZN9Scripting11UnityEngineL51__ManagedRegistrationHelperFunction_BoneWeightProxyEPv
2203:__ZN9Scripting11UnityEngineL55__ManagedRegistrationHelperFunction_BootConfigDataProxyEPv
2204:__ZN9Scripting11UnityEngineL48__ManagedRegistrationHelperFunction_Vector3ProxyEPv
2205:__ZN9Scripting11UnityEngineL47__ManagedRegistrationHelperFunction_BoundsProxyEPv
2206:__ZN9Scripting11UnityEngineL50__ManagedRegistrationHelperFunction_BoundsIntProxyEPv
2207:__ZN9Scripting11UnityEngineL58__ManagedRegistrationHelperFunction_CachedAssetBundleProxyEPv
2208:__ZN9Scripting11UnityEngineL51__ManagedRegistrationHelperFunction_CacheIndexProxyEPv
2209:__ZN9Scripting11UnityEngineL47__ManagedRegistrationHelperFunction_CameraProxyEPv
2210:__ZN9Scripting11UnityEngineL64__ManagedRegistrationHelperFunction_ClassLibraryInitializerProxyEPv
2211:__ZN9Scripting11UnityEngineL46__ManagedRegistrationHelperFunction_ColorProxyEPv
2212:__ZN9Scripting11UnityEngineL48__ManagedRegistrationHelperFunction_Color32ProxyEPv
2213:__ZN9Scripting11UnityEngineL51__ManagedRegistrationHelperFunction_ColorGamutProxyEPv
2214:__ZN9Scripting11UnityEngineL54__ManagedRegistrationHelperFunction_ComputeBufferProxyEPv
2215:__ZN9Scripting11UnityEngineL54__ManagedRegistrationHelperFunction_ComputeShaderProxyEPv
2216:__ZN9Scripting11UnityEngineL52__ManagedRegistrationHelperFunction_ContextMenuProxyEPv
2217:__ZN9Scripting11UnityEngineL50__ManagedRegistrationHelperFunction_CoroutineProxyEPv
2218:__ZN9Scripting11UnityEngineL48__ManagedRegistrationHelperFunction_TextureProxyEPv
2219:__ZN9Scripting11UnityEngineL48__ManagedRegistrationHelperFunction_CubemapProxyEPv
2220:__ZN9Scripting11UnityEngineL53__ManagedRegistrationHelperFunction_CubemapArrayProxyEPv
2221:__ZN9Scripting11UnityEngineL53__ManagedRegistrationHelperFunction_CullingGroupProxyEPv
2222:__ZN9Scripting11UnityEngineL54__ManagedRegistrationHelperFunction_RenderTextureProxyEPv
2223:__ZN9Scripting11UnityEngineL60__ManagedRegistrationHelperFunction_CustomRenderTextureProxyEPv
2224:__ZN9Scripting11UnityEngineL70__ManagedRegistrationHelperFunction_CustomRenderTextureUpdateZoneProxyEPv
2225:__ZN9Scripting11UnityEngineL62__ManagedRegistrationHelperFunction_DefaultExecutionOrderProxyEPv
2226:__ZN9Scripting11UnityEngineL57__ManagedRegistrationHelperFunction_DiagnosticSwitchProxyEPv
2227:__ZN9Scripting11UnityEngineL48__ManagedRegistrationHelperFunction_DisplayProxyEPv
2228:__ZN9Scripting11UnityEngineL49__ManagedRegistrationHelperFunction_EnumInfoProxyEPv
2229:__ZN9Scripting11UnityEngine6EventsL55__ManagedRegistrationHelperFunction_UnityEventBaseProxyEPv
2230:__ZN9Scripting11UnityEngine6EventsL51__ManagedRegistrationHelperFunction_UnityEventProxyEPv
2231:__ZN9Scripting11UnityEngine6EventsL53__ManagedRegistrationHelperFunction_UnityEvent_1ProxyEPv
2232:__ZN9Scripting11UnityEngine6EventsL53__ManagedRegistrationHelperFunction_UnityEvent_2ProxyEPv
2233:__ZN9Scripting11UnityEngine6EventsL53__ManagedRegistrationHelperFunction_UnityEvent_3ProxyEPv
2234:__ZN9Scripting11UnityEngine6EventsL53__ManagedRegistrationHelperFunction_UnityEvent_4ProxyEPv
2235:__ZN9Scripting11UnityEngineL74__ManagedRegistrationHelperFunction_ExcludeFromObjectFactoryAttributeProxyEPv
2236:__ZN9Scripting11UnityEngineL67__ManagedRegistrationHelperFunction_ExcludeFromPresetAttributeProxyEPv
2237:__ZN9Scripting11UnityEngineL54__ManagedRegistrationHelperFunction_ExecuteAlwaysProxyEPv
2238:__ZN9Scripting11UnityEngineL58__ManagedRegistrationHelperFunction_ExecuteInEditModeProxyEPv
2239:__ZN9Scripting11UnityEngine12Experimental18GlobalIlluminationL52__ManagedRegistrationHelperFunction_LightDataGIProxyEPv
2240:__ZN9Scripting11UnityEngine12Experimental18GlobalIlluminationL53__ManagedRegistrationHelperFunction_LightmappingProxyEPv
2241:__ZN9Scripting11UnityEngine12Experimental8LowLevelL65__ManagedRegistrationHelperFunction_PlayerLoopSystemInternalProxyEPv
2242:__ZN9Scripting11UnityEngine12Experimental9PlayablesL55__ManagedRegistrationHelperFunction_CameraPlayableProxyEPv
2243:__ZN9Scripting11UnityEngine12Experimental9PlayablesL63__ManagedRegistrationHelperFunction_MaterialEffectPlayableProxyEPv
2244:__ZN9Scripting11UnityEngine12Experimental9PlayablesL61__ManagedRegistrationHelperFunction_TextureMixerPlayableProxyEPv
2245:__ZN9Scripting11UnityEngine12Experimental9PlayablesL62__ManagedRegistrationHelperFunction_TexturePlayableOutputProxyEPv
2246:__ZN9Scripting11UnityEngine12Experimental10PlayerLoopL52__ManagedRegistrationHelperFunction_EarlyUpdateProxyEPv
2247:__ZN9Scripting11UnityEngine12Experimental10PlayerLoop11EarlyUpdateL65__ManagedRegistrationHelperFunction_AnalyticsCoreStatsUpdateProxyEPv
2248:__ZN9Scripting11UnityEngine12Experimental10PlayerLoop11EarlyUpdateL67__ManagedRegistrationHelperFunction_ClearIntermediateRenderersProxyEPv
2249:__ZN9Scripting11UnityEngine12Experimental10PlayerLoop11EarlyUpdateL51__ManagedRegistrationHelperFunction_ClearLinesProxyEPv
2250:__ZN9Scripting11UnityEngine12Experimental10PlayerLoop11EarlyUpdateL65__ManagedRegistrationHelperFunction_DeliverIosPlatformEventsProxyEPv
2251:__ZN9Scripting11UnityEngine12Experimental10PlayerLoop11EarlyUpdateL59__ManagedRegistrationHelperFunction_DirectorSampleTimeProxyEPv
2252:__ZN9Scripting11UnityEngine12Experimental10PlayerLoop11EarlyUpdateL65__ManagedRegistrationHelperFunction_DispatchEventQueueEventsProxyEPv
2253:__ZN9Scripting11UnityEngine12Experimental10PlayerLoop11EarlyUpdateL62__ManagedRegistrationHelperFunction_ExecuteMainThreadJobsProxyEPv
2254:__ZN9Scripting11UnityEngine12Experimental10PlayerLoop11EarlyUpdateL53__ManagedRegistrationHelperFunction_GpuTimestampProxyEPv
2255:__ZN9Scripting11UnityEngine12Experimental10PlayerLoop11EarlyUpdateL67__ManagedRegistrationHelperFunction_PerformanceAnalyticsUpdateProxyEPv
2256:__ZN9Scripting11UnityEngine12Experimental10PlayerLoop11EarlyUpdateL82__ManagedRegistrationHelperFunction_PhysicsResetInterpolatedTransformPositionProxyEPv
2257:__ZN9Scripting11UnityEngine12Experimental10PlayerLoop11EarlyUpdateL64__ManagedRegistrationHelperFunction_PlayerCleanupCachedDataProxyEPv
2258:__ZN9Scripting11UnityEngine12Experimental10PlayerLoop11EarlyUpdateL65__ManagedRegistrationHelperFunction_PollHtcsPlayerConnectionProxyEPv
2259:__ZN9Scripting11UnityEngine12Experimental10PlayerLoop11EarlyUpdateL61__ManagedRegistrationHelperFunction_PollPlayerConnectionProxyEPv
2260:__ZN9Scripting11UnityEngine12Experimental10PlayerLoop11EarlyUpdateL60__ManagedRegistrationHelperFunction_PresentBeforeUpdateProxyEPv
2261:__ZN9Scripting11UnityEngine12Experimental10PlayerLoop11EarlyUpdateL61__ManagedRegistrationHelperFunction_ProcessMouseInWindowProxyEPv
2262:__ZN9Scripting11UnityEngine12Experimental10PlayerLoop11EarlyUpdateL59__ManagedRegistrationHelperFunction_ProcessRemoteInputProxyEPv
2263:__ZN9Scripting11UnityEngine12Experimental10PlayerLoop11EarlyUpdateL59__ManagedRegistrationHelperFunction_ProfilerStartFrameProxyEPv
2264:__ZN9Scripting11UnityEngine12Experimental10PlayerLoop11EarlyUpdateL64__ManagedRegistrationHelperFunction_RendererNotifyInvisibleProxyEPv
2265:__ZN9Scripting11UnityEngine12Experimental10PlayerLoop11EarlyUpdateL68__ManagedRegistrationHelperFunction_ResetFrameStatsAfterPresentProxyEPv
2266:__ZN9Scripting11UnityEngine12Experimental10PlayerLoop11EarlyUpdateL69__ManagedRegistrationHelperFunction_ScriptRunDelayedStartupFrameProxyEPv
2267:__ZN9Scripting11UnityEngine12Experimental10PlayerLoop11EarlyUpdateL65__ManagedRegistrationHelperFunction_SpriteAtlasManagerUpdateProxyEPv
2268:__ZN9Scripting11UnityEngine12Experimental10PlayerLoop11EarlyUpdateL52__ManagedRegistrationHelperFunction_TangoUpdateProxyEPv
2269:__ZN9Scripting11UnityEngine12Experimental10PlayerLoop11EarlyUpdateL62__ManagedRegistrationHelperFunction_UnityWebRequestUpdateProxyEPv
2270:__ZN9Scripting11UnityEngine12Experimental10PlayerLoop11EarlyUpdateL65__ManagedRegistrationHelperFunction_UpdateAllUnityWebStreamsProxyEPv
2271:__ZN9Scripting11UnityEngine12Experimental10PlayerLoop11EarlyUpdateL67__ManagedRegistrationHelperFunction_UpdateAsyncReadbackManagerProxyEPv
2272:__ZN9Scripting11UnityEngine12Experimental10PlayerLoop11EarlyUpdateL66__ManagedRegistrationHelperFunction_UpdateCanvasRectTransformProxyEPv
2273:__ZN9Scripting11UnityEngine12Experimental10PlayerLoop11EarlyUpdateL59__ManagedRegistrationHelperFunction_UpdateInputManagerProxyEPv
2274:__ZN9Scripting11UnityEngine12Experimental10PlayerLoop11EarlyUpdateL53__ManagedRegistrationHelperFunction_UpdateKinectProxyEPv
2275:__ZN9Scripting11UnityEngine12Experimental10PlayerLoop11EarlyUpdateL63__ManagedRegistrationHelperFunction_UpdateMainGameViewRectProxyEPv
2276:__ZN9Scripting11UnityEngine12Experimental10PlayerLoop11EarlyUpdateL57__ManagedRegistrationHelperFunction_UpdatePreloadingProxyEPv
2277:__ZN9Scripting11UnityEngine12Experimental10PlayerLoop11EarlyUpdateL63__ManagedRegistrationHelperFunction_UpdateStreamingManagerProxyEPv
2278:__ZN9Scripting11UnityEngine12Experimental10PlayerLoop11EarlyUpdateL70__ManagedRegistrationHelperFunction_UpdateTextureStreamingManagerProxyEPv
2279:__ZN9Scripting11UnityEngine12Experimental10PlayerLoop11EarlyUpdateL49__ManagedRegistrationHelperFunction_XRUpdateProxyEPv
2280:__ZN9Scripting11UnityEngine12Experimental10PlayerLoopL52__ManagedRegistrationHelperFunction_FixedUpdateProxyEPv
2281:__ZN9Scripting11UnityEngine12Experimental10PlayerLoop11FixedUpdateL57__ManagedRegistrationHelperFunction_AudioFixedUpdateProxyEPv
2282:__ZN9Scripting11UnityEngine12Experimental10PlayerLoop11FixedUpdateL51__ManagedRegistrationHelperFunction_ClearLinesProxyEPv
2283:__ZN9Scripting11UnityEngine12Experimental10PlayerLoop11FixedUpdateL64__ManagedRegistrationHelperFunction_DirectorFixedSampleTimeProxyEPv
2284:__ZN9Scripting11UnityEngine12Experimental10PlayerLoop11FixedUpdateL60__ManagedRegistrationHelperFunction_DirectorFixedUpdateProxyEPv
2285:__ZN9Scripting11UnityEngine12Experimental10PlayerLoop11FixedUpdateL71__ManagedRegistrationHelperFunction_DirectorFixedUpdatePostPhysicsProxyEPv
2286:__ZN9Scripting11UnityEngine12Experimental10PlayerLoop11FixedUpdateL67__ManagedRegistrationHelperFunction_LegacyFixedAnimationUpdateProxyEPv
2287:__ZN9Scripting11UnityEngine12Experimental10PlayerLoop11FixedUpdateL60__ManagedRegistrationHelperFunction_NewInputFixedUpdateProxyEPv
2288:__ZN9Scripting11UnityEngine12Experimental10PlayerLoop11FixedUpdateL61__ManagedRegistrationHelperFunction_Physics2DFixedUpdateProxyEPv
2289:__ZN9Scripting11UnityEngine12Experimental10PlayerLoop11FixedUpdateL59__ManagedRegistrationHelperFunction_PhysicsFixedUpdateProxyEPv
2290:__ZN9Scripting11UnityEngine12Experimental10PlayerLoop11FixedUpdateL70__ManagedRegistrationHelperFunction_ScriptRunBehaviourFixedUpdateProxyEPv
2291:__ZN9Scripting11UnityEngine12Experimental10PlayerLoop11FixedUpdateL71__ManagedRegistrationHelperFunction_ScriptRunDelayedFixedFrameRateProxyEPv
2292:__ZN9Scripting11UnityEngine12Experimental10PlayerLoop11FixedUpdateL54__ManagedRegistrationHelperFunction_XRFixedUpdateProxyEPv
2293:__ZN9Scripting11UnityEngine12Experimental10PlayerLoopL55__ManagedRegistrationHelperFunction_InitializationProxyEPv
2294:__ZN9Scripting11UnityEngine12Experimental10PlayerLoop14InitializationL68__ManagedRegistrationHelperFunction_AsyncUploadTimeSlicedUpdateProxyEPv
2295:__ZN9Scripting11UnityEngine12Experimental10PlayerLoop14InitializationL57__ManagedRegistrationHelperFunction_PlayerUpdateTimeProxyEPv
2296:__ZN9Scripting11UnityEngine12Experimental10PlayerLoop14InitializationL58__ManagedRegistrationHelperFunction_SynchronizeInputsProxyEPv
2297:__ZN9Scripting11UnityEngine12Experimental10PlayerLoop14InitializationL57__ManagedRegistrationHelperFunction_SynchronizeStateProxyEPv
2298:__ZN9Scripting11UnityEngine12Experimental10PlayerLoop14InitializationL54__ManagedRegistrationHelperFunction_XREarlyUpdateProxyEPv
2299:__ZN9Scripting11UnityEngine12Experimental10PlayerLoopL55__ManagedRegistrationHelperFunction_PostLateUpdateProxyEPv
2300:__ZN9Scripting11UnityEngine12Experimental10PlayerLoop14PostLateUpdateL56__ManagedRegistrationHelperFunction_BatchModeUpdateProxyEPv
2301:__ZN9Scripting11UnityEngine12Experimental10PlayerLoop14PostLateUpdateL64__ManagedRegistrationHelperFunction_ClearImmediateRenderersProxyEPv
2302:__ZN9Scripting11UnityEngine12Experimental10PlayerLoop14PostLateUpdateL59__ManagedRegistrationHelperFunction_DirectorLateUpdateProxyEPv
2303:__ZN9Scripting11UnityEngine12Experimental10PlayerLoop14PostLateUpdateL60__ManagedRegistrationHelperFunction_DirectorRenderImageProxyEPv
2304:__ZN9Scripting11UnityEngine12Experimental10PlayerLoop14PostLateUpdateL77__ManagedRegistrationHelperFunction_EndGraphicsJobsAfterScriptLateUpdateProxyEPv
2305:__ZN9Scripting11UnityEngine12Experimental10PlayerLoop14PostLateUpdateL63__ManagedRegistrationHelperFunction_EnlightenRuntimeUpdateProxyEPv
2306:__ZN9Scripting11UnityEngine12Experimental10PlayerLoop14PostLateUpdateL67__ManagedRegistrationHelperFunction_ExecuteGameCenterCallbacksProxyEPv
2307:__ZN9Scripting11UnityEngine12Experimental10PlayerLoop14PostLateUpdateL61__ManagedRegistrationHelperFunction_FinishFrameRenderingProxyEPv
2308:__ZN9Scripting11UnityEngine12Experimental10PlayerLoop14PostLateUpdateL55__ManagedRegistrationHelperFunction_GUIClearEventsProxyEPv
2309:__ZN9Scripting11UnityEngine12Experimental10PlayerLoop14PostLateUpdateL54__ManagedRegistrationHelperFunction_InputEndFrameProxyEPv
2310:__ZN9Scripting11UnityEngine12Experimental10PlayerLoop14PostLateUpdateL63__ManagedRegistrationHelperFunction_MemoryFrameMaintenanceProxyEPv
2311:__ZN9Scripting11UnityEngine12Experimental10PlayerLoop14PostLateUpdateL67__ManagedRegistrationHelperFunction_ParticleSystemEndUpdateAllProxyEPv
2312:__ZN9Scripting11UnityEngine12Experimental10PlayerLoop14PostLateUpdateL71__ManagedRegistrationHelperFunction_PhysicsSkinnedClothBeginUpdateProxyEPv
2313:__ZN9Scripting11UnityEngine12Experimental10PlayerLoop14PostLateUpdateL72__ManagedRegistrationHelperFunction_PhysicsSkinnedClothFinishUpdateProxyEPv
2314:__ZN9Scripting11UnityEngine12Experimental10PlayerLoop14PostLateUpdateL65__ManagedRegistrationHelperFunction_PlayerEmitCanvasGeometryProxyEPv
2315:__ZN9Scripting11UnityEngine12Experimental10PlayerLoop14PostLateUpdateL64__ManagedRegistrationHelperFunction_PlayerSendFrameCompleteProxyEPv
2316:__ZN9Scripting11UnityEngine12Experimental10PlayerLoop14PostLateUpdateL67__ManagedRegistrationHelperFunction_PlayerSendFramePostPresentProxyEPv
2317:__ZN9Scripting11UnityEngine12Experimental10PlayerLoop14PostLateUpdateL63__ManagedRegistrationHelperFunction_PlayerSendFrameStartedProxyEPv
2318:__ZN9Scripting11UnityEngine12Experimental10PlayerLoop14PostLateUpdateL61__ManagedRegistrationHelperFunction_PlayerUpdateCanvasesProxyEPv
2319:__ZN9Scripting11UnityEngine12Experimental10PlayerLoop14PostLateUpdateL57__ManagedRegistrationHelperFunction_PresentAfterDrawProxyEPv
2320:__ZN9Scripting11UnityEngine12Experimental10PlayerLoop14PostLateUpdateL63__ManagedRegistrationHelperFunction_ProcessWebSendMessagesProxyEPv
2321:__ZN9Scripting11UnityEngine12Experimental10PlayerLoop14PostLateUpdateL57__ManagedRegistrationHelperFunction_ProfilerEndFrameProxyEPv
2322:__ZN9Scripting11UnityEngine12Experimental10PlayerLoop14PostLateUpdateL65__ManagedRegistrationHelperFunction_ProfilerSynchronizeStatsProxyEPv
2323:__ZN9Scripting11UnityEngine12Experimental10PlayerLoop14PostLateUpdateL55__ManagedRegistrationHelperFunction_ResetInputAxisProxyEPv
2324:__ZN9Scripting11UnityEngine12Experimental10PlayerLoop14PostLateUpdateL73__ManagedRegistrationHelperFunction_ScriptRunDelayedDynamicFrameRateProxyEPv
2325:__ZN9Scripting11UnityEngine12Experimental10PlayerLoop14PostLateUpdateL59__ManagedRegistrationHelperFunction_ShaderHandleErrorsProxyEPv
2326:__ZN9Scripting11UnityEngine12Experimental10PlayerLoop14PostLateUpdateL60__ManagedRegistrationHelperFunction_SortingGroupsUpdateProxyEPv
2327:__ZN9Scripting11UnityEngine12Experimental10PlayerLoop14PostLateUpdateL61__ManagedRegistrationHelperFunction_ThreadedLoadingDebugProxyEPv
2328:__ZN9Scripting11UnityEngine12Experimental10PlayerLoop14PostLateUpdateL67__ManagedRegistrationHelperFunction_TriggerEndOfFrameCallbacksProxyEPv
2329:__ZN9Scripting11UnityEngine12Experimental10PlayerLoop14PostLateUpdateL59__ManagedRegistrationHelperFunction_UpdateAllRenderersProxyEPv
2330:__ZN9Scripting11UnityEngine12Experimental10PlayerLoop14PostLateUpdateL63__ManagedRegistrationHelperFunction_UpdateAllSkinnedMeshesProxyEPv
2331:__ZN9Scripting11UnityEngine12Experimental10PlayerLoop14PostLateUpdateL52__ManagedRegistrationHelperFunction_UpdateAudioProxyEPv
2332:__ZN9Scripting11UnityEngine12Experimental10PlayerLoop14PostLateUpdateL66__ManagedRegistrationHelperFunction_UpdateCanvasRectTransformProxyEPv
2333:__ZN9Scripting11UnityEngine12Experimental10PlayerLoop14PostLateUpdateL64__ManagedRegistrationHelperFunction_UpdateCaptureScreenshotProxyEPv
2334:__ZN9Scripting11UnityEngine12Experimental10PlayerLoop14PostLateUpdateL67__ManagedRegistrationHelperFunction_UpdateCustomRenderTexturesProxyEPv
2335:__ZN9Scripting11UnityEngine12Experimental10PlayerLoop14PostLateUpdateL60__ManagedRegistrationHelperFunction_UpdateRectTransformProxyEPv
2336:__ZN9Scripting11UnityEngine12Experimental10PlayerLoop14PostLateUpdateL57__ManagedRegistrationHelperFunction_UpdateResolutionProxyEPv
2337:__ZN9Scripting11UnityEngine12Experimental10PlayerLoop14PostLateUpdateL56__ManagedRegistrationHelperFunction_UpdateSubstanceProxyEPv
2338:__ZN9Scripting11UnityEngine12Experimental10PlayerLoop14PostLateUpdateL52__ManagedRegistrationHelperFunction_UpdateVideoProxyEPv
2339:__ZN9Scripting11UnityEngine12Experimental10PlayerLoop14PostLateUpdateL60__ManagedRegistrationHelperFunction_UpdateVideoTexturesProxyEPv
2340:__ZN9Scripting11UnityEngine12Experimental10PlayerLoop14PostLateUpdateL50__ManagedRegistrationHelperFunction_VFXUpdateProxyEPv
2341:__ZN9Scripting11UnityEngine12Experimental10PlayerLoop14PostLateUpdateL54__ManagedRegistrationHelperFunction_XRPostPresentProxyEPv
2342:__ZN9Scripting11UnityEngine12Experimental10PlayerLoopL54__ManagedRegistrationHelperFunction_PreLateUpdateProxyEPv
2343:__ZN9Scripting11UnityEngine12Experimental10PlayerLoop13PreLateUpdateL59__ManagedRegistrationHelperFunction_AIUpdatePostScriptProxyEPv
2344:__ZN9Scripting11UnityEngine12Experimental10PlayerLoop13PreLateUpdateL64__ManagedRegistrationHelperFunction_ConstraintManagerUpdateProxyEPv
2345:__ZN9Scripting11UnityEngine12Experimental10PlayerLoop13PreLateUpdateL65__ManagedRegistrationHelperFunction_DirectorDeferredEvaluateProxyEPv
2346:__ZN9Scripting11UnityEngine12Experimental10PlayerLoop13PreLateUpdateL69__ManagedRegistrationHelperFunction_DirectorUpdateAnimationBeginProxyEPv
2347:__ZN9Scripting11UnityEngine12Experimental10PlayerLoop13PreLateUpdateL67__ManagedRegistrationHelperFunction_DirectorUpdateAnimationEndProxyEPv
2348:__ZN9Scripting11UnityEngine12Experimental10PlayerLoop13PreLateUpdateL73__ManagedRegistrationHelperFunction_EndGraphicsJobsAfterScriptUpdateProxyEPv
2349:__ZN9Scripting11UnityEngine12Experimental10PlayerLoop13PreLateUpdateL62__ManagedRegistrationHelperFunction_LegacyAnimationUpdateProxyEPv
2350:__ZN9Scripting11UnityEngine12Experimental10PlayerLoop13PreLateUpdateL69__ManagedRegistrationHelperFunction_ParticleSystemBeginUpdateAllProxyEPv
2351:__ZN9Scripting11UnityEngine12Experimental10PlayerLoop13PreLateUpdateL69__ManagedRegistrationHelperFunction_ScriptRunBehaviourLateUpdateProxyEPv
2352:__ZN9Scripting11UnityEngine12Experimental10PlayerLoop13PreLateUpdateL51__ManagedRegistrationHelperFunction_UNetUpdateProxyEPv
2353:__ZN9Scripting11UnityEngine12Experimental10PlayerLoop13PreLateUpdateL68__ManagedRegistrationHelperFunction_UpdateMasterServerInterfaceProxyEPv
2354:__ZN9Scripting11UnityEngine12Experimental10PlayerLoop13PreLateUpdateL61__ManagedRegistrationHelperFunction_UpdateNetworkManagerProxyEPv
2355:__ZN9Scripting11UnityEngine12Experimental10PlayerLoopL50__ManagedRegistrationHelperFunction_PreUpdateProxyEPv
2356:__ZN9Scripting11UnityEngine12Experimental10PlayerLoop9PreUpdateL49__ManagedRegistrationHelperFunction_AIUpdateProxyEPv
2357:__ZN9Scripting11UnityEngine12Experimental10PlayerLoop9PreUpdateL59__ManagedRegistrationHelperFunction_CheckTexFieldInputProxyEPv
2358:__ZN9Scripting11UnityEngine12Experimental10PlayerLoop9PreUpdateL62__ManagedRegistrationHelperFunction_IMGUISendQueuedEventsProxyEPv
2359:__ZN9Scripting11UnityEngine12Experimental10PlayerLoop9PreUpdateL55__ManagedRegistrationHelperFunction_NewInputUpdateProxyEPv
2360:__ZN9Scripting11UnityEngine12Experimental10PlayerLoop9PreUpdateL56__ManagedRegistrationHelperFunction_Physics2DUpdateProxyEPv
2361:__ZN9Scripting11UnityEngine12Experimental10PlayerLoop9PreUpdateL54__ManagedRegistrationHelperFunction_PhysicsUpdateProxyEPv
2362:__ZN9Scripting11UnityEngine12Experimental10PlayerLoop9PreUpdateL56__ManagedRegistrationHelperFunction_SendMouseEventsProxyEPv
2363:__ZN9Scripting11UnityEngine12Experimental10PlayerLoop9PreUpdateL52__ManagedRegistrationHelperFunction_UpdateVideoProxyEPv
2364:__ZN9Scripting11UnityEngine12Experimental10PlayerLoop9PreUpdateL51__ManagedRegistrationHelperFunction_WindUpdateProxyEPv
2365:__ZN9Scripting11UnityEngine12Experimental10PlayerLoopL47__ManagedRegistrationHelperFunction_UpdateProxyEPv
2366:__ZN9Scripting11UnityEngine12Experimental10PlayerLoop6UpdateL55__ManagedRegistrationHelperFunction_DirectorUpdateProxyEPv
2367:__ZN9Scripting11UnityEngine12Experimental10PlayerLoop6UpdateL65__ManagedRegistrationHelperFunction_ScriptRunBehaviourUpdateProxyEPv
2368:__ZN9Scripting11UnityEngine12Experimental10PlayerLoop6UpdateL73__ManagedRegistrationHelperFunction_ScriptRunDelayedDynamicFrameRateProxyEPv
2369:__ZN9Scripting11UnityEngine12Experimental10PlayerLoop6UpdateL62__ManagedRegistrationHelperFunction_ScriptRunDelayedTasksProxyEPv
2370:__ZN9Scripting11UnityEngine12Experimental9RenderingL71__ManagedRegistrationHelperFunction_BuiltinRuntimeReflectionSystemProxyEPv
2371:__ZN9Scripting11UnityEngine12Experimental9RenderingL57__ManagedRegistrationHelperFunction_CameraPropertiesProxyEPv
2372:__ZN9Scripting11UnityEngine12Experimental9RenderingL57__ManagedRegistrationHelperFunction_CoreCameraValuesProxyEPv
2373:__ZN9Scripting11UnityEngine12Experimental9RenderingL52__ManagedRegistrationHelperFunction_CullResultsProxyEPv
2374:__ZN9Scripting11UnityEngine12Experimental9RenderingL60__ManagedRegistrationHelperFunction_DrawShadowsSettingsProxyEPv
2375:__ZN9Scripting11UnityEngine12Experimental9RenderingL62__ManagedRegistrationHelperFunction_RenderPipelineManagerProxyEPv
2376:__ZN9Scripting11UnityEngine12Experimental9RenderingL68__ManagedRegistrationHelperFunction_ScriptableCullingParametersProxyEPv
2377:__ZN9Scripting11UnityEngine12Experimental9RenderingL82__ManagedRegistrationHelperFunction_ScriptableRuntimeReflectionSystemSettingsProxyEPv
2378:__ZN9Scripting11UnityEngine12Experimental9RenderingL81__ManagedRegistrationHelperFunction_ScriptableRuntimeReflectionSystemWrapperProxyEPv
2379:__ZN9Scripting11UnityEngine12Experimental9RenderingL56__ManagedRegistrationHelperFunction_ShadowSplitDataProxyEPv
2380:__ZN9Scripting11UnityEngine12Experimental9RenderingL67__ManagedRegistrationHelperFunction_SupportedRenderingFeaturesProxyEPv
2381:__ZN9Scripting11UnityEngine12Experimental9RenderingL53__ManagedRegistrationHelperFunction_VisibleLightProxyEPv
2382:__ZN9Scripting11UnityEngine12Experimental9RenderingL63__ManagedRegistrationHelperFunction_VisibleReflectionProbeProxyEPv
2383:__ZN9Scripting11UnityEngine12Experimental3U2DL51__ManagedRegistrationHelperFunction_SpriteBoneProxyEPv
2384:__ZN9Scripting11UnityEngineL59__ManagedRegistrationHelperFunction_ExposedReference_1ProxyEPv
2385:__ZN9Scripting11UnityEngineL72__ManagedRegistrationHelperFunction_ExtensionOfNativeClassAttributeProxyEPv
2386:__ZN9Scripting11UnityEngineL65__ManagedRegistrationHelperFunction_FailedToLoadScriptObjectProxyEPv
2387:__ZN9Scripting11UnityEngineL51__ManagedRegistrationHelperFunction_GameObjectProxyEPv
2388:__ZN9Scripting11UnityEngineL49__ManagedRegistrationHelperFunction_GradientProxyEPv
2389:__ZN9Scripting11UnityEngineL57__ManagedRegistrationHelperFunction_GradientAlphaKeyProxyEPv
2390:__ZN9Scripting11UnityEngineL57__ManagedRegistrationHelperFunction_GradientColorKeyProxyEPv
2391:__ZN9Scripting11UnityEngineL48__ManagedRegistrationHelperFunction_Hash128ProxyEPv
2392:__ZN9Scripting11UnityEngineL57__ManagedRegistrationHelperFunction_HelpURLAttributeProxyEPv
2393:__ZN9Scripting11UnityEngineL56__ManagedRegistrationHelperFunction_HideInInspectorProxyEPv
2394:__ZN9Scripting11UnityEngineL62__ManagedRegistrationHelperFunction_ImageEffectAfterScaleProxyEPv
2395:__ZN9Scripting11UnityEngineL58__ManagedRegistrationHelperFunction_ImageEffectOpaqueProxyEPv
2396:__ZN9Scripting11UnityEngineL67__ManagedRegistrationHelperFunction_ImageEffectTransformsToLDRProxyEPv
2397:__ZN9Scripting11UnityEngineL49__ManagedRegistrationHelperFunction_KeyframeProxyEPv
2398:__ZN9Scripting11UnityEngineL50__ManagedRegistrationHelperFunction_LayerMaskProxyEPv
2399:__ZN9Scripting11UnityEngineL53__ManagedRegistrationHelperFunction_LightmapDataProxyEPv
2400:__ZN9Scripting11UnityEngineL44__ManagedRegistrationHelperFunction_LODProxyEPv
2401:__ZN9Scripting11UnityEngineL60__ManagedRegistrationHelperFunction_LowerResBlitTextureProxyEPv
2402:__ZN9Scripting11UnityEngineL61__ManagedRegistrationHelperFunction_ManagedStreamHelpersProxyEPv
2403:__ZN9Scripting11UnityEngineL49__ManagedRegistrationHelperFunction_MaterialProxyEPv
2404:__ZN9Scripting11UnityEngineL50__ManagedRegistrationHelperFunction_Matrix4x4ProxyEPv
2405:__ZN9Scripting11UnityEngineL45__ManagedRegistrationHelperFunction_MeshProxyEPv
2406:__ZN9Scripting11UnityEngineL51__ManagedRegistrationHelperFunction_MeshFilterProxyEPv
2407:__ZN9Scripting11UnityEngineL49__ManagedRegistrationHelperFunction_RendererProxyEPv
2408:__ZN9Scripting11UnityEngineL53__ManagedRegistrationHelperFunction_MeshRendererProxyEPv
2409:__ZN9Scripting11UnityEngineL54__ManagedRegistrationHelperFunction_MonoBehaviourProxyEPv
2410:__ZN9Scripting11UnityEngineL57__ManagedRegistrationHelperFunction_ScriptableObjectProxyEPv
2411:__ZN9Scripting11UnityEngine10Networking16PlayerConnectionL57__ManagedRegistrationHelperFunction_PlayerConnectionProxyEPv
2412:__ZN9Scripting11UnityEngineL46__ManagedRegistrationHelperFunction_PlaneProxyEPv
2413:__ZN9Scripting11UnityEngine9PlayablesL49__ManagedRegistrationHelperFunction_PlayableProxyEPv
2414:__ZN9Scripting11UnityEngine9PlayablesL54__ManagedRegistrationHelperFunction_PlayableAssetProxyEPv
2415:__ZN9Scripting11UnityEngine9PlayablesL58__ManagedRegistrationHelperFunction_PlayableBehaviourProxyEPv
2416:__ZN9Scripting11UnityEngine9PlayablesL54__ManagedRegistrationHelperFunction_PlayableGraphProxyEPv
2417:__ZN9Scripting11UnityEngine9PlayablesL55__ManagedRegistrationHelperFunction_PlayableHandleProxyEPv
2418:__ZN9Scripting11UnityEngine9PlayablesL55__ManagedRegistrationHelperFunction_PlayableOutputProxyEPv
2419:__ZN9Scripting11UnityEngine9PlayablesL61__ManagedRegistrationHelperFunction_PlayableOutputHandleProxyEPv
2420:__ZN9Scripting11UnityEngine9PlayablesL61__ManagedRegistrationHelperFunction_ScriptPlayableOutputProxyEPv
2421:__ZN9Scripting11UnityEngineL66__ManagedRegistrationHelperFunction_PreferBinarySerializationProxyEPv
2422:__ZN9Scripting11UnityEngineL52__ManagedRegistrationHelperFunction_PreloadDataProxyEPv
2423:__ZN9Scripting11UnityEngine9ProfilingL48__ManagedRegistrationHelperFunction_SamplerProxyEPv
2424:__ZN9Scripting11UnityEngine9ProfilingL54__ManagedRegistrationHelperFunction_CustomSamplerProxyEPv
2425:__ZN9Scripting11UnityEngine9Profiling6Memory12ExperimentalL55__ManagedRegistrationHelperFunction_MemoryProfilerProxyEPv
2426:__ZN9Scripting11UnityEngine9ProfilingL49__ManagedRegistrationHelperFunction_ProfilerProxyEPv
2427:__ZN9Scripting11UnityEngine9ProfilingL49__ManagedRegistrationHelperFunction_RecorderProxyEPv
2428:__ZN9Scripting11UnityEngineL53__ManagedRegistrationHelperFunction_PropertyNameProxyEPv
2429:__ZN9Scripting11UnityEngineL51__ManagedRegistrationHelperFunction_QuaternionProxyEPv
2430:__ZN9Scripting11UnityEngineL45__ManagedRegistrationHelperFunction_RectProxyEPv
2431:__ZN9Scripting11UnityEngineL48__ManagedRegistrationHelperFunction_RectIntProxyEPv
2432:__ZN9Scripting11UnityEngineL51__ManagedRegistrationHelperFunction_RectOffsetProxyEPv
2433:__ZN9Scripting11UnityEngineL50__ManagedRegistrationHelperFunction_TransformProxyEPv
2434:__ZN9Scripting11UnityEngineL54__ManagedRegistrationHelperFunction_RectTransformProxyEPv
2435:__ZN9Scripting11UnityEngineL56__ManagedRegistrationHelperFunction_ReflectionProbeProxyEPv
2436:__ZN9Scripting11UnityEngine9RenderingL64__ManagedRegistrationHelperFunction_AsyncGPUReadbackRequestProxyEPv
2437:__ZN9Scripting11UnityEngine9RenderingL54__ManagedRegistrationHelperFunction_CommandBufferProxyEPv
2438:__ZN9Scripting11UnityEngine9RenderingL49__ManagedRegistrationHelperFunction_GPUFenceProxyEPv
2439:__ZN9Scripting11UnityEngine9RenderingL59__ManagedRegistrationHelperFunction_GraphicsDeviceTypeProxyEPv
2440:__ZN9Scripting11UnityEngine9RenderingL59__ManagedRegistrationHelperFunction_PlatformKeywordSetProxyEPv
2441:__ZN9Scripting11UnityEngine9RenderingL65__ManagedRegistrationHelperFunction_ReflectionProbeBlendInfoProxyEPv
2442:__ZN9Scripting11UnityEngine9RenderingL54__ManagedRegistrationHelperFunction_ShaderKeywordProxyEPv
2443:__ZN9Scripting11UnityEngine9RenderingL57__ManagedRegistrationHelperFunction_ShaderKeywordSetProxyEPv
2444:__ZN9Scripting11UnityEngine9RenderingL58__ManagedRegistrationHelperFunction_ShaderKeywordTypeProxyEPv
2445:__ZN9Scripting11UnityEngine9RenderingL61__ManagedRegistrationHelperFunction_SphericalHarmonicsL2ProxyEPv
2446:__ZN9Scripting11UnityEngineL51__ManagedRegistrationHelperFunction_ResolutionProxyEPv
2447:__ZN9Scripting11UnityEngineL56__ManagedRegistrationHelperFunction_ResourceRequestProxyEPv
2448:__ZN9Scripting11UnityEngine15SceneManagementL53__ManagedRegistrationHelperFunction_SceneManagerProxyEPv
2449:__ZN9Scripting11UnityEngineL56__ManagedRegistrationHelperFunction_SendMouseEventsProxyEPv
2450:__ZN9Scripting11UnityEngine13SerializationL70__ManagedRegistrationHelperFunction_FormerlySerializedAsAttributeProxyEPv
2451:__ZN9Scripting11UnityEngineL55__ManagedRegistrationHelperFunction_SerializeFieldProxyEPv
2452:__ZN9Scripting11UnityEngineL66__ManagedRegistrationHelperFunction_SerializePrivateVariablesProxyEPv
2453:__ZN9Scripting11UnityEngineL55__ManagedRegistrationHelperFunction_SetupCoroutineProxyEPv
2454:__ZN9Scripting11UnityEngineL47__ManagedRegistrationHelperFunction_SpriteProxyEPv
2455:__ZN9Scripting11UnityEngineL58__ManagedRegistrationHelperFunction_StackTraceUtilityProxyEPv
2456:__ZN9Scripting11UnityEngineL50__ManagedRegistrationHelperFunction_Texture2DProxyEPv
2457:__ZN9Scripting11UnityEngineL55__ManagedRegistrationHelperFunction_Texture2DArrayProxyEPv
2458:__ZN9Scripting11UnityEngineL50__ManagedRegistrationHelperFunction_Texture3DProxyEPv
2459:__ZN9Scripting11UnityEngineL57__ManagedRegistrationHelperFunction_TrackedReferenceProxyEPv
2460:__ZN9Scripting11UnityEngine3U2DL59__ManagedRegistrationHelperFunction_SpriteAtlasManagerProxyEPv
2461:__ZN9Scripting11UnityEngineL66__ManagedRegistrationHelperFunction_UnhandledExceptionHandlerProxyEPv
2462:__ZN9Scripting11UnityEngineL55__ManagedRegistrationHelperFunction_UnityExceptionProxyEPv
2463:__ZN9Scripting11UnityEngineL68__ManagedRegistrationHelperFunction_UnitySynchronizationContextProxyEPv
2464:__ZN9Scripting11UnityEngineL48__ManagedRegistrationHelperFunction_Vector2ProxyEPv
2465:__ZN9Scripting11UnityEngineL51__ManagedRegistrationHelperFunction_Vector2IntProxyEPv
2466:__ZN9Scripting11UnityEngineL51__ManagedRegistrationHelperFunction_Vector3IntProxyEPv
2467:__ZN9Scripting11UnityEngineL48__ManagedRegistrationHelperFunction_Vector4ProxyEPv
2468:__ZN9Scripting11UnityEngineL58__ManagedRegistrationHelperFunction_WaitForEndOfFrameProxyEPv
2469:__ZN9Scripting11UnityEngineL59__ManagedRegistrationHelperFunction_WaitForFixedUpdateProxyEPv
2470:__ZN9Scripting11UnityEngineL55__ManagedRegistrationHelperFunction_WaitForSecondsProxyEPv
2471:__ZN9Scripting11UnityEngine19WaitForSecondsProxy9InitProxyEv
2472:__ZN9Scripting11UnityEngine19WaitForSecondsProxy12CleanupProxyEv
2473:__ZN35ScriptingManagedObjectProxyRegistry13RegisterProxyEPKcPFvvES3_
2474:__Z19scripting_array_new17ScriptingClassPtrjj
2475:__ZN17ScriptingGCHandle13AcquireStrongE18ScriptingObjectPtr
2476:__ZN9Scripting11UnityEngine23WaitForFixedUpdateProxy9InitProxyEv
2477:__ZN9Scripting11UnityEngine23WaitForFixedUpdateProxy12CleanupProxyEv
2478:__ZN9Scripting11UnityEngine22WaitForEndOfFrameProxy9InitProxyEv
2479:__ZN9Scripting11UnityEngine22WaitForEndOfFrameProxy12CleanupProxyEv
2480:__ZN9Scripting11UnityEngine12Vector4Proxy9InitProxyEv
2481:__ZN9Scripting11UnityEngine12Vector4Proxy12CleanupProxyEv
2482:__ZN9Scripting11UnityEngine15Vector3IntProxy9InitProxyEv
2483:__ZN9Scripting11UnityEngine15Vector3IntProxy12CleanupProxyEv
2484:__ZN9Scripting11UnityEngine15Vector2IntProxy9InitProxyEv
2485:__ZN9Scripting11UnityEngine15Vector2IntProxy12CleanupProxyEv
2486:__ZN9Scripting11UnityEngine12Vector2Proxy9InitProxyEv
2487:__ZN9Scripting11UnityEngine12Vector2Proxy12CleanupProxyEv
2488:__ZN9Scripting11UnityEngine32UnitySynchronizationContextProxy9InitProxyEv
2489:__ZN9Scripting11UnityEngine32UnitySynchronizationContextProxy12CleanupProxyEv
2490:__ZN9Scripting11UnityEngine19UnityExceptionProxy9InitProxyEv
2491:__ZN9Scripting11UnityEngine19UnityExceptionProxy12CleanupProxyEv
2492:__ZN9Scripting11UnityEngine30UnhandledExceptionHandlerProxy9InitProxyEv
2493:__ZN9Scripting11UnityEngine30UnhandledExceptionHandlerProxy12CleanupProxyEv
2494:__ZN9Scripting11UnityEngine3U2D23SpriteAtlasManagerProxy9InitProxyEv
2495:__ZN9Scripting11UnityEngine3U2D23SpriteAtlasManagerProxy12CleanupProxyEv
2496:__ZN9Scripting11UnityEngine21TrackedReferenceProxy9InitProxyEv
2497:__ZN9Scripting11UnityEngine21TrackedReferenceProxy12CleanupProxyEv
2498:__ZN9Scripting11UnityEngine14Texture3DProxy9InitProxyEv
2499:__ZN9Scripting11UnityEngine14Texture3DProxy12CleanupProxyEv
2500:__ZN9Scripting11UnityEngine19Texture2DArrayProxy9InitProxyEv
2501:__ZN9Scripting11UnityEngine19Texture2DArrayProxy12CleanupProxyEv
2502:__ZN9Scripting11UnityEngine14Texture2DProxy9InitProxyEv
2503:__ZN9Scripting11UnityEngine14Texture2DProxy12CleanupProxyEv
2504:__ZN9Scripting11UnityEngine22StackTraceUtilityProxy9InitProxyEv
2505:__ZN9Scripting11UnityEngine22StackTraceUtilityProxy12CleanupProxyEv
2506:__ZN9Scripting11UnityEngine11SpriteProxy9InitProxyEv
2507:__ZN9Scripting11UnityEngine11SpriteProxy12CleanupProxyEv
2508:__ZN9Scripting11UnityEngine19SetupCoroutineProxy9InitProxyEv
2509:__ZN9Scripting11UnityEngine19SetupCoroutineProxy12CleanupProxyEv
2510:__ZN9Scripting11UnityEngine30SerializePrivateVariablesProxy9InitProxyEv
2511:__ZN9Scripting11UnityEngine30SerializePrivateVariablesProxy12CleanupProxyEv
2512:__ZN9Scripting11UnityEngine19SerializeFieldProxy9InitProxyEv
2513:__ZN9Scripting11UnityEngine19SerializeFieldProxy12CleanupProxyEv
2514:__ZN9Scripting11UnityEngine13Serialization34FormerlySerializedAsAttributeProxy9InitProxyEv
2515:__ZN9Scripting11UnityEngine13Serialization34FormerlySerializedAsAttributeProxy12CleanupProxyEv
2516:__ZN9Scripting11UnityEngine20SendMouseEventsProxy9InitProxyEv
2517:__ZN9Scripting11UnityEngine20SendMouseEventsProxy12CleanupProxyEv
2518:__ZN9Scripting11UnityEngine15SceneManagement17SceneManagerProxy9InitProxyEv
2519:__ZN9Scripting11UnityEngine15SceneManagement17SceneManagerProxy12CleanupProxyEv
2520:__ZN9Scripting11UnityEngine20ResourceRequestProxy9InitProxyEv
2521:__ZN9Scripting11UnityEngine20ResourceRequestProxy12CleanupProxyEv
2522:__ZN9Scripting11UnityEngine15ResolutionProxy9InitProxyEv
2523:__ZN9Scripting11UnityEngine15ResolutionProxy12CleanupProxyEv
2524:__ZN9Scripting11UnityEngine9Rendering25SphericalHarmonicsL2Proxy9InitProxyEv
2525:__ZN9Scripting11UnityEngine9Rendering25SphericalHarmonicsL2Proxy12CleanupProxyEv
2526:__ZN9Scripting11UnityEngine9Rendering22ShaderKeywordTypeProxy9InitProxyEv
2527:__ZN9Scripting11UnityEngine9Rendering22ShaderKeywordTypeProxy12CleanupProxyEv
2528:__ZN9Scripting11UnityEngine9Rendering21ShaderKeywordSetProxy9InitProxyEv
2529:__ZN9Scripting11UnityEngine9Rendering21ShaderKeywordSetProxy12CleanupProxyEv
2530:__ZN9Scripting11UnityEngine9Rendering18ShaderKeywordProxy9InitProxyEv
2531:__ZN9Scripting11UnityEngine9Rendering18ShaderKeywordProxy12CleanupProxyEv
2532:__ZN9Scripting11UnityEngine9Rendering29ReflectionProbeBlendInfoProxy9InitProxyEv
2533:__ZN9Scripting11UnityEngine9Rendering29ReflectionProbeBlendInfoProxy12CleanupProxyEv
2534:__ZN9Scripting11UnityEngine9Rendering23PlatformKeywordSetProxy9InitProxyEv
2535:__ZN9Scripting11UnityEngine9Rendering23PlatformKeywordSetProxy12CleanupProxyEv
2536:__ZN9Scripting11UnityEngine9Rendering23GraphicsDeviceTypeProxy9InitProxyEv
2537:__ZN9Scripting11UnityEngine9Rendering23GraphicsDeviceTypeProxy12CleanupProxyEv
2538:__ZN9Scripting11UnityEngine9Rendering13GPUFenceProxy9InitProxyEv
2539:__ZN9Scripting11UnityEngine9Rendering13GPUFenceProxy12CleanupProxyEv
2540:__ZN9Scripting11UnityEngine9Rendering18CommandBufferProxy9InitProxyEv
2541:__ZN9Scripting11UnityEngine9Rendering18CommandBufferProxy12CleanupProxyEv
2542:__ZN9Scripting11UnityEngine9Rendering28AsyncGPUReadbackRequestProxy9InitProxyEv
2543:__ZN9Scripting11UnityEngine9Rendering28AsyncGPUReadbackRequestProxy12CleanupProxyEv
2544:__ZN9Scripting11UnityEngine20ReflectionProbeProxy9InitProxyEv
2545:__ZN9Scripting11UnityEngine20ReflectionProbeProxy12CleanupProxyEv
2546:__ZN9Scripting11UnityEngine18RectTransformProxy9InitProxyEv
2547:__ZN9Scripting11UnityEngine18RectTransformProxy12CleanupProxyEv
2548:__ZN9Scripting11UnityEngine14TransformProxy9InitProxyEv
2549:__ZN9Scripting11UnityEngine14TransformProxy12CleanupProxyEv
2550:__ZN9Scripting11UnityEngine15RectOffsetProxy9InitProxyEv
2551:__ZN9Scripting11UnityEngine15RectOffsetProxy12CleanupProxyEv
2552:__ZN9Scripting11UnityEngine12RectIntProxy9InitProxyEv
2553:__ZN9Scripting11UnityEngine12RectIntProxy12CleanupProxyEv
2554:__ZN9Scripting11UnityEngine9RectProxy9InitProxyEv
2555:__ZN9Scripting11UnityEngine9RectProxy12CleanupProxyEv
2556:__ZN9Scripting11UnityEngine15QuaternionProxy9InitProxyEv
2557:__ZN9Scripting11UnityEngine15QuaternionProxy12CleanupProxyEv
2558:__ZN9Scripting11UnityEngine17PropertyNameProxy9InitProxyEv
2559:__ZN9Scripting11UnityEngine17PropertyNameProxy12CleanupProxyEv
2560:__ZN9Scripting11UnityEngine9Profiling13RecorderProxy9InitProxyEv
2561:__ZN9Scripting11UnityEngine9Profiling13RecorderProxy12CleanupProxyEv
2562:__ZN9Scripting11UnityEngine9Profiling13ProfilerProxy9InitProxyEv
2563:__ZN9Scripting11UnityEngine9Profiling13ProfilerProxy12CleanupProxyEv
2564:__ZN9Scripting11UnityEngine9Profiling6Memory12Experimental19MemoryProfilerProxy9InitProxyEv
2565:__ZN9Scripting11UnityEngine9Profiling6Memory12Experimental19MemoryProfilerProxy12CleanupProxyEv
2566:__ZN9Scripting11UnityEngine9Profiling18CustomSamplerProxy9InitProxyEv
2567:__ZN9Scripting11UnityEngine9Profiling18CustomSamplerProxy12CleanupProxyEv
2568:__ZN9Scripting11UnityEngine9Profiling12SamplerProxy9InitProxyEv
2569:__ZN9Scripting11UnityEngine9Profiling12SamplerProxy12CleanupProxyEv
2570:__ZN9Scripting11UnityEngine16PreloadDataProxy9InitProxyEv
2571:__ZN9Scripting11UnityEngine16PreloadDataProxy12CleanupProxyEv
2572:__ZN9Scripting11UnityEngine30PreferBinarySerializationProxy9InitProxyEv
2573:__ZN9Scripting11UnityEngine30PreferBinarySerializationProxy12CleanupProxyEv
2574:__ZN9Scripting11UnityEngine9Playables25ScriptPlayableOutputProxy9InitProxyEv
2575:__ZN9Scripting11UnityEngine9Playables25ScriptPlayableOutputProxy12CleanupProxyEv
2576:__ZN9Scripting11UnityEngine9Playables25PlayableOutputHandleProxy9InitProxyEv
2577:__ZN9Scripting11UnityEngine9Playables25PlayableOutputHandleProxy12CleanupProxyEv
2578:__ZN9Scripting11UnityEngine9Playables19PlayableOutputProxy9InitProxyEv
2579:__ZN9Scripting11UnityEngine9Playables19PlayableOutputProxy12CleanupProxyEv
2580:__ZN9Scripting11UnityEngine9Playables19PlayableHandleProxy9InitProxyEv
2581:__ZN9Scripting11UnityEngine9Playables19PlayableHandleProxy12CleanupProxyEv
2582:__ZN9Scripting11UnityEngine9Playables18PlayableGraphProxy9InitProxyEv
2583:__ZN9Scripting11UnityEngine9Playables18PlayableGraphProxy12CleanupProxyEv
2584:__ZN9Scripting11UnityEngine9Playables22PlayableBehaviourProxy9InitProxyEv
2585:__ZN9Scripting11UnityEngine9Playables22PlayableBehaviourProxy12CleanupProxyEv
2586:__ZN9Scripting11UnityEngine9Playables18PlayableAssetProxy9InitProxyEv
2587:__ZN9Scripting11UnityEngine9Playables18PlayableAssetProxy12CleanupProxyEv
2588:__ZN9Scripting11UnityEngine9Playables13PlayableProxy9InitProxyEv
2589:__ZN9Scripting11UnityEngine9Playables13PlayableProxy12CleanupProxyEv
2590:__ZN9Scripting11UnityEngine10PlaneProxy9InitProxyEv
2591:__ZN9Scripting11UnityEngine10PlaneProxy12CleanupProxyEv
2592:__ZN9Scripting11UnityEngine10Networking16PlayerConnection21PlayerConnectionProxy9InitProxyEv
2593:__ZN9Scripting11UnityEngine10Networking16PlayerConnection21PlayerConnectionProxy12CleanupProxyEv
2594:__ZN9Scripting11UnityEngine21ScriptableObjectProxy9InitProxyEv
2595:__ZN9Scripting11UnityEngine21ScriptableObjectProxy12CleanupProxyEv
2596:__ZN9Scripting11UnityEngine18MonoBehaviourProxy9InitProxyEv
2597:__ZN9Scripting11UnityEngine18MonoBehaviourProxy12CleanupProxyEv
2598:__ZN9Scripting11UnityEngine17MeshRendererProxy9InitProxyEv
2599:__ZN9Scripting11UnityEngine17MeshRendererProxy12CleanupProxyEv
2600:__ZN9Scripting11UnityEngine13RendererProxy9InitProxyEv
2601:__ZN9Scripting11UnityEngine13RendererProxy12CleanupProxyEv
2602:__ZN9Scripting11UnityEngine15MeshFilterProxy9InitProxyEv
2603:__ZN9Scripting11UnityEngine15MeshFilterProxy12CleanupProxyEv
2604:__ZN9Scripting11UnityEngine9MeshProxy9InitProxyEv
2605:__ZN9Scripting11UnityEngine9MeshProxy12CleanupProxyEv
2606:__ZN9Scripting11UnityEngine14Matrix4x4Proxy9InitProxyEv
2607:__ZN9Scripting11UnityEngine14Matrix4x4Proxy12CleanupProxyEv
2608:__ZN9Scripting11UnityEngine13MaterialProxy9InitProxyEv
2609:__ZN9Scripting11UnityEngine13MaterialProxy12CleanupProxyEv
2610:__ZN9Scripting11UnityEngine25ManagedStreamHelpersProxy9InitProxyEv
2611:__ZN9Scripting11UnityEngine25ManagedStreamHelpersProxy12CleanupProxyEv
2612:__ZN9Scripting11UnityEngine24LowerResBlitTextureProxy9InitProxyEv
2613:__ZN9Scripting11UnityEngine24LowerResBlitTextureProxy12CleanupProxyEv
2614:__ZN9Scripting11UnityEngine8LODProxy9InitProxyEv
2615:__ZN9Scripting11UnityEngine8LODProxy12CleanupProxyEv
2616:__ZN9Scripting11UnityEngine17LightmapDataProxy9InitProxyEv
2617:__ZN9Scripting11UnityEngine17LightmapDataProxy12CleanupProxyEv
2618:__ZN9Scripting11UnityEngine14LayerMaskProxy9InitProxyEv
2619:__ZN9Scripting11UnityEngine14LayerMaskProxy12CleanupProxyEv
2620:__ZN9Scripting11UnityEngine13KeyframeProxy9InitProxyEv
2621:__ZN9Scripting11UnityEngine13KeyframeProxy12CleanupProxyEv
2622:__ZN9Scripting11UnityEngine31ImageEffectTransformsToLDRProxy9InitProxyEv
2623:__ZN9Scripting11UnityEngine31ImageEffectTransformsToLDRProxy12CleanupProxyEv
2624:__ZN9Scripting11UnityEngine22ImageEffectOpaqueProxy9InitProxyEv
2625:__ZN9Scripting11UnityEngine22ImageEffectOpaqueProxy12CleanupProxyEv
2626:__ZN9Scripting11UnityEngine26ImageEffectAfterScaleProxy9InitProxyEv
2627:__ZN9Scripting11UnityEngine26ImageEffectAfterScaleProxy12CleanupProxyEv
2628:__ZN9Scripting11UnityEngine20HideInInspectorProxy9InitProxyEv
2629:__ZN9Scripting11UnityEngine20HideInInspectorProxy12CleanupProxyEv
2630:__ZN9Scripting11UnityEngine21HelpURLAttributeProxy9InitProxyEv
2631:__ZN9Scripting11UnityEngine21HelpURLAttributeProxy12CleanupProxyEv
2632:__ZN9Scripting11UnityEngine12Hash128Proxy9InitProxyEv
2633:__ZN9Scripting11UnityEngine12Hash128Proxy12CleanupProxyEv
2634:__ZN9Scripting11UnityEngine21GradientColorKeyProxy9InitProxyEv
2635:__ZN9Scripting11UnityEngine21GradientColorKeyProxy12CleanupProxyEv
2636:__ZN9Scripting11UnityEngine21GradientAlphaKeyProxy9InitProxyEv
2637:__ZN9Scripting11UnityEngine21GradientAlphaKeyProxy12CleanupProxyEv
2638:__ZN9Scripting11UnityEngine13GradientProxy9InitProxyEv
2639:__ZN9Scripting11UnityEngine13GradientProxy12CleanupProxyEv
2640:__ZN9Scripting11UnityEngine15GameObjectProxy9InitProxyEv
2641:__ZN9Scripting11UnityEngine15GameObjectProxy12CleanupProxyEv
2642:__ZN9Scripting11UnityEngine29FailedToLoadScriptObjectProxy9InitProxyEv
2643:__ZN9Scripting11UnityEngine29FailedToLoadScriptObjectProxy12CleanupProxyEv
2644:__ZN9Scripting11UnityEngine36ExtensionOfNativeClassAttributeProxy9InitProxyEv
2645:__ZN9Scripting11UnityEngine36ExtensionOfNativeClassAttributeProxy12CleanupProxyEv
2646:__ZN9Scripting11UnityEngine23ExposedReference_1Proxy9InitProxyEv
2647:__ZN9Scripting11UnityEngine23ExposedReference_1Proxy12CleanupProxyEv
2648:__ZN9Scripting11UnityEngine12Experimental3U2D15SpriteBoneProxy9InitProxyEv
2649:__ZN9Scripting11UnityEngine12Experimental3U2D15SpriteBoneProxy12CleanupProxyEv
2650:__ZN9Scripting11UnityEngine12Experimental9Rendering27VisibleReflectionProbeProxy9InitProxyEv
2651:__ZN9Scripting11UnityEngine12Experimental9Rendering27VisibleReflectionProbeProxy12CleanupProxyEv
2652:__ZN9Scripting11UnityEngine12Experimental9Rendering17VisibleLightProxy9InitProxyEv
2653:__ZN9Scripting11UnityEngine12Experimental9Rendering17VisibleLightProxy12CleanupProxyEv
2654:__ZN9Scripting11UnityEngine12Experimental9Rendering31SupportedRenderingFeaturesProxy9InitProxyEv
2655:__ZN9Scripting11UnityEngine12Experimental9Rendering31SupportedRenderingFeaturesProxy12CleanupProxyEv
2656:__ZN9Scripting11UnityEngine12Experimental9Rendering20ShadowSplitDataProxy9InitProxyEv
2657:__ZN9Scripting11UnityEngine12Experimental9Rendering20ShadowSplitDataProxy12CleanupProxyEv
2658:__ZN9Scripting11UnityEngine12Experimental9Rendering45ScriptableRuntimeReflectionSystemWrapperProxy9InitProxyEv
2659:__ZN9Scripting11UnityEngine12Experimental9Rendering45ScriptableRuntimeReflectionSystemWrapperProxy12CleanupProxyEv
2660:__ZN9Scripting11UnityEngine12Experimental9Rendering46ScriptableRuntimeReflectionSystemSettingsProxy9InitProxyEv
2661:__ZN9Scripting11UnityEngine12Experimental9Rendering46ScriptableRuntimeReflectionSystemSettingsProxy12CleanupProxyEv
2662:__ZN9Scripting11UnityEngine12Experimental9Rendering32ScriptableCullingParametersProxy9InitProxyEv
2663:__ZN9Scripting11UnityEngine12Experimental9Rendering32ScriptableCullingParametersProxy12CleanupProxyEv
2664:__ZN9Scripting11UnityEngine12Experimental9Rendering26RenderPipelineManagerProxy9InitProxyEv
2665:__ZN9Scripting11UnityEngine12Experimental9Rendering26RenderPipelineManagerProxy12CleanupProxyEv
2666:__ZN9Scripting11UnityEngine12Experimental9Rendering24DrawShadowsSettingsProxy9InitProxyEv
2667:__ZN9Scripting11UnityEngine12Experimental9Rendering24DrawShadowsSettingsProxy12CleanupProxyEv
2668:__ZN9Scripting11UnityEngine12Experimental9Rendering16CullResultsProxy9InitProxyEv
2669:__ZN9Scripting11UnityEngine12Experimental9Rendering16CullResultsProxy12CleanupProxyEv
2670:__ZN9Scripting11UnityEngine12Experimental9Rendering21CoreCameraValuesProxy9InitProxyEv
2671:__ZN9Scripting11UnityEngine12Experimental9Rendering21CoreCameraValuesProxy12CleanupProxyEv
2672:__ZN9Scripting11UnityEngine12Experimental9Rendering21CameraPropertiesProxy9InitProxyEv
2673:__ZN9Scripting11UnityEngine12Experimental9Rendering21CameraPropertiesProxy12CleanupProxyEv
2674:__ZN9Scripting11UnityEngine12Experimental9Rendering35BuiltinRuntimeReflectionSystemProxy9InitProxyEv
2675:__ZN9Scripting11UnityEngine12Experimental9Rendering35BuiltinRuntimeReflectionSystemProxy12CleanupProxyEv
2676:__ZN9Scripting11UnityEngine12Experimental10PlayerLoop6Update26ScriptRunDelayedTasksProxy9InitProxyEv
2677:__ZN9Scripting11UnityEngine12Experimental10PlayerLoop6Update26ScriptRunDelayedTasksProxy12CleanupProxyEv
2678:__ZN9Scripting11UnityEngine12Experimental10PlayerLoop6Update37ScriptRunDelayedDynamicFrameRateProxy9InitProxyEv
2679:__ZN9Scripting11UnityEngine12Experimental10PlayerLoop6Update37ScriptRunDelayedDynamicFrameRateProxy12CleanupProxyEv
2680:__ZN9Scripting11UnityEngine12Experimental10PlayerLoop6Update29ScriptRunBehaviourUpdateProxy9InitProxyEv
2681:__ZN9Scripting11UnityEngine12Experimental10PlayerLoop6Update29ScriptRunBehaviourUpdateProxy12CleanupProxyEv
2682:__ZN9Scripting11UnityEngine12Experimental10PlayerLoop6Update19DirectorUpdateProxy9InitProxyEv
2683:__ZN9Scripting11UnityEngine12Experimental10PlayerLoop6Update19DirectorUpdateProxy12CleanupProxyEv
2684:__ZN9Scripting11UnityEngine12Experimental10PlayerLoop11UpdateProxy9InitProxyEv
2685:__ZN9Scripting11UnityEngine12Experimental10PlayerLoop11UpdateProxy12CleanupProxyEv
2686:__ZN9Scripting11UnityEngine12Experimental10PlayerLoop9PreUpdate15WindUpdateProxy9InitProxyEv
2687:__ZN9Scripting11UnityEngine12Experimental10PlayerLoop9PreUpdate15WindUpdateProxy12CleanupProxyEv
2688:__ZN9Scripting11UnityEngine12Experimental10PlayerLoop9PreUpdate16UpdateVideoProxy9InitProxyEv
2689:__ZN9Scripting11UnityEngine12Experimental10PlayerLoop9PreUpdate16UpdateVideoProxy12CleanupProxyEv
2690:__ZN9Scripting11UnityEngine12Experimental10PlayerLoop9PreUpdate20SendMouseEventsProxy9InitProxyEv
2691:__ZN9Scripting11UnityEngine12Experimental10PlayerLoop9PreUpdate20SendMouseEventsProxy12CleanupProxyEv
2692:__ZN9Scripting11UnityEngine12Experimental10PlayerLoop9PreUpdate18PhysicsUpdateProxy9InitProxyEv
2693:__ZN9Scripting11UnityEngine12Experimental10PlayerLoop9PreUpdate18PhysicsUpdateProxy12CleanupProxyEv
2694:__ZN9Scripting11UnityEngine12Experimental10PlayerLoop9PreUpdate20Physics2DUpdateProxy9InitProxyEv
2695:__ZN9Scripting11UnityEngine12Experimental10PlayerLoop9PreUpdate20Physics2DUpdateProxy12CleanupProxyEv
2696:__ZN9Scripting11UnityEngine12Experimental10PlayerLoop9PreUpdate19NewInputUpdateProxy9InitProxyEv
2697:__ZN9Scripting11UnityEngine12Experimental10PlayerLoop9PreUpdate19NewInputUpdateProxy12CleanupProxyEv
2698:__ZN9Scripting11UnityEngine12Experimental10PlayerLoop9PreUpdate26IMGUISendQueuedEventsProxy9InitProxyEv
2699:__ZN9Scripting11UnityEngine12Experimental10PlayerLoop9PreUpdate26IMGUISendQueuedEventsProxy12CleanupProxyEv
2700:__ZN9Scripting11UnityEngine12Experimental10PlayerLoop9PreUpdate23CheckTexFieldInputProxy9InitProxyEv
2701:__ZN9Scripting11UnityEngine12Experimental10PlayerLoop9PreUpdate23CheckTexFieldInputProxy12CleanupProxyEv
2702:__ZN9Scripting11UnityEngine12Experimental10PlayerLoop9PreUpdate13AIUpdateProxy9InitProxyEv
2703:__ZN9Scripting11UnityEngine12Experimental10PlayerLoop9PreUpdate13AIUpdateProxy12CleanupProxyEv
2704:__ZN9Scripting11UnityEngine12Experimental10PlayerLoop14PreUpdateProxy9InitProxyEv
2705:__ZN9Scripting11UnityEngine12Experimental10PlayerLoop14PreUpdateProxy12CleanupProxyEv
2706:__ZN9Scripting11UnityEngine12Experimental10PlayerLoop13PreLateUpdate25UpdateNetworkManagerProxy9InitProxyEv
2707:__ZN9Scripting11UnityEngine12Experimental10PlayerLoop13PreLateUpdate25UpdateNetworkManagerProxy12CleanupProxyEv
2708:__ZN9Scripting11UnityEngine12Experimental10PlayerLoop13PreLateUpdate32UpdateMasterServerInterfaceProxy9InitProxyEv
2709:__ZN9Scripting11UnityEngine12Experimental10PlayerLoop13PreLateUpdate32UpdateMasterServerInterfaceProxy12CleanupProxyEv
2710:__ZN9Scripting11UnityEngine12Experimental10PlayerLoop13PreLateUpdate15UNetUpdateProxy9InitProxyEv
2711:__ZN9Scripting11UnityEngine12Experimental10PlayerLoop13PreLateUpdate15UNetUpdateProxy12CleanupProxyEv
2712:__ZN9Scripting11UnityEngine12Experimental10PlayerLoop13PreLateUpdate33ScriptRunBehaviourLateUpdateProxy9InitProxyEv
2713:__ZN9Scripting11UnityEngine12Experimental10PlayerLoop13PreLateUpdate33ScriptRunBehaviourLateUpdateProxy12CleanupProxyEv
2714:__ZN9Scripting11UnityEngine12Experimental10PlayerLoop13PreLateUpdate33ParticleSystemBeginUpdateAllProxy9InitProxyEv
2715:__ZN9Scripting11UnityEngine12Experimental10PlayerLoop13PreLateUpdate33ParticleSystemBeginUpdateAllProxy12CleanupProxyEv
2716:__ZN9Scripting11UnityEngine12Experimental10PlayerLoop13PreLateUpdate26LegacyAnimationUpdateProxy9InitProxyEv
2717:__ZN9Scripting11UnityEngine12Experimental10PlayerLoop13PreLateUpdate26LegacyAnimationUpdateProxy12CleanupProxyEv
2718:__ZN9Scripting11UnityEngine12Experimental10PlayerLoop13PreLateUpdate37EndGraphicsJobsAfterScriptUpdateProxy9InitProxyEv
2719:__ZN9Scripting11UnityEngine12Experimental10PlayerLoop13PreLateUpdate37EndGraphicsJobsAfterScriptUpdateProxy12CleanupProxyEv
2720:__ZN9Scripting11UnityEngine12Experimental10PlayerLoop13PreLateUpdate31DirectorUpdateAnimationEndProxy9InitProxyEv
2721:__ZN9Scripting11UnityEngine12Experimental10PlayerLoop13PreLateUpdate31DirectorUpdateAnimationEndProxy12CleanupProxyEv
2722:__ZN9Scripting11UnityEngine12Experimental10PlayerLoop13PreLateUpdate33DirectorUpdateAnimationBeginProxy9InitProxyEv
2723:__ZN9Scripting11UnityEngine12Experimental10PlayerLoop13PreLateUpdate33DirectorUpdateAnimationBeginProxy12CleanupProxyEv
2724:__ZN9Scripting11UnityEngine12Experimental10PlayerLoop13PreLateUpdate29DirectorDeferredEvaluateProxy9InitProxyEv
2725:__ZN9Scripting11UnityEngine12Experimental10PlayerLoop13PreLateUpdate29DirectorDeferredEvaluateProxy12CleanupProxyEv
2726:__ZN9Scripting11UnityEngine12Experimental10PlayerLoop13PreLateUpdate28ConstraintManagerUpdateProxy9InitProxyEv
2727:__ZN9Scripting11UnityEngine12Experimental10PlayerLoop13PreLateUpdate28ConstraintManagerUpdateProxy12CleanupProxyEv
2728:__ZN9Scripting11UnityEngine12Experimental10PlayerLoop13PreLateUpdate23AIUpdatePostScriptProxy9InitProxyEv
2729:__ZN9Scripting11UnityEngine12Experimental10PlayerLoop13PreLateUpdate23AIUpdatePostScriptProxy12CleanupProxyEv
2730:__ZN9Scripting11UnityEngine12Experimental10PlayerLoop18PreLateUpdateProxy9InitProxyEv
2731:__ZN9Scripting11UnityEngine12Experimental10PlayerLoop18PreLateUpdateProxy12CleanupProxyEv
2732:__ZN9Scripting11UnityEngine12Experimental10PlayerLoop14PostLateUpdate18XRPostPresentProxy9InitProxyEv
2733:__ZN9Scripting11UnityEngine12Experimental10PlayerLoop14PostLateUpdate18XRPostPresentProxy12CleanupProxyEv
2734:__ZN9Scripting11UnityEngine12Experimental10PlayerLoop14PostLateUpdate14VFXUpdateProxy9InitProxyEv
2735:__ZN9Scripting11UnityEngine12Experimental10PlayerLoop14PostLateUpdate14VFXUpdateProxy12CleanupProxyEv
2736:__ZN9Scripting11UnityEngine12Experimental10PlayerLoop14PostLateUpdate24UpdateVideoTexturesProxy9InitProxyEv
2737:__ZN9Scripting11UnityEngine12Experimental10PlayerLoop14PostLateUpdate24UpdateVideoTexturesProxy12CleanupProxyEv
2738:__ZN9Scripting11UnityEngine12Experimental10PlayerLoop14PostLateUpdate16UpdateVideoProxy9InitProxyEv
2739:__ZN9Scripting11UnityEngine12Experimental10PlayerLoop14PostLateUpdate16UpdateVideoProxy12CleanupProxyEv
2740:__ZN9Scripting11UnityEngine12Experimental10PlayerLoop14PostLateUpdate20UpdateSubstanceProxy9InitProxyEv
2741:__ZN9Scripting11UnityEngine12Experimental10PlayerLoop14PostLateUpdate20UpdateSubstanceProxy12CleanupProxyEv
2742:__ZN9Scripting11UnityEngine12Experimental10PlayerLoop14PostLateUpdate21UpdateResolutionProxy9InitProxyEv
2743:__ZN9Scripting11UnityEngine12Experimental10PlayerLoop14PostLateUpdate21UpdateResolutionProxy12CleanupProxyEv
2744:__ZN9Scripting11UnityEngine12Experimental10PlayerLoop14PostLateUpdate24UpdateRectTransformProxy9InitProxyEv
2745:__ZN9Scripting11UnityEngine12Experimental10PlayerLoop14PostLateUpdate24UpdateRectTransformProxy12CleanupProxyEv
2746:__ZN9Scripting11UnityEngine12Experimental10PlayerLoop14PostLateUpdate31UpdateCustomRenderTexturesProxy9InitProxyEv
2747:__ZN9Scripting11UnityEngine12Experimental10PlayerLoop14PostLateUpdate31UpdateCustomRenderTexturesProxy12CleanupProxyEv
2748:__ZN9Scripting11UnityEngine12Experimental10PlayerLoop14PostLateUpdate28UpdateCaptureScreenshotProxy9InitProxyEv
2749:__ZN9Scripting11UnityEngine12Experimental10PlayerLoop14PostLateUpdate28UpdateCaptureScreenshotProxy12CleanupProxyEv
2750:__ZN9Scripting11UnityEngine12Experimental10PlayerLoop14PostLateUpdate30UpdateCanvasRectTransformProxy9InitProxyEv
2751:__ZN9Scripting11UnityEngine12Experimental10PlayerLoop14PostLateUpdate30UpdateCanvasRectTransformProxy12CleanupProxyEv
2752:__ZN9Scripting11UnityEngine12Experimental10PlayerLoop14PostLateUpdate16UpdateAudioProxy9InitProxyEv
2753:__ZN9Scripting11UnityEngine12Experimental10PlayerLoop14PostLateUpdate16UpdateAudioProxy12CleanupProxyEv
2754:__ZN9Scripting11UnityEngine12Experimental10PlayerLoop14PostLateUpdate27UpdateAllSkinnedMeshesProxy9InitProxyEv
2755:__ZN9Scripting11UnityEngine12Experimental10PlayerLoop14PostLateUpdate27UpdateAllSkinnedMeshesProxy12CleanupProxyEv
2756:__ZN9Scripting11UnityEngine12Experimental10PlayerLoop14PostLateUpdate23UpdateAllRenderersProxy9InitProxyEv
2757:__ZN9Scripting11UnityEngine12Experimental10PlayerLoop14PostLateUpdate23UpdateAllRenderersProxy12CleanupProxyEv
2758:__ZN9Scripting11UnityEngine12Experimental10PlayerLoop14PostLateUpdate31TriggerEndOfFrameCallbacksProxy9InitProxyEv
2759:__ZN9Scripting11UnityEngine12Experimental10PlayerLoop14PostLateUpdate31TriggerEndOfFrameCallbacksProxy12CleanupProxyEv
2760:__ZN9Scripting11UnityEngine12Experimental10PlayerLoop14PostLateUpdate25ThreadedLoadingDebugProxy9InitProxyEv
2761:__ZN9Scripting11UnityEngine12Experimental10PlayerLoop14PostLateUpdate25ThreadedLoadingDebugProxy12CleanupProxyEv
2762:__ZN9Scripting11UnityEngine12Experimental10PlayerLoop14PostLateUpdate24SortingGroupsUpdateProxy9InitProxyEv
2763:__ZN9Scripting11UnityEngine12Experimental10PlayerLoop14PostLateUpdate24SortingGroupsUpdateProxy12CleanupProxyEv
2764:__ZN9Scripting11UnityEngine12Experimental10PlayerLoop14PostLateUpdate23ShaderHandleErrorsProxy9InitProxyEv
2765:__ZN9Scripting11UnityEngine12Experimental10PlayerLoop14PostLateUpdate23ShaderHandleErrorsProxy12CleanupProxyEv
2766:__ZN9Scripting11UnityEngine12Experimental10PlayerLoop14PostLateUpdate37ScriptRunDelayedDynamicFrameRateProxy9InitProxyEv
2767:__ZN9Scripting11UnityEngine12Experimental10PlayerLoop14PostLateUpdate37ScriptRunDelayedDynamicFrameRateProxy12CleanupProxyEv
2768:__ZN9Scripting11UnityEngine12Experimental10PlayerLoop14PostLateUpdate19ResetInputAxisProxy9InitProxyEv
2769:__ZN9Scripting11UnityEngine12Experimental10PlayerLoop14PostLateUpdate19ResetInputAxisProxy12CleanupProxyEv
2770:__ZN9Scripting11UnityEngine12Experimental10PlayerLoop14PostLateUpdate29ProfilerSynchronizeStatsProxy9InitProxyEv
2771:__ZN9Scripting11UnityEngine12Experimental10PlayerLoop14PostLateUpdate29ProfilerSynchronizeStatsProxy12CleanupProxyEv
2772:__ZN9Scripting11UnityEngine12Experimental10PlayerLoop14PostLateUpdate21ProfilerEndFrameProxy9InitProxyEv
2773:__ZN9Scripting11UnityEngine12Experimental10PlayerLoop14PostLateUpdate21ProfilerEndFrameProxy12CleanupProxyEv
2774:__ZN9Scripting11UnityEngine12Experimental10PlayerLoop14PostLateUpdate27ProcessWebSendMessagesProxy9InitProxyEv
2775:__ZN9Scripting11UnityEngine12Experimental10PlayerLoop14PostLateUpdate27ProcessWebSendMessagesProxy12CleanupProxyEv
2776:__ZN9Scripting11UnityEngine12Experimental10PlayerLoop14PostLateUpdate21PresentAfterDrawProxy9InitProxyEv
2777:__ZN9Scripting11UnityEngine12Experimental10PlayerLoop14PostLateUpdate21PresentAfterDrawProxy12CleanupProxyEv
2778:__ZN9Scripting11UnityEngine12Experimental10PlayerLoop14PostLateUpdate25PlayerUpdateCanvasesProxy9InitProxyEv
2779:__ZN9Scripting11UnityEngine12Experimental10PlayerLoop14PostLateUpdate25PlayerUpdateCanvasesProxy12CleanupProxyEv
2780:__ZN9Scripting11UnityEngine12Experimental10PlayerLoop14PostLateUpdate27PlayerSendFrameStartedProxy9InitProxyEv
2781:__ZN9Scripting11UnityEngine12Experimental10PlayerLoop14PostLateUpdate27PlayerSendFrameStartedProxy12CleanupProxyEv
2782:__ZN9Scripting11UnityEngine12Experimental10PlayerLoop14PostLateUpdate31PlayerSendFramePostPresentProxy9InitProxyEv
2783:__ZN9Scripting11UnityEngine12Experimental10PlayerLoop14PostLateUpdate31PlayerSendFramePostPresentProxy12CleanupProxyEv
2784:__ZN9Scripting11UnityEngine12Experimental10PlayerLoop14PostLateUpdate28PlayerSendFrameCompleteProxy9InitProxyEv
2785:__ZN9Scripting11UnityEngine12Experimental10PlayerLoop14PostLateUpdate28PlayerSendFrameCompleteProxy12CleanupProxyEv
2786:__ZN9Scripting11UnityEngine12Experimental10PlayerLoop14PostLateUpdate29PlayerEmitCanvasGeometryProxy9InitProxyEv
2787:__ZN9Scripting11UnityEngine12Experimental10PlayerLoop14PostLateUpdate29PlayerEmitCanvasGeometryProxy12CleanupProxyEv
2788:__ZN9Scripting11UnityEngine12Experimental10PlayerLoop14PostLateUpdate36PhysicsSkinnedClothFinishUpdateProxy9InitProxyEv
2789:__ZN9Scripting11UnityEngine12Experimental10PlayerLoop14PostLateUpdate36PhysicsSkinnedClothFinishUpdateProxy12CleanupProxyEv
2790:__ZN9Scripting11UnityEngine12Experimental10PlayerLoop14PostLateUpdate35PhysicsSkinnedClothBeginUpdateProxy9InitProxyEv
2791:__ZN9Scripting11UnityEngine12Experimental10PlayerLoop14PostLateUpdate35PhysicsSkinnedClothBeginUpdateProxy12CleanupProxyEv
2792:__ZN9Scripting11UnityEngine12Experimental10PlayerLoop14PostLateUpdate31ParticleSystemEndUpdateAllProxy9InitProxyEv
2793:__ZN9Scripting11UnityEngine12Experimental10PlayerLoop14PostLateUpdate31ParticleSystemEndUpdateAllProxy12CleanupProxyEv
2794:__ZN9Scripting11UnityEngine12Experimental10PlayerLoop14PostLateUpdate27MemoryFrameMaintenanceProxy9InitProxyEv
2795:__ZN9Scripting11UnityEngine12Experimental10PlayerLoop14PostLateUpdate27MemoryFrameMaintenanceProxy12CleanupProxyEv
2796:__ZN9Scripting11UnityEngine12Experimental10PlayerLoop14PostLateUpdate18InputEndFrameProxy9InitProxyEv
2797:__ZN9Scripting11UnityEngine12Experimental10PlayerLoop14PostLateUpdate18InputEndFrameProxy12CleanupProxyEv
2798:__ZN9Scripting11UnityEngine12Experimental10PlayerLoop14PostLateUpdate19GUIClearEventsProxy9InitProxyEv
2799:__ZN9Scripting11UnityEngine12Experimental10PlayerLoop14PostLateUpdate19GUIClearEventsProxy12CleanupProxyEv
2800:__ZN9Scripting11UnityEngine12Experimental10PlayerLoop14PostLateUpdate25FinishFrameRenderingProxy9InitProxyEv
2801:__ZN9Scripting11UnityEngine12Experimental10PlayerLoop14PostLateUpdate25FinishFrameRenderingProxy12CleanupProxyEv
2802:__ZN9Scripting11UnityEngine12Experimental10PlayerLoop14PostLateUpdate31ExecuteGameCenterCallbacksProxy9InitProxyEv
2803:__ZN9Scripting11UnityEngine12Experimental10PlayerLoop14PostLateUpdate31ExecuteGameCenterCallbacksProxy12CleanupProxyEv
2804:__ZN9Scripting11UnityEngine12Experimental10PlayerLoop14PostLateUpdate27EnlightenRuntimeUpdateProxy9InitProxyEv
2805:__ZN9Scripting11UnityEngine12Experimental10PlayerLoop14PostLateUpdate27EnlightenRuntimeUpdateProxy12CleanupProxyEv
2806:__ZN9Scripting11UnityEngine12Experimental10PlayerLoop14PostLateUpdate41EndGraphicsJobsAfterScriptLateUpdateProxy9InitProxyEv
2807:__ZN9Scripting11UnityEngine12Experimental10PlayerLoop14PostLateUpdate41EndGraphicsJobsAfterScriptLateUpdateProxy12CleanupProxyEv
2808:__ZN9Scripting11UnityEngine12Experimental10PlayerLoop14PostLateUpdate24DirectorRenderImageProxy9InitProxyEv
2809:__ZN9Scripting11UnityEngine12Experimental10PlayerLoop14PostLateUpdate24DirectorRenderImageProxy12CleanupProxyEv
2810:__ZN9Scripting11UnityEngine12Experimental10PlayerLoop14PostLateUpdate23DirectorLateUpdateProxy9InitProxyEv
2811:__ZN9Scripting11UnityEngine12Experimental10PlayerLoop14PostLateUpdate23DirectorLateUpdateProxy12CleanupProxyEv
2812:__ZN9Scripting11UnityEngine12Experimental10PlayerLoop14PostLateUpdate28ClearImmediateRenderersProxy9InitProxyEv
2813:__ZN9Scripting11UnityEngine12Experimental10PlayerLoop14PostLateUpdate28ClearImmediateRenderersProxy12CleanupProxyEv
2814:__ZN9Scripting11UnityEngine12Experimental10PlayerLoop14PostLateUpdate20BatchModeUpdateProxy9InitProxyEv
2815:__ZN9Scripting11UnityEngine12Experimental10PlayerLoop14PostLateUpdate20BatchModeUpdateProxy12CleanupProxyEv
2816:__ZN9Scripting11UnityEngine12Experimental10PlayerLoop19PostLateUpdateProxy9InitProxyEv
2817:__ZN9Scripting11UnityEngine12Experimental10PlayerLoop19PostLateUpdateProxy12CleanupProxyEv
2818:__ZN9Scripting11UnityEngine12Experimental10PlayerLoop14Initialization18XREarlyUpdateProxy9InitProxyEv
2819:__ZN9Scripting11UnityEngine12Experimental10PlayerLoop14Initialization18XREarlyUpdateProxy12CleanupProxyEv
2820:__ZN9Scripting11UnityEngine12Experimental10PlayerLoop14Initialization21SynchronizeStateProxy9InitProxyEv
2821:__ZN9Scripting11UnityEngine12Experimental10PlayerLoop14Initialization21SynchronizeStateProxy12CleanupProxyEv
2822:__ZN9Scripting11UnityEngine12Experimental10PlayerLoop14Initialization22SynchronizeInputsProxy9InitProxyEv
2823:__ZN9Scripting11UnityEngine12Experimental10PlayerLoop14Initialization22SynchronizeInputsProxy12CleanupProxyEv
2824:__ZN9Scripting11UnityEngine12Experimental10PlayerLoop14Initialization21PlayerUpdateTimeProxy9InitProxyEv
2825:__ZN9Scripting11UnityEngine12Experimental10PlayerLoop14Initialization21PlayerUpdateTimeProxy12CleanupProxyEv
2826:__ZN9Scripting11UnityEngine12Experimental10PlayerLoop14Initialization32AsyncUploadTimeSlicedUpdateProxy9InitProxyEv
2827:__ZN9Scripting11UnityEngine12Experimental10PlayerLoop14Initialization32AsyncUploadTimeSlicedUpdateProxy12CleanupProxyEv
2828:__ZN9Scripting11UnityEngine12Experimental10PlayerLoop19InitializationProxy9InitProxyEv
2829:__ZN9Scripting11UnityEngine12Experimental10PlayerLoop19InitializationProxy12CleanupProxyEv
2830:__ZN9Scripting11UnityEngine12Experimental10PlayerLoop11FixedUpdate18XRFixedUpdateProxy9InitProxyEv
2831:__ZN9Scripting11UnityEngine12Experimental10PlayerLoop11FixedUpdate18XRFixedUpdateProxy12CleanupProxyEv
2832:__ZN9Scripting11UnityEngine12Experimental10PlayerLoop11FixedUpdate35ScriptRunDelayedFixedFrameRateProxy9InitProxyEv
2833:__ZN9Scripting11UnityEngine12Experimental10PlayerLoop11FixedUpdate35ScriptRunDelayedFixedFrameRateProxy12CleanupProxyEv
2834:__ZN9Scripting11UnityEngine12Experimental10PlayerLoop11FixedUpdate34ScriptRunBehaviourFixedUpdateProxy9InitProxyEv
2835:__ZN9Scripting11UnityEngine12Experimental10PlayerLoop11FixedUpdate34ScriptRunBehaviourFixedUpdateProxy12CleanupProxyEv
2836:__ZN9Scripting11UnityEngine12Experimental10PlayerLoop11FixedUpdate23PhysicsFixedUpdateProxy9InitProxyEv
2837:__ZN9Scripting11UnityEngine12Experimental10PlayerLoop11FixedUpdate23PhysicsFixedUpdateProxy12CleanupProxyEv
2838:__ZN9Scripting11UnityEngine12Experimental10PlayerLoop11FixedUpdate25Physics2DFixedUpdateProxy9InitProxyEv
2839:__ZN9Scripting11UnityEngine12Experimental10PlayerLoop11FixedUpdate25Physics2DFixedUpdateProxy12CleanupProxyEv
2840:__ZN9Scripting11UnityEngine12Experimental10PlayerLoop11FixedUpdate24NewInputFixedUpdateProxy9InitProxyEv
2841:__ZN9Scripting11UnityEngine12Experimental10PlayerLoop11FixedUpdate24NewInputFixedUpdateProxy12CleanupProxyEv
2842:__ZN9Scripting11UnityEngine12Experimental10PlayerLoop11FixedUpdate31LegacyFixedAnimationUpdateProxy9InitProxyEv
2843:__ZN9Scripting11UnityEngine12Experimental10PlayerLoop11FixedUpdate31LegacyFixedAnimationUpdateProxy12CleanupProxyEv
2844:__ZN9Scripting11UnityEngine12Experimental10PlayerLoop11FixedUpdate35DirectorFixedUpdatePostPhysicsProxy9InitProxyEv
2845:__ZN9Scripting11UnityEngine12Experimental10PlayerLoop11FixedUpdate35DirectorFixedUpdatePostPhysicsProxy12CleanupProxyEv
2846:__ZN9Scripting11UnityEngine12Experimental10PlayerLoop11FixedUpdate24DirectorFixedUpdateProxy9InitProxyEv
2847:__ZN9Scripting11UnityEngine12Experimental10PlayerLoop11FixedUpdate24DirectorFixedUpdateProxy12CleanupProxyEv
2848:__ZN9Scripting11UnityEngine12Experimental10PlayerLoop11FixedUpdate28DirectorFixedSampleTimeProxy9InitProxyEv
2849:__ZN9Scripting11UnityEngine12Experimental10PlayerLoop11FixedUpdate28DirectorFixedSampleTimeProxy12CleanupProxyEv
2850:__ZN9Scripting11UnityEngine12Experimental10PlayerLoop11FixedUpdate15ClearLinesProxy9InitProxyEv
2851:__ZN9Scripting11UnityEngine12Experimental10PlayerLoop11FixedUpdate15ClearLinesProxy12CleanupProxyEv
2852:__ZN9Scripting11UnityEngine12Experimental10PlayerLoop11FixedUpdate21AudioFixedUpdateProxy9InitProxyEv
2853:__ZN9Scripting11UnityEngine12Experimental10PlayerLoop11FixedUpdate21AudioFixedUpdateProxy12CleanupProxyEv
2854:__ZN9Scripting11UnityEngine12Experimental10PlayerLoop16FixedUpdateProxy9InitProxyEv
2855:__ZN9Scripting11UnityEngine12Experimental10PlayerLoop16FixedUpdateProxy12CleanupProxyEv
2856:__ZN9Scripting11UnityEngine12Experimental10PlayerLoop11EarlyUpdate13XRUpdateProxy9InitProxyEv
2857:__ZN9Scripting11UnityEngine12Experimental10PlayerLoop11EarlyUpdate13XRUpdateProxy12CleanupProxyEv
2858:__ZN9Scripting11UnityEngine12Experimental10PlayerLoop11EarlyUpdate34UpdateTextureStreamingManagerProxy9InitProxyEv
2859:__ZN9Scripting11UnityEngine12Experimental10PlayerLoop11EarlyUpdate34UpdateTextureStreamingManagerProxy12CleanupProxyEv
2860:__ZN9Scripting11UnityEngine12Experimental10PlayerLoop11EarlyUpdate27UpdateStreamingManagerProxy9InitProxyEv
2861:__ZN9Scripting11UnityEngine12Experimental10PlayerLoop11EarlyUpdate27UpdateStreamingManagerProxy12CleanupProxyEv
2862:__ZN9Scripting11UnityEngine12Experimental10PlayerLoop11EarlyUpdate21UpdatePreloadingProxy9InitProxyEv
2863:__ZN9Scripting11UnityEngine12Experimental10PlayerLoop11EarlyUpdate21UpdatePreloadingProxy12CleanupProxyEv
2864:__ZN9Scripting11UnityEngine12Experimental10PlayerLoop11EarlyUpdate27UpdateMainGameViewRectProxy9InitProxyEv
2865:__ZN9Scripting11UnityEngine12Experimental10PlayerLoop11EarlyUpdate27UpdateMainGameViewRectProxy12CleanupProxyEv
2866:__ZN9Scripting11UnityEngine12Experimental10PlayerLoop11EarlyUpdate17UpdateKinectProxy9InitProxyEv
2867:__ZN9Scripting11UnityEngine12Experimental10PlayerLoop11EarlyUpdate17UpdateKinectProxy12CleanupProxyEv
2868:__ZN9Scripting11UnityEngine12Experimental10PlayerLoop11EarlyUpdate23UpdateInputManagerProxy9InitProxyEv
2869:__ZN9Scripting11UnityEngine12Experimental10PlayerLoop11EarlyUpdate23UpdateInputManagerProxy12CleanupProxyEv
2870:__ZN9Scripting11UnityEngine12Experimental10PlayerLoop11EarlyUpdate30UpdateCanvasRectTransformProxy9InitProxyEv
2871:__ZN9Scripting11UnityEngine12Experimental10PlayerLoop11EarlyUpdate30UpdateCanvasRectTransformProxy12CleanupProxyEv
2872:__ZN9Scripting11UnityEngine12Experimental10PlayerLoop11EarlyUpdate31UpdateAsyncReadbackManagerProxy9InitProxyEv
2873:__ZN9Scripting11UnityEngine12Experimental10PlayerLoop11EarlyUpdate31UpdateAsyncReadbackManagerProxy12CleanupProxyEv
2874:__ZN9Scripting11UnityEngine12Experimental10PlayerLoop11EarlyUpdate29UpdateAllUnityWebStreamsProxy9InitProxyEv
2875:__ZN9Scripting11UnityEngine12Experimental10PlayerLoop11EarlyUpdate29UpdateAllUnityWebStreamsProxy12CleanupProxyEv
2876:__ZN9Scripting11UnityEngine12Experimental10PlayerLoop11EarlyUpdate26UnityWebRequestUpdateProxy9InitProxyEv
2877:__ZN9Scripting11UnityEngine12Experimental10PlayerLoop11EarlyUpdate26UnityWebRequestUpdateProxy12CleanupProxyEv
2878:__ZN9Scripting11UnityEngine12Experimental10PlayerLoop11EarlyUpdate16TangoUpdateProxy9InitProxyEv
2879:__ZN9Scripting11UnityEngine12Experimental10PlayerLoop11EarlyUpdate16TangoUpdateProxy12CleanupProxyEv
2880:__ZN9Scripting11UnityEngine12Experimental10PlayerLoop11EarlyUpdate29SpriteAtlasManagerUpdateProxy9InitProxyEv
2881:__ZN9Scripting11UnityEngine12Experimental10PlayerLoop11EarlyUpdate29SpriteAtlasManagerUpdateProxy12CleanupProxyEv
2882:__ZN9Scripting11UnityEngine12Experimental10PlayerLoop11EarlyUpdate33ScriptRunDelayedStartupFrameProxy9InitProxyEv
2883:__ZN9Scripting11UnityEngine12Experimental10PlayerLoop11EarlyUpdate33ScriptRunDelayedStartupFrameProxy12CleanupProxyEv
2884:__ZN9Scripting11UnityEngine12Experimental10PlayerLoop11EarlyUpdate32ResetFrameStatsAfterPresentProxy9InitProxyEv
2885:__ZN9Scripting11UnityEngine12Experimental10PlayerLoop11EarlyUpdate32ResetFrameStatsAfterPresentProxy12CleanupProxyEv
2886:__ZN9Scripting11UnityEngine12Experimental10PlayerLoop11EarlyUpdate28RendererNotifyInvisibleProxy9InitProxyEv
2887:__ZN9Scripting11UnityEngine12Experimental10PlayerLoop11EarlyUpdate28RendererNotifyInvisibleProxy12CleanupProxyEv
2888:__ZN9Scripting11UnityEngine12Experimental10PlayerLoop11EarlyUpdate23ProfilerStartFrameProxy9InitProxyEv
2889:__ZN9Scripting11UnityEngine12Experimental10PlayerLoop11EarlyUpdate23ProfilerStartFrameProxy12CleanupProxyEv
2890:__ZN9Scripting11UnityEngine12Experimental10PlayerLoop11EarlyUpdate23ProcessRemoteInputProxy9InitProxyEv
2891:__ZN9Scripting11UnityEngine12Experimental10PlayerLoop11EarlyUpdate23ProcessRemoteInputProxy12CleanupProxyEv
2892:__ZN9Scripting11UnityEngine12Experimental10PlayerLoop11EarlyUpdate25ProcessMouseInWindowProxy9InitProxyEv
2893:__ZN9Scripting11UnityEngine12Experimental10PlayerLoop11EarlyUpdate25ProcessMouseInWindowProxy12CleanupProxyEv
2894:__ZN9Scripting11UnityEngine12Experimental10PlayerLoop11EarlyUpdate24PresentBeforeUpdateProxy9InitProxyEv
2895:__ZN9Scripting11UnityEngine12Experimental10PlayerLoop11EarlyUpdate24PresentBeforeUpdateProxy12CleanupProxyEv
2896:__ZN9Scripting11UnityEngine12Experimental10PlayerLoop11EarlyUpdate25PollPlayerConnectionProxy9InitProxyEv
2897:__ZN9Scripting11UnityEngine12Experimental10PlayerLoop11EarlyUpdate25PollPlayerConnectionProxy12CleanupProxyEv
2898:__ZN9Scripting11UnityEngine12Experimental10PlayerLoop11EarlyUpdate29PollHtcsPlayerConnectionProxy9InitProxyEv
2899:__ZN9Scripting11UnityEngine12Experimental10PlayerLoop11EarlyUpdate29PollHtcsPlayerConnectionProxy12CleanupProxyEv
2900:__ZN9Scripting11UnityEngine12Experimental10PlayerLoop11EarlyUpdate28PlayerCleanupCachedDataProxy9InitProxyEv
2901:__ZN9Scripting11UnityEngine12Experimental10PlayerLoop11EarlyUpdate28PlayerCleanupCachedDataProxy12CleanupProxyEv
2902:__ZN9Scripting11UnityEngine12Experimental10PlayerLoop11EarlyUpdate46PhysicsResetInterpolatedTransformPositionProxy9InitProxyEv
2903:__ZN9Scripting11UnityEngine12Experimental10PlayerLoop11EarlyUpdate46PhysicsResetInterpolatedTransformPositionProxy12CleanupProxyEv
2904:__ZN9Scripting11UnityEngine12Experimental10PlayerLoop11EarlyUpdate31PerformanceAnalyticsUpdateProxy9InitProxyEv
2905:__ZN9Scripting11UnityEngine12Experimental10PlayerLoop11EarlyUpdate31PerformanceAnalyticsUpdateProxy12CleanupProxyEv
2906:__ZN9Scripting11UnityEngine12Experimental10PlayerLoop11EarlyUpdate17GpuTimestampProxy9InitProxyEv
2907:__ZN9Scripting11UnityEngine12Experimental10PlayerLoop11EarlyUpdate17GpuTimestampProxy12CleanupProxyEv
2908:__ZN9Scripting11UnityEngine12Experimental10PlayerLoop11EarlyUpdate26ExecuteMainThreadJobsProxy9InitProxyEv
2909:__ZN9Scripting11UnityEngine12Experimental10PlayerLoop11EarlyUpdate26ExecuteMainThreadJobsProxy12CleanupProxyEv
2910:__ZN9Scripting11UnityEngine12Experimental10PlayerLoop11EarlyUpdate29DispatchEventQueueEventsProxy9InitProxyEv
2911:__ZN9Scripting11UnityEngine12Experimental10PlayerLoop11EarlyUpdate29DispatchEventQueueEventsProxy12CleanupProxyEv
2912:__ZN9Scripting11UnityEngine12Experimental10PlayerLoop11EarlyUpdate23DirectorSampleTimeProxy9InitProxyEv
2913:__ZN9Scripting11UnityEngine12Experimental10PlayerLoop11EarlyUpdate23DirectorSampleTimeProxy12CleanupProxyEv
2914:__ZN9Scripting11UnityEngine12Experimental10PlayerLoop11EarlyUpdate29DeliverIosPlatformEventsProxy9InitProxyEv
2915:__ZN9Scripting11UnityEngine12Experimental10PlayerLoop11EarlyUpdate29DeliverIosPlatformEventsProxy12CleanupProxyEv
2916:__ZN9Scripting11UnityEngine12Experimental10PlayerLoop11EarlyUpdate15ClearLinesProxy9InitProxyEv
2917:__ZN9Scripting11UnityEngine12Experimental10PlayerLoop11EarlyUpdate15ClearLinesProxy12CleanupProxyEv
2918:__ZN9Scripting11UnityEngine12Experimental10PlayerLoop11EarlyUpdate31ClearIntermediateRenderersProxy9InitProxyEv
2919:__ZN9Scripting11UnityEngine12Experimental10PlayerLoop11EarlyUpdate31ClearIntermediateRenderersProxy12CleanupProxyEv
2920:__ZN9Scripting11UnityEngine12Experimental10PlayerLoop11EarlyUpdate29AnalyticsCoreStatsUpdateProxy9InitProxyEv
2921:__ZN9Scripting11UnityEngine12Experimental10PlayerLoop11EarlyUpdate29AnalyticsCoreStatsUpdateProxy12CleanupProxyEv
2922:__ZN9Scripting11UnityEngine12Experimental10PlayerLoop16EarlyUpdateProxy9InitProxyEv
2923:__ZN9Scripting11UnityEngine12Experimental10PlayerLoop16EarlyUpdateProxy12CleanupProxyEv
2924:__ZN9Scripting11UnityEngine12Experimental9Playables26TexturePlayableOutputProxy9InitProxyEv
2925:__ZN9Scripting11UnityEngine12Experimental9Playables26TexturePlayableOutputProxy12CleanupProxyEv
2926:__ZN9Scripting11UnityEngine12Experimental9Playables25TextureMixerPlayableProxy9InitProxyEv
2927:__ZN9Scripting11UnityEngine12Experimental9Playables25TextureMixerPlayableProxy12CleanupProxyEv
2928:__ZN9Scripting11UnityEngine12Experimental9Playables27MaterialEffectPlayableProxy9InitProxyEv
2929:__ZN9Scripting11UnityEngine12Experimental9Playables27MaterialEffectPlayableProxy12CleanupProxyEv
2930:__ZN9Scripting11UnityEngine12Experimental9Playables19CameraPlayableProxy9InitProxyEv
2931:__ZN9Scripting11UnityEngine12Experimental9Playables19CameraPlayableProxy12CleanupProxyEv
2932:__ZN9Scripting11UnityEngine12Experimental8LowLevel29PlayerLoopSystemInternalProxy9InitProxyEv
2933:__ZN9Scripting11UnityEngine12Experimental8LowLevel29PlayerLoopSystemInternalProxy12CleanupProxyEv
2934:__ZN9Scripting11UnityEngine12Experimental18GlobalIllumination17LightmappingProxy9InitProxyEv
2935:__ZN9Scripting11UnityEngine12Experimental18GlobalIllumination17LightmappingProxy12CleanupProxyEv
2936:__ZN9Scripting11UnityEngine12Experimental18GlobalIllumination16LightDataGIProxy9InitProxyEv
2937:__ZN9Scripting11UnityEngine12Experimental18GlobalIllumination16LightDataGIProxy12CleanupProxyEv
2938:__ZN9Scripting11UnityEngine22ExecuteInEditModeProxy9InitProxyEv
2939:__ZN9Scripting11UnityEngine22ExecuteInEditModeProxy12CleanupProxyEv
2940:__ZN9Scripting11UnityEngine18ExecuteAlwaysProxy9InitProxyEv
2941:__ZN9Scripting11UnityEngine18ExecuteAlwaysProxy12CleanupProxyEv
2942:__ZN9Scripting11UnityEngine31ExcludeFromPresetAttributeProxy9InitProxyEv
2943:__ZN9Scripting11UnityEngine31ExcludeFromPresetAttributeProxy12CleanupProxyEv
2944:__ZN9Scripting11UnityEngine38ExcludeFromObjectFactoryAttributeProxy9InitProxyEv
2945:__ZN9Scripting11UnityEngine38ExcludeFromObjectFactoryAttributeProxy12CleanupProxyEv
2946:__ZN9Scripting11UnityEngine6Events17UnityEvent_4Proxy9InitProxyEv
2947:__ZN9Scripting11UnityEngine6Events17UnityEvent_4Proxy12CleanupProxyEv
2948:__ZN9Scripting11UnityEngine6Events17UnityEvent_3Proxy9InitProxyEv
2949:__ZN9Scripting11UnityEngine6Events17UnityEvent_3Proxy12CleanupProxyEv
2950:__ZN9Scripting11UnityEngine6Events17UnityEvent_2Proxy9InitProxyEv
2951:__ZN9Scripting11UnityEngine6Events17UnityEvent_2Proxy12CleanupProxyEv
2952:__ZN9Scripting11UnityEngine6Events17UnityEvent_1Proxy9InitProxyEv
2953:__ZN9Scripting11UnityEngine6Events17UnityEvent_1Proxy12CleanupProxyEv
2954:__ZN9Scripting11UnityEngine6Events15UnityEventProxy9InitProxyEv
2955:__ZN9Scripting11UnityEngine6Events15UnityEventProxy12CleanupProxyEv
2956:__ZN9Scripting11UnityEngine6Events19UnityEventBaseProxy9InitProxyEv
2957:__ZN9Scripting11UnityEngine6Events19UnityEventBaseProxy12CleanupProxyEv
2958:__ZN9Scripting11UnityEngine13EnumInfoProxy9InitProxyEv
2959:__ZN9Scripting11UnityEngine13EnumInfoProxy12CleanupProxyEv
2960:__ZN9Scripting11UnityEngine12DisplayProxy9InitProxyEv
2961:__ZN9Scripting11UnityEngine12DisplayProxy12CleanupProxyEv
2962:__ZN9Scripting11UnityEngine21DiagnosticSwitchProxy9InitProxyEv
2963:__ZN9Scripting11UnityEngine21DiagnosticSwitchProxy12CleanupProxyEv
2964:__ZN9Scripting11UnityEngine26DefaultExecutionOrderProxy9InitProxyEv
2965:__ZN9Scripting11UnityEngine26DefaultExecutionOrderProxy12CleanupProxyEv
2966:__ZN9Scripting11UnityEngine34CustomRenderTextureUpdateZoneProxy9InitProxyEv
2967:__ZN9Scripting11UnityEngine34CustomRenderTextureUpdateZoneProxy12CleanupProxyEv
2968:__ZN9Scripting11UnityEngine24CustomRenderTextureProxy9InitProxyEv
2969:__ZN9Scripting11UnityEngine24CustomRenderTextureProxy12CleanupProxyEv
2970:__ZN9Scripting11UnityEngine18RenderTextureProxy9InitProxyEv
2971:__ZN9Scripting11UnityEngine18RenderTextureProxy12CleanupProxyEv
2972:__ZN9Scripting11UnityEngine17CullingGroupProxy9InitProxyEv
2973:__ZN9Scripting11UnityEngine17CullingGroupProxy12CleanupProxyEv
2974:__ZN9Scripting11UnityEngine17CubemapArrayProxy9InitProxyEv
2975:__ZN9Scripting11UnityEngine17CubemapArrayProxy12CleanupProxyEv
2976:__ZN9Scripting11UnityEngine12CubemapProxy9InitProxyEv
2977:__ZN9Scripting11UnityEngine12CubemapProxy12CleanupProxyEv
2978:__ZN9Scripting11UnityEngine12TextureProxy9InitProxyEv
2979:__ZN9Scripting11UnityEngine12TextureProxy12CleanupProxyEv
2980:__ZN9Scripting11UnityEngine14CoroutineProxy9InitProxyEv
2981:__ZN9Scripting11UnityEngine14CoroutineProxy12CleanupProxyEv
2982:__ZN9Scripting11UnityEngine16ContextMenuProxy9InitProxyEv
2983:__ZN9Scripting11UnityEngine16ContextMenuProxy12CleanupProxyEv
2984:__ZN9Scripting11UnityEngine18ComputeShaderProxy9InitProxyEv
2985:__ZN9Scripting11UnityEngine18ComputeShaderProxy12CleanupProxyEv
2986:__ZN9Scripting11UnityEngine18ComputeBufferProxy9InitProxyEv
2987:__ZN9Scripting11UnityEngine18ComputeBufferProxy12CleanupProxyEv
2988:__ZN9Scripting11UnityEngine15ColorGamutProxy9InitProxyEv
2989:__ZN9Scripting11UnityEngine15ColorGamutProxy12CleanupProxyEv
2990:__ZN9Scripting11UnityEngine12Color32Proxy9InitProxyEv
2991:__ZN9Scripting11UnityEngine12Color32Proxy12CleanupProxyEv
2992:__ZN9Scripting11UnityEngine10ColorProxy9InitProxyEv
2993:__ZN9Scripting11UnityEngine10ColorProxy12CleanupProxyEv
2994:__ZN9Scripting11UnityEngine28ClassLibraryInitializerProxy9InitProxyEv
2995:__ZN9Scripting11UnityEngine28ClassLibraryInitializerProxy12CleanupProxyEv
2996:__ZN9Scripting11UnityEngine11CameraProxy9InitProxyEv
2997:__ZN9Scripting11UnityEngine11CameraProxy12CleanupProxyEv
2998:__ZN9Scripting11UnityEngine15CacheIndexProxy9InitProxyEv
2999:__ZN9Scripting11UnityEngine15CacheIndexProxy12CleanupProxyEv
3000:__ZN9Scripting11UnityEngine22CachedAssetBundleProxy9InitProxyEv
3001:__ZN9Scripting11UnityEngine22CachedAssetBundleProxy12CleanupProxyEv
3002:__ZN9Scripting11UnityEngine14BoundsIntProxy9InitProxyEv
3003:__ZN9Scripting11UnityEngine14BoundsIntProxy12CleanupProxyEv
3004:__ZN9Scripting11UnityEngine11BoundsProxy9InitProxyEv
3005:__ZN9Scripting11UnityEngine11BoundsProxy12CleanupProxyEv
3006:__ZN9Scripting11UnityEngine12Vector3Proxy9InitProxyEv
3007:__ZN9Scripting11UnityEngine12Vector3Proxy12CleanupProxyEv
3008:__ZN9Scripting11UnityEngine19BootConfigDataProxy9InitProxyEv
3009:__ZN9Scripting11UnityEngine19BootConfigDataProxy12CleanupProxyEv
3010:__ZN9Scripting11UnityEngine15BoneWeightProxy9InitProxyEv
3011:__ZN9Scripting11UnityEngine15BoneWeightProxy12CleanupProxyEv
3012:__ZN9Scripting11UnityEngine14BehaviourProxy9InitProxyEv
3013:__ZN9Scripting11UnityEngine14BehaviourProxy12CleanupProxyEv
3014:__ZN9Scripting11UnityEngine14ComponentProxy9InitProxyEv
3015:__ZN9Scripting11UnityEngine14ComponentProxy12CleanupProxyEv
3016:__ZN9Scripting11UnityEngine11ObjectProxy9InitProxyEv
3017:__ZN9Scripting11UnityEngine11ObjectProxy12CleanupProxyEv
3018:__Z35scripting_class_get_field_from_name17ScriptingClassPtrPKc
3019:__ZN9Scripting11UnityEngine26AttributeHelperEngineProxy9InitProxyEv
3020:__ZN9Scripting11UnityEngine26AttributeHelperEngineProxy12CleanupProxyEv
3021:__ZN9Scripting11UnityEngine19AsyncOperationProxy9InitProxyEv
3022:__ZN9Scripting11UnityEngine19AsyncOperationProxy12CleanupProxyEv
3023:__ZN9Scripting11UnityEngine21YieldInstructionProxy9InitProxyEv
3024:__ZN9Scripting11UnityEngine21YieldInstructionProxy12CleanupProxyEv
3025:__ZN9Scripting11UnityEngine29AssemblyIsEditorAssemblyProxy9InitProxyEv
3026:__ZN9Scripting11UnityEngine29AssemblyIsEditorAssemblyProxy12CleanupProxyEv
3027:__ZN9Scripting11UnityEngine16ApplicationProxy9InitProxyEv
3028:__ZN9Scripting11UnityEngine16ApplicationProxy12CleanupProxyEv
3029:__ZN9Scripting11UnityEngine19AnimationCurveProxy9InitProxyEv
3030:__ZN9Scripting11UnityEngine19AnimationCurveProxy12CleanupProxyEv
3031:__ZN9Scripting11UnityEngine7Android15PermissionProxy9InitProxyEv
3032:__ZN9Scripting11UnityEngine7Android15PermissionProxy12CleanupProxyEv
3033:__ZN9Scripting5Unity9Profiling14ProfilerMarker14AutoScopeProxy9InitProxyEv
3034:__ZN9Scripting5Unity9Profiling14ProfilerMarker14AutoScopeProxy12CleanupProxyEv
3035:__ZN9Scripting5Unity9Profiling19ProfilerMarkerProxy9InitProxyEv
3036:__ZN9Scripting5Unity9Profiling19ProfilerMarkerProxy12CleanupProxyEv
3037:__ZN9Scripting5Unity11Collections23WriteOnlyAttributeProxy9InitProxyEv
3038:__ZN9Scripting5Unity11Collections23WriteOnlyAttributeProxy12CleanupProxyEv
3039:__ZN9Scripting5Unity11Collections22ReadOnlyAttributeProxy9InitProxyEv
3040:__ZN9Scripting5Unity11Collections22ReadOnlyAttributeProxy12CleanupProxyEv
3041:__ZN9Scripting5Unity11Collections44NativeMatchesParallelForLengthAttributeProxy9InitProxyEv
3042:__ZN9Scripting5Unity11Collections44NativeMatchesParallelForLengthAttributeProxy12CleanupProxyEv
3043:__ZN9Scripting5Unity11Collections31NativeFixedLengthAttributeProxy9InitProxyEv
3044:__ZN9Scripting5Unity11Collections31NativeFixedLengthAttributeProxy12CleanupProxyEv
3045:__ZN9Scripting5Unity11Collections49NativeDisableParallelForRestrictionAttributeProxy9InitProxyEv
3046:__ZN9Scripting5Unity11Collections49NativeDisableParallelForRestrictionAttributeProxy12CleanupProxyEv
3047:__ZN9Scripting5Unity11Collections8LowLevel6Unsafe34NativeSetThreadIndexAttributeProxy9InitProxyEv
3048:__ZN9Scripting5Unity11Collections8LowLevel6Unsafe34NativeSetThreadIndexAttributeProxy12CleanupProxyEv
3049:__ZN9Scripting5Unity11Collections8LowLevel6Unsafe48NativeSetClassTypeToNullOnScheduleAttributeProxy9InitProxyEv
3050:__ZN9Scripting5Unity11Collections8LowLevel6Unsafe48NativeSetClassTypeToNullOnScheduleAttributeProxy12CleanupProxyEv
3051:__ZN9Scripting5Unity11Collections8LowLevel6Unsafe47NativeDisableUnsafePtrRestrictionAttributeProxy9InitProxyEv
3052:__ZN9Scripting5Unity11Collections8LowLevel6Unsafe47NativeDisableUnsafePtrRestrictionAttributeProxy12CleanupProxyEv
3053:__ZN9Scripting5Unity11Collections8LowLevel6Unsafe53NativeDisableContainerSafetyRestrictionAttributeProxy9InitProxyEv
3054:__ZN9Scripting5Unity11Collections8LowLevel6Unsafe53NativeDisableContainerSafetyRestrictionAttributeProxy12CleanupProxyEv
3055:__ZN9Scripting5Unity11Collections8LowLevel6Unsafe59NativeContainerSupportsMinMaxWriteRestrictionAttributeProxy9InitProxyEv
3056:__ZN9Scripting5Unity11Collections8LowLevel6Unsafe59NativeContainerSupportsMinMaxWriteRestrictionAttributeProxy12CleanupProxyEv
3057:__ZN9Scripting5Unity11Collections8LowLevel6Unsafe54NativeContainerSupportsDeferredConvertListToArrayProxy9InitProxyEv
3058:__ZN9Scripting5Unity11Collections8LowLevel6Unsafe54NativeContainerSupportsDeferredConvertListToArrayProxy12CleanupProxyEv
3059:__ZN9Scripting5Unity11Collections8LowLevel6Unsafe62NativeContainerSupportsDeallocateOnJobCompletionAttributeProxy9InitProxyEv
3060:__ZN9Scripting5Unity11Collections8LowLevel6Unsafe62NativeContainerSupportsDeallocateOnJobCompletionAttributeProxy12CleanupProxyEv
3061:__ZN9Scripting5Unity11Collections8LowLevel6Unsafe45NativeContainerNeedsThreadIndexAttributeProxy9InitProxyEv
3062:__ZN9Scripting5Unity11Collections8LowLevel6Unsafe45NativeContainerNeedsThreadIndexAttributeProxy12CleanupProxyEv
3063:__ZN9Scripting5Unity11Collections8LowLevel6Unsafe39NativeContainerIsReadOnlyAttributeProxy9InitProxyEv
3064:__ZN9Scripting5Unity11Collections8LowLevel6Unsafe39NativeContainerIsReadOnlyAttributeProxy12CleanupProxyEv
3065:__ZN9Scripting5Unity11Collections8LowLevel6Unsafe46NativeContainerIsAtomicWriteOnlyAttributeProxy9InitProxyEv
3066:__ZN9Scripting5Unity11Collections8LowLevel6Unsafe46NativeContainerIsAtomicWriteOnlyAttributeProxy12CleanupProxyEv
3067:__ZN9Scripting5Unity11Collections8LowLevel6Unsafe29NativeContainerAttributeProxy9InitProxyEv
3068:__ZN9Scripting5Unity11Collections8LowLevel6Unsafe29NativeContainerAttributeProxy12CleanupProxyEv
3069:__ZN9Scripting5Unity11Collections39DeallocateOnJobCompletionAttributeProxy9InitProxyEv
3070:__ZN9Scripting5Unity11Collections39DeallocateOnJobCompletionAttributeProxy12CleanupProxyEv
3071:__ZN9Scripting5Unity11Collections14AllocatorProxy9InitProxyEv
3072:__ZN9Scripting5Unity11Collections14AllocatorProxy12CleanupProxyEv
3073:__ZN22LocalFileSystemHandler18IsAbsoluteFilePathEPKc
3074:__ZN22LocalFileSystemHandler19InitializeFileEntryER13FileEntryData
3075:__ZN22LocalFileSystemHandler4NameEv
3076:__ZNK17FileSystemHandler10IsReadOnlyERK13FileEntryData
3077:__ZN17FileSystemHandler11HasFastHashERK13FileEntryDataR7Hash128
3078:__ZN17FileSystemHandler11MoveToTrashER13FileEntryData
3079:__ZN17FileSystemHandler11SetReadOnlyER13FileEntryDatab
3080:__ZNK17FileSystemHandler12GetAssetGUIDERK13FileEntryData
3081:__ZN22LocalFileSystemHandler9MakeLocalER13FileEntryDatab
3082:__ZNK22LocalFileSystemHandler7ToLocalERK13FileEntryDataRN4core12basic_stringIcNS3_20StringStorageDefaultIcEEEERyS9_
3083:__ZNK17FileSystemHandler31CreateFileWithContentAtomicallyERK13FileEntryDataPKvy
3084:__ZNK22LocalFileSystemHandler13ToLogicalPathERKN4core12basic_stringIcNS0_20StringStorageDefaultIcEEEE
3085:__ZNK22LocalFileSystemHandler17GetExecutablePathEv
3086:__Z14AppendPathNameRKN4core12basic_stringIcNS_20StringStorageDefaultIcEEEES5_
3087:__ZL18AppendPathNameImplRKN4core12basic_stringIcNS_20StringStorageDefaultIcEEEES5_cRS3_
3088:__ZN18ScriptingArguments8AddArrayE17ScriptingArrayPtr
3089:__ZN18ScriptingArguments6AddIntEi
3090:__ZN18ScriptingArguments8AddInt64Ex
3091:__ZN12HandlerChainD2Ev
3092:__ZN12HandlerChainD0Ev
3093:__ZN12HandlerChain4OpenER13FileEntryData14FilePermission16FileAutoBehavior
3094:__ZN12HandlerChain4ReadER13FileEntryDatayyPvPy
3095:__ZN12HandlerChain4ReadER13FileEntryDatayPvPy
3096:__ZN12HandlerChain4SeekER13FileEntryDatax10FileOrigin
3097:__ZNK12HandlerChain8PositionERK13FileEntryData
3098:__ZN12HandlerChain9SetLengthER13FileEntryDatay
3099:__ZNK12HandlerChain4SizeERK13FileEntryData
3100:__ZNK12HandlerChain9CanHandleEPKc
3101:__ZN12HandlerChain10ToAbsoluteEPKc
3102:__ZN12HandlerChain18IsAbsoluteFilePathEPKc
3103:__ZN12HandlerChain4NameEv
3104:__ZNK12HandlerChain6ParentERK13FileEntryDataRN4core12basic_stringIcNS3_20StringStorageDefaultIcEEEE
3105:__ZNK12HandlerChain8FilenameERK13FileEntryData
3106:__ZNK12HandlerChain5IsDirERK13FileEntryData
3107:__ZNK12HandlerChain8IsHiddenERK13FileEntryData
3108:__ZNK12HandlerChain9IsSymLinkERK13FileEntryData
3109:__ZNK12HandlerChain12LastModifiedERK13FileEntryData
3110:__ZN12HandlerChain8IsLockedERK13FileEntryData
3111:__ZN12HandlerChain11HasFastHashERK13FileEntryDataR7Hash128
3112:__ZN12HandlerChain8SetFlagsER13FileEntryDatajj
3113:__ZN12HandlerChain12CreateAsFileER13FileEntryData
3114:__ZN12HandlerChain11CreateAsDirER13FileEntryData
3115:__ZN12HandlerChain6DeleteER13FileEntryDatab
3116:__ZN12HandlerChain11MoveToTrashER13FileEntryData
3117:__ZNK12HandlerChain6TargetERK13FileEntryDataR15FileSystemEntry
3118:__ZN12HandlerChain4LockER13FileEntryData12FileLockMode
3119:__ZN12HandlerChain4CopyER13FileEntryDataS1_
3120:__ZN12HandlerChain10AtomicMoveER13FileEntryDataS1_
3121:__ZNK12HandlerChain12GetAssetGUIDERK13FileEntryData
3122:__ZN12HandlerChain9MakeLocalER13FileEntryDatab
3123:__ZNK12HandlerChain7ToLocalERK13FileEntryDataRN4core12basic_stringIcNS3_20StringStorageDefaultIcEEEERyS9_
3124:__ZNK12HandlerChain9EnumerateEPKcP19dynamic_block_arrayI13FileEntryInfoLj32EEbPPv19FileEnumerationFlag
3125:__ZNK12HandlerChain6ExistsERK13FileEntryData
3126:__ZN20LocalFileSystemPosixD2Ev
3127:__ZN20LocalFileSystemPosixD0Ev
3128:__ZN20LocalFileSystemPosix4OpenER13FileEntryData14FilePermission16FileAutoBehavior
3129:__ZN20LocalFileSystemPosix4ReadER13FileEntryDatayyPvPy
3130:__ZN20LocalFileSystemPosix4ReadER13FileEntryDatayPvPy
3131:__ZN20LocalFileSystemPosix5WriteER13FileEntryDatayyPvPy
3132:__ZN20LocalFileSystemPosix5WriteER13FileEntryDatayPvPy
3133:__ZN20LocalFileSystemPosix5CloseER13FileEntryData
3134:__ZN20LocalFileSystemPosix4SeekER13FileEntryDatax10FileOrigin
3135:__ZNK20LocalFileSystemPosix8PositionERK13FileEntryData
3136:__ZN20LocalFileSystemPosix9SetLengthER13FileEntryDatay
3137:__ZNK20LocalFileSystemPosix4SizeERK13FileEntryData
3138:__ZN20LocalFileSystemPosix10ToAbsoluteEPKc
3139:__ZNK20LocalFileSystemPosix6ParentERK13FileEntryDataRN4core12basic_stringIcNS3_20StringStorageDefaultIcEEEE
3140:__ZNK20LocalFileSystemPosix8FilenameERK13FileEntryData
3141:__ZNK20LocalFileSystemPosix5IsDirERK13FileEntryData
3142:__ZNK20LocalFileSystemPosix9IsSymLinkERK13FileEntryData
3143:__ZNK20LocalFileSystemPosix10IsReadOnlyERK13FileEntryData
3144:__ZNK20LocalFileSystemPosix12LastModifiedERK13FileEntryData
3145:__ZN20LocalFileSystemPosix8IsLockedERK13FileEntryData
3146:__ZN20LocalFileSystemPosix8SetFlagsER13FileEntryDatajj
3147:__ZN20LocalFileSystemPosix12CreateAsFileER13FileEntryData
3148:__ZN20LocalFileSystemPosix11CreateAsDirER13FileEntryData
3149:__ZN20LocalFileSystemPosix6DeleteER13FileEntryDatab
3150:__ZNK20LocalFileSystemPosix6TargetERK13FileEntryDataR15FileSystemEntry
3151:__ZN20LocalFileSystemPosix4LockER13FileEntryData12FileLockMode
3152:__ZN20LocalFileSystemPosix11SetReadOnlyER13FileEntryDatab
3153:__ZN20LocalFileSystemPosix4CopyER13FileEntryDataS1_
3154:__ZN20LocalFileSystemPosix10AtomicMoveER13FileEntryDataS1_
3155:__ZNK20LocalFileSystemPosix9EnumerateEPKcP19dynamic_block_arrayI13FileEntryInfoLj32EEbPPv19FileEnumerationFlag
3156:__ZN20LocalFileSystemPosix5TouchER13FileEntryData
3157:__ZNK20LocalFileSystemPosix6ExistsERK13FileEntryData
3158:__ZNK20LocalFileSystemPosix18GetApplicationPathEv
3159:__ZNK20LocalFileSystemPosix20GetApplicationFolderEv
3160:__ZNK20LocalFileSystemPosix25GetApplicationManagedPathEv
3161:__ZNK20LocalFileSystemPosix26GetApplicationContentsPathEv
3162:__ZNK20LocalFileSystemPosix21GetUserAppCacheFolderEv
3163:__ZNK20LocalFileSystemPosix20GetUserAppDataFolderEv
3164:__ZNK20LocalFileSystemPosix19GetUserConfigFolderEv
3165:__ZNK20LocalFileSystemPosix21GetAvailableDiskSpaceEPKcRy
3166:__Z18IsDirectoryCreatedRKN4core12basic_stringIcNS_20StringStorageDefaultIcEEEE
3167:__ZNK15FileSystemEntry12FolderExistsEv
3168:__Z15CreateDirectoryRKN4core12basic_stringIcNS_20StringStorageDefaultIcEEEE
3169:__ZNK10FileSystem16CurrentDirectoryEv
3170:__Z27DeleteLastPathNameComponentRKN4core12basic_stringIcNS_20StringStorageDefaultIcEEEE
3171:__ZL31DeleteLastPathNameComponentImplRKN4core12basic_stringIcNS_20StringStorageDefaultIcEEEEPKc
3172:__Z8EndsWithPKcjS0_j
3173:__Z23EndsWithCaseInsensitivePKcjS0_j
3174:__ZN19dynamic_block_arrayI13FileEntryInfoLj32EE4growEj
3175:__ZN13dynamic_arrayI13FileEntryInfoLj0EE4growEv
3176:__ZN12FileAccessor4OpenEPKc14FilePermission16FileAutoBehavior
3177:__ZNK12FileAccessor4SizeEv
3178:__ZN12FileAccessor4ReadEyPvPy
3179:__ZN12FileAccessor5WriteEyPKvPy
3180:__ZN19dynamic_block_arrayI13FileEntryInfoLj32EED2Ev
3181:__Z22IsFileOrDirectoryInUseRKN4core12basic_stringIcNS_20StringStorageDefaultIcEEEE
3182:__ZNSt3__26__treeIN4core12basic_stringIcNS1_20StringStorageDefaultIcEEEENS_4lessIS5_EENS_9allocatorIS5_EEE7destroyEPNS_11__tree_nodeIS5_PvEE
3183:__ZN13FileEntryDataC2ERKS_
3184:__Z23GetFolderContentsAtPathRKN4core12basic_stringIcNS_20StringStorageDefaultIcEEEE19FileEnumerationFlagRNSt3__23setIS3_NS7_4lessIS3_EENS7_9allocatorIS3_EEEE22FolderContentsPathModeS5_
3185:__ZNK10FileSystem9EnumerateEPKcP19dynamic_block_arrayI13FileEntryInfoLj32EEb19FileEnumerationFlag
3186:__ZL33FileEntryInfoListToFolderContentsRKN4core12basic_stringIcNS_20StringStorageDefaultIcEEEERK19dynamic_block_arrayI13FileEntryInfoLj32EERNSt3__23setIS3_NSB_4lessIS3_EENSB_9allocatorIS3_EEEE
3187:__ZL41FileEntryInfoListToFolderContentsAbsoluteRK19dynamic_block_arrayI13FileEntryInfoLj32EERNSt3__23setIN4core12basic_stringIcNS6_20StringStorageDefaultIcEEEENS4_4lessISA_EENS4_9allocatorISA_EEEE
3188:__ZNSt3__26__treeIN4core12basic_stringIcNS1_20StringStorageDefaultIcEEEENS_4lessIS5_EENS_9allocatorIS5_EEE25__emplace_unique_key_argsIS5_JS5_EEENS_4pairINS_15__tree_iteratorIS5_PNS_11__tree_nodeIS5_PvEEiEEbEERKT_DpOT0_
3189:__Z14SkipPathPrefixPKcS0_jb
3190:__Z7StrNCmpPKcS0_j
3191:__ZN11TimeManagerD2Ev
3192:__ZN11TimeManagerD0Ev
3193:__ZN11GameManager17MainThreadCleanupEv
3194:__ZN11TimeManager13AwakeFromLoadE17AwakeFromLoadMode
3195:__ZN11TimeManager16CheckConsistencyEv
3196:__ZN11TimeManager5ResetEv
3197:__ZNK11TimeManager22GetTypeVirtualInternalEv
3198:__ZN6Object24SetCachedScriptingObjectE18ScriptingObjectPtr
3199:__ZN11TimeManager23VirtualRedirectTransferER19StreamedBinaryWrite
3200:__ZN11TimeManager23VirtualRedirectTransferER18StreamedBinaryRead
3201:__ZN11TimeManager23VirtualRedirectTransferER24GenerateTypeTreeTransfer
3202:__ZN11TimeManager23VirtualRedirectTransferER14SafeBinaryRead
3203:__ZN11TimeManager6UpdateEv
3204:__Z19GetTimeSinceStartupv
3205:__ZN14SafeBinaryRead13BeginTransferEPKcS1_PPFbPvRS_Eb
3206:__ZN15SerializeTraitsI11TimeManagerE8TransferI14SafeBinaryReadEEvRS0_RT_
3207:__ZN14SafeBinaryRead11EndTransferEv
3208:__ZN12CachedReader15UpdateReadCacheEPvj
3209:__ZNK16TypeTreeIterator4NameEv
3210:__ZN13dynamic_arrayIN14SafeBinaryRead11StackedInfoELj0EE4growEv
3211:__ZNK16TypeTreeIterator8ChildrenEv
3212:__ZL4WalkRK16TypeTreeIteratorR12CachedReaderPxb
3213:__ZNK16TypeTreeIterator4NextEv
3214:__Z23GetAllowNameConversionsPK20AllowNameConversionsPKcS3_
3215:__ZNK16TypeTreeIterator4TypeEv
3216:__Z13FindConverterPKcS0_
3217:__ZN24GenerateTypeTreeTransfer13BeginTransferEPKcS1_Pc17TransferMetaFlags
3218:__ZN11TimeManager8TransferI24GenerateTypeTreeTransferEEvRT_
3219:__ZN24GenerateTypeTreeTransfer11EndTransferEv
3220:__ZNK16TypeTreeIterator6FatherEv
3221:__ZN8TypeTree8AddChildERK16TypeTreeIterator
3222:__ZN8TypeTree16AssignByteOffsetERK16TypeTreeIteratorj
3223:__ZN11TimeManager8TransferI18StreamedBinaryReadEEvRT_
3224:__ZN11TimeManager8TransferI19StreamedBinaryWriteEEvRT_
3225:__ZN12CachedWriter16UpdateWriteCacheEPKvj
3226:__ZN11GameManagerD2Ev
3227:__ZN11GameManagerD0Ev
3228:__ZNK11GameManager22GetTypeVirtualInternalEv
3229:__ZNK17GlobalGameManager22GetTypeVirtualInternalEv
3230:__ZN17GlobalGameManager23VirtualRedirectTransferER24GenerateTypeTreeTransfer
3231:__ZN17GlobalGameManager23VirtualRedirectTransferER14SafeBinaryRead
3232:__ZN12InputManagerD2Ev
3233:__ZN12InputManagerD0Ev
3234:__ZN12InputManager16CheckConsistencyEv
3235:__ZN12InputManager5ResetEv
3236:__ZNK12InputManager22GetTypeVirtualInternalEv
3237:__ZN12InputManager23VirtualRedirectTransferER19StreamedBinaryWrite
3238:__ZN12InputManager23VirtualRedirectTransferER18StreamedBinaryRead
3239:__ZN12InputManager23VirtualRedirectTransferER17RemapPPtrTransfer
3240:__ZN12InputManager23VirtualRedirectTransferER24GenerateTypeTreeTransfer
3241:__ZN12InputManager23VirtualRedirectTransferER14SafeBinaryRead
3242:__ZN12InputManager8TransferI14SafeBinaryReadEEvRT_
3243:__ZN14SafeBinaryRead21TransferSTLStyleArrayI13dynamic_arrayI9InputAxisLj0EEEEvRT_17TransferMetaFlags
3244:__Z10AddGUIAxesR13dynamic_arrayI9InputAxisLj0EE
3245:__ZN9InputAxisC2ERKN4core12basic_stringIcNS0_20StringStorageDefaultIcEEEE
3246:__ZN13dynamic_arrayI9InputAxisLj0EE4growEv
3247:__ZN9InputAxisC2ERKS_
3248:__Z11StringToKeyRKN4core12basic_stringIcNS_20StringStorageDefaultIcEEEE
3249:__ZN14SafeBinaryRead18BeginArrayTransferEPKcS1_Ri
3250:__ZN13dynamic_arrayI9InputAxisLj0EE18resize_initializedEj12ResizePolicy
3251:__ZN9InputAxis8TransferI14SafeBinaryReadEEvRT_
3252:__ZN14SafeBinaryRead16EndArrayTransferEv
3253:__ZN24GenerateTypeTreeTransfer21TransferSTLStyleArrayI13dynamic_arrayI9InputAxisLj0EEEEvRT_17TransferMetaFlags
3254:__ZN24GenerateTypeTreeTransfer5AlignEv
3255:__ZNK16TypeTreeIterator4LastEv
3256:__ZN24GenerateTypeTreeTransfer18BeginArrayTransferEPKcS1_Ri17TransferMetaFlags
3257:__ZN9InputAxis8TransferI24GenerateTypeTreeTransferEEvRT_
3258:__ZN24GenerateTypeTreeTransfer16EndArrayTransferEv
3259:__ZN9InputAxis8TransferI18StreamedBinaryReadEEvRT_
3260:__ZN9InputAxis8TransferI19StreamedBinaryWriteEEvRT_
3261:__ZN19StreamedBinaryWrite5AlignEv
3262:__ZN12CachedWriter11Align4WriteEv
3263:__ZN12InputManager11MakeDefaultEv
3264:__ZN12InputManager14ResetInputAxesEv
3265:__ZN13dynamic_arrayI9InputAxisLj0EED2Ev
3266:__ZN9GfxDevice15InvalidateStateEv
3267:__ZN9GfxDevice18BeforePluginRenderEv
3268:__ZN9GfxDevice13SetActiveTierE12GraphicsTier
3269:__ZN9GfxDevice20SetMaxBufferedFramesEi
3270:__ZN9GfxDevice29GetMinimumNodesPerGraphicsJobEv
3271:__ZN9GfxDevice34SetStencilRefWhenStencilWasSkippedEi
3272:__ZN9GfxDevice21SetWorldMatrixAndTypeERK10Matrix4x4f13TransformType
3273:__ZN9GfxDevice14SetWorldMatrixERK10Matrix4x4f
3274:__ZN9GfxDevice13SetViewMatrixERK10Matrix4x4f
3275:__ZN9GfxDevice19SetProjectionMatrixERK10Matrix4x4f
3276:__ZN9GfxDevice26UpdateViewProjectionMatrixEv
3277:__ZN9GfxDevice32UpdateStereoViewProjectionMatrixE21MonoOrStereoscopicEye
3278:__ZN9GfxDevice15SetStereoMatrixE21MonoOrStereoscopicEye24BuiltinShaderMatrixParamRK10Matrix4x4f
3279:__ZN9GfxDevice15GetStereoMatrixE21MonoOrStereoscopicEye24BuiltinShaderMatrixParamR10Matrix4x4f
3280:__ZN9GfxDevice17SetStereoViewportE15StereoscopicEyeRK5RectTIiE
3281:__ZN9GfxDevice21SetStereoScissorRectsEPK5RectTIiE
3282:__ZN9GfxDevice26SetSinglePassStereoEyeMaskE13TargetEyeMask
3283:__ZN9GfxDevice19SaveStereoConstantsEv
3284:__ZN9GfxDevice22RestoreStereoConstantsEv
3285:__ZNK9GfxDevice18GetWorldViewMatrixEv
3286:__ZNK9GfxDevice14GetWorldMatrixEv
3287:__ZNK9GfxDevice13GetViewMatrixEv
3288:__ZNK9GfxDevice19GetProjectionMatrixEv
3289:__ZNK9GfxDevice25GetDeviceProjectionMatrixEv
3290:__ZNK9GfxDevice31CalculateDeviceProjectionMatrixER10Matrix4x4fbb
3291:__ZNK9GfxDevice27GetPlatformAdjustedViewportEv
3292:__ZN9GfxDevice25SetShaderPropertiesSharedERK19ShaderPropertySheet
3293:__ZN9GfxDevice18MapConstantBuffersEPPvPK5CbKeyPjj
3294:__ZN9GfxDevice20UnmapConstantBuffersER8JobFencePPvPK5CbKeyPjj
3295:__ZN9GfxDevice22CreateDynamicVBOBufferERP23DynamicVBOScratchMemoryj15GfxBufferTarget13GfxBufferMode
3296:__ZN9GfxDevice23ReserveDynamicVBOBufferEP23DynamicVBOScratchMemoryP9GfxBufferj
3297:__ZN9GfxDevice26BeginDynamicVBOBufferWriteEP9GfxBuffer
3298:__ZN9GfxDevice18UpdateBufferRangesEP9GfxBufferPK20GfxUpdateBufferRangeijj20GfxUpdateBufferFlags
3299:__ZN9GfxDevice22GetDefaultVertexBufferE26GfxDefaultVertexBufferTypej
3300:__ZN9GfxDevice11DrawBuffersEP9GfxBufferiPK18VertexStreamSourceiPK16DrawBuffersRangeiP17VertexDeclaration
3301:__ZN9GfxDevice28AcquireSharedDynamicVBOChunkE15GfxBufferTargetjj
3302:__ZN9GfxDevice22DrawSharedGeometryJobsERK16DynamicVBOBufferjS2_jiPK16DrawBuffersRangejP17VertexDeclaration
3303:__ZN9GfxDevice28ScheduleGeometryJobsInternalEPFvP15GeometryJobDataEPK22GeometryJobInstructionj
3304:__ZN9GfxDevice34ScheduleSharedGeometryJobsInternalEiPFvP21SharedGeometryJobDatajEPFvS1_EPFvRK8JobFenceES1_jPK16DynamicVBOBufferSD_
3305:__ZN9GfxDevice19PutGeometryJobFenceERi
3306:__ZN9GfxDevice16EndAsyncJobFrameEv
3307:__ZN9GfxDevice19EndGeometryJobFrameEi
3308:__ZN9GfxDevice20BeginDynamicBatchingE17ShaderChannelMaskS0_jP17VertexDeclarationjj16GfxPrimitiveType
3309:__ZN9GfxDevice16DynamicBatchMeshERK10Matrix4x4fPKhjjPKtj26GfxTransformVerticesParams25GfxTransformVerticesFlagsj
3310:__ZN9GfxDevice18EndDynamicBatchingE13TransformType
3311:__ZN9GfxDevice14AddSetPassStatEv
3312:__ZN9GfxDevice21ReleaseSharedMeshDataEP14SharedMeshData
3313:__ZN9GfxDevice24ReleaseSharedTextureDataEP17SharedTextureData
3314:__ZN9GfxDevice25ReleaseAsyncCommandHeaderEPN21GfxDeviceAsyncCommand3ArgE
3315:__ZN9GfxDevice23CreateGPUSkinPoseBufferEv
3316:__ZN9GfxDevice9SkinOnGPUEPK18VertexStreamSourceiP17GPUSkinPoseBufferP9GfxBufferiiP17VertexDeclaration17ShaderChannelMaskb
3317:__ZN9GfxDevice15ComputeSkinningEPK18VertexStreamSourceiP9GfxBufferS4_ii17ShaderChannelMask
3318:__ZN9GfxDevice15ApplyBlendShapeEP9GfxBufferS1_ii17ShaderChannelMaskf
3319:__ZN9GfxDevice27UpdateComputeSkinPoseBufferEP9GfxBufferP20MatrixArrayJobOutput
3320:__ZN9GfxDevice24CreateRenderColorSurfaceE9TextureIDiiii16TextureDimension19RenderTextureFormat18SurfaceCreateFlags
3321:__ZN9GfxDevice24CreateRenderDepthSurfaceE9TextureIDiiii16TextureDimension17DepthBufferFormat18SurfaceCreateFlags
3322:__ZN9GfxDevice20DestroyRenderSurfaceER12ObjectHandleI17RenderSurface_TagP17RenderSurfaceBaseE
3323:__ZNK9GfxDevice22GetActiveRenderTargetsERA8_12ObjectHandleI17RenderSurface_TagP17RenderSurfaceBaseERS4_
3324:__ZNK9GfxDevice27GetActiveRenderSurfaceWidthEv
3325:__ZNK9GfxDevice28GetActiveRenderSurfaceHeightEv
3326:__ZNK9GfxDevice23IsRenderingToBackBufferEv
3327:__ZN9GfxDevice25GetBackBufferColorSurfaceEv
3328:__ZN9GfxDevice25GetBackBufferDepthSurfaceEv
3329:__ZN9GfxDevice30SetBackBufferColorDepthSurfaceEP17RenderSurfaceBaseS1_
3330:__ZN9GfxDevice18AllocRenderSurfaceEb
3331:__ZN9GfxDevice20DeallocRenderSurfaceEP17RenderSurfaceBase
3332:__ZN9GfxDevice46SwitchColorRenderSurfaceIntoFastMemoryPlatformEP17RenderSurfaceBase12SurfaceUsage15FastMemoryFlagsbf
3333:__ZN9GfxDevice46SwitchDepthRenderSurfaceIntoFastMemoryPlatformEP17RenderSurfaceBaseb12SurfaceUsage15FastMemoryFlagsbf
3334:__ZN9GfxDevice19ResizeRenderSurfaceEP17RenderSurfaceBaseff
3335:__ZN9GfxDevice21CopyRenderSurfaceDescEP17RenderSurfaceBasePKS0_
3336:__ZN9GfxDevice25IsRenderTargetConfigValidEjj19RenderTextureFormat17DepthBufferFormat
3337:__ZN9GfxDevice15CreateTextureIDEv
3338:__ZN9GfxDevice13FreeTextureIDE9TextureID
3339:__ZN9GfxDevice21RegisterNativeTextureE9TextureIDi16TextureDimension
3340:__ZN9GfxDevice23UnregisterNativeTextureE9TextureID
3341:__ZN9GfxDevice22UploadTextureCubeArrayE9TextureIDPKhjii14GraphicsFormati18TextureUploadFlags
3342:__ZN9GfxDevice11CopyTextureE9TextureIDiiiiiiiiiS0_iiiiii
3343:__ZN9GfxDevice19CreateSparseTextureE9TextureIDii14GraphicsFormati
3344:__ZN9GfxDevice15ExecuteCallbackEPFvRS_23GfxDeviceCallbackThreadE
3345:__ZN9GfxDevice12PresentFrameE17ShaderChannelMask
3346:__ZN9GfxDevice15ResetFrameStatsEv
3347:__ZN9GfxDevice15BeginFrameStatsEv
3348:__ZN9GfxDevice13EndFrameStatsEv
3349:__ZN9GfxDevice13SaveDrawStatsEv
3350:__ZN9GfxDevice16RestoreDrawStatsEv
3351:__ZN9GfxDevice18SetGlobalDepthBiasEff
3352:__ZNK9GfxDevice18GetGlobalDepthBiasERfS0_
3353:__ZNK9GfxDevice18GetDefaultRTFormatEv
3354:__ZNK9GfxDevice21GetDefaultHDRRTFormatEv
3355:__ZN9GfxDevice33InsertCustomMarkerCallbackAndDataEPFviPvEiS0_j
3356:__ZN9GfxDevice31InsertCustomBlitCallbackAndDataEPFviPvER33UnityRenderingExtCustomBlitParams
3357:__ZN9GfxDevice33InsertPluginTextureUpdateCallbackEPFviPvER44UnityRenderingExtTextureUpdateParamsInternal
3358:__ZN9GfxDevice18InsertCustomMarkerEi
3359:__ZN9GfxDevice26InsertCustomMarkerCallbackEPFviEi
3360:__ZN9GfxDevice21CreateComputeBufferIDEv
3361:__ZN9GfxDevice10CopyBufferEP9GfxBufferS1_
3362:__ZN9GfxDevice23CreateAsyncReadbackDataEv
3363:__ZN9GfxDevice23DeleteAsyncReadbackDataEP20GfxAsyncReadbackData
3364:__ZN9GfxDevice24RequestAsyncReadbackDataEP20GfxAsyncReadbackDataRK27GfxAsyncReadbackRequestDesc
3365:__ZN9GfxDevice20CreateComputeProgramEPKhjPKc
3366:__ZN9GfxDevice30ResolveComputeProgramResourcesE12ObjectHandleI18ComputeProgram_TagPvER19ComputeShaderKernelR13dynamic_arrayI15ComputeShaderCBLj0EERS6_I18ComputeShaderParamLj0EEb
3367:__ZN9GfxDevice19SetSinglePassStereoE16SinglePassStereo
3368:__ZN9GfxDevice19AsyncResourceUploadEiRK26AsyncUploadManagerSettings
3369:__ZN9GfxDevice23SyncAsyncResourceUploadE10AsyncFenceRK26AsyncUploadManagerSettings
3370:__ZNK9GfxDevice16StoreContextDataEP14GfxContextData
3371:__ZN9GfxDevice16ApplyContextDataEPK14GfxContextData
3372:__ZN9GfxDevice19CopyContextDataFromEPKS_
3373:__ZN9GfxDevice12ExecuteAsyncEiPFvPN21GfxDeviceAsyncCommand10ArgScratchEPKNS0_3ArgEEPS2_S5_RK8JobFence
3374:__ZN9GfxDevice26UpdateRenderSurfaceWrapperER12ObjectHandleI17RenderSurface_TagP17RenderSurfaceBaseES3_17DepthBufferFormat
3375:__ZN9GfxDevice27CleanupRenderSurfaceWrapperER12ObjectHandleI17RenderSurface_TagP17RenderSurfaceBaseE
3376:__ZN9GfxDevice19BeginRenderPassImplERK15RenderPassSetup
3377:__ZN9GfxDevice15NextSubPassImplEv
3378:__ZN9GfxDevice17EndRenderPassImplEv
3379:__ZN9GfxDevice16SetRenderTargetsERK20GfxRenderTargetSetup
3380:__ZN7Texture15FindTextureByIDE9TextureID
3381:__ZN19ShaderPropertySheet24SetTextureWithExplicitIDERK23FastTexturePropertyNameP7Texture9TextureID
3382:__ZN19ShaderPropertySheet18AddTextureFromInfoERK23FastTexturePropertyNamePKN9ShaderLab25SerializedTexturePropertyE
3383:__ZN19ShaderPropertySheet17UpdateTextureInfoEiRK23FastTexturePropertyNameP7Textureb9TextureID
3384:__ZN9ShaderLab6TexEnv14SetTextureInfoE9TextureID16TextureDimension14VRTextureUsage19TextureSamplingTypeRKNS_16FastPropertyNameE
3385:__Z22GetTextureDecodeValues16TextureUsageMode17TextureColorSpace
3386:__ZN19ShaderPropertySheet37CreateTextureAuxPropertyUninitializedEN9ShaderLab16FastPropertyNameES1_PKc
3387:__ZNK9ShaderLab16FastPropertyName7GetNameEv
3388:__ZN19ShaderPropertySheet27AddNewPropertyUninitializedEN9ShaderLab16FastPropertyNameENS_12PropertyTypeEj
3389:__ZN13dynamic_arrayIhLj4EE21resize_buffer_nocheckEj12ResizePolicy
3390:__ZN9ShaderLab6TexEnvC2ERKNS_25SerializedTexturePropertyE
3391:__ZN13dynamic_arrayIN12_GLOBAL__N_114AttachmentInfoELj0EEC2Ej10MemLabelId
3392:__ZNSt3__26vectorIN9GfxDevice14SubPassActionsENS_9allocatorIS2_EEE8__appendEj
3393:__ZNSt3__26vectorIN9GfxDevice14SubPassActionsENS_9allocatorIS2_EEE26__swap_out_circular_bufferERNS_14__split_bufferIS2_RS4_EE
3394:__ZN24BuiltinShaderParamValuesC2Ev
3395:__ZN18AsyncUploadManager27AsyncResourceUploadBlockingER9GfxDeviceR10AsyncFenceRK26AsyncUploadManagerSettings
3396:__ZN18AsyncUploadManager19AsyncResourceUploadER9GfxDeviceiRK26AsyncUploadManagerSettings
3397:__ZN18AsyncUploadManager26ScheduleAsyncReadsInternalEv
3398:__ZN18AsyncUploadManager17ScheduleAsyncReadEP10AtomicNode
3399:__ZN14QueueAllocator25ReleasePendingFreedBlocksEv
3400:__ZN18AsyncUploadManager20GetUnusedReadCommandEv
3401:__ZN14QueueAllocator5AllocEj
3402:__ZN18AsyncUploadManager23AsyncReadCallbackStaticER16AsyncReadCommandNS0_6StatusE
3403:__ZN18AsyncUploadManager17AsyncReadCallbackER16AsyncReadCommandNS0_6StatusE
3404:__ZN18AsyncUploadManager20QueueUploadJobStaticEP10AtomicNode
3405:__Z26ScheduleJobDependsInternalR8JobFencePFvPvES1_RKS_11JobPriority
3406:__ZN14QueueAllocatorC2Ej10MemLabelId
3407:__Z19PluginsRenderMarkeri
3408:__ZN14GfxDeviceStats16CopyAllDrawStatsERKS_
3409:__ZN14GfxDeviceStats15CopyClientStatsERKS_
3410:__ZN14GfxDeviceStats19EndClientFrameStatsEv
3411:__ZN14GfxDeviceStats10ResetFrameEv
3412:__ZN13HandleManager4FreeEi
3413:__ZN13HandleManager8AllocateEv
3414:__ZN21ScalableBufferManager11GetInstanceEv
3415:__ZN21ScalableBufferManager23UnregisterRenderSurfaceEP17RenderSurfaceBaseb
3416:__ZN24StaticInitializeInternal13ConstructTypeI21ScalableBufferManagerLb0EEEPvS2_10MemLabelId
3417:__Z22CalculateMipMapCount3Diii
3418:__ZN21ScalableBufferManager21RegisterRenderSurfaceEP17RenderSurfaceBase
3419:__ZNK22BuiltinResourceManager11GetResourceEPKN5Unity4TypeERKN4core12basic_stringIcNS4_20StringStorageDefaultIcEEEE
3420:__ZN13ComputeShader13SetValueParamERKN9ShaderLab16FastPropertyNameEiPKvb
3421:__ZN13ComputeShader14SetBufferParamEjRKN9ShaderLab16FastPropertyNameE15ComputeBufferIDb
3422:__ZN13ComputeShader21DispatchComputeShaderEjiiiP17ShaderPassContext
3423:__ZN13ComputeShader14BeforeDispatchEjP17ShaderPassContext
3424:__ZN13ComputeShader20GetCompatibleVariantE17GfxDeviceRendereri
3425:__ZN13dynamic_arrayI19ComputeShaderKernelLj0EE21resize_buffer_nocheckEj12ResizePolicy
3426:__ZN19ComputeShaderKernelC2ERKS_
3427:__ZN13dynamic_arrayI15ComputeShaderCBLj0EE6assignEPKS0_S3_
3428:__ZN13dynamic_arrayI15ComputeShaderCBLj0EED2Ev
3429:__ZN13dynamic_arrayI19ComputeShaderKernelLj0EED2Ev
3430:__ZN13ComputeShader16ValidateDispatchEj
3431:__ZN13ComputeShader15SetTextureParamEjRKN9ShaderLab16FastPropertyNameE9TextureID16TextureDimensionibb
3432:__ZNK13sorted_vectorIN22BuiltinResourceManager8ResourceENSt3__24lessIS1_EENS2_9allocatorIS1_EEE4findIS1_EENS2_11__wrap_iterIPKS1_EERKT_
3433:__ZN10VertexDataD2Ev
3434:__ZN10DynamicVBOC2ER9GfxDevice
3435:__ZN10DynamicVBOD2Ev
3436:__ZN10DynamicVBOD0Ev
3437:__ZN10DynamicVBO8GetChunkEjjjj16GfxPrimitiveTypeP16DynamicVBOMemory
3438:__ZN10DynamicVBO12ReleaseChunkEjj
3439:__ZN10DynamicVBO9DrawChunkEP17VertexDeclaration
3440:__ZN10DynamicVBO20CleanupBufferManagerEv
3441:__ZN23DynamicVBOBufferManager23CleanupPerThreadBuffersER9GfxDevice
3442:__ZN10DynamicVBO19FillQuadIndexBufferEv
3443:__Z16TransformIndicesPtPKvjjjjb
3444:__Z17TransformVerticesPhRK10Matrix4x4fPKhjj26GfxTransformVerticesParams25GfxTransformVerticesFlagsj
3445:__Z27TransformVerticesStridedREFPhRK10Matrix4x4fjPKhiS4_ii25GfxTransformVerticesFlagsj
3446:__ZN10Matrix3x3f15InvertTransposeEv
3447:__Z26TransformVerticesInnerLoopILb0ELb0ELb0EEvPhRK10Matrix4x4fRK10Matrix3x3fbjPKhiS8_ii25GfxTransformVerticesFlagsj
3448:__Z26TransformVerticesInnerLoopILb1ELb0ELb0EEvPhRK10Matrix4x4fRK10Matrix3x3fbjPKhiS8_ii25GfxTransformVerticesFlagsj
3449:__Z26TransformVerticesInnerLoopILb0ELb1ELb0EEvPhRK10Matrix4x4fRK10Matrix3x3fbjPKhiS8_ii25GfxTransformVerticesFlagsj
3450:__Z26TransformVerticesInnerLoopILb1ELb1ELb0EEvPhRK10Matrix4x4fRK10Matrix3x3fbjPKhiS8_ii25GfxTransformVerticesFlagsj
3451:__Z26TransformVerticesInnerLoopILb0ELb0ELb1EEvPhRK10Matrix4x4fRK10Matrix3x3fbjPKhiS8_ii25GfxTransformVerticesFlagsj
3452:__Z26TransformVerticesInnerLoopILb1ELb0ELb1EEvPhRK10Matrix4x4fRK10Matrix3x3fbjPKhiS8_ii25GfxTransformVerticesFlagsj
3453:__Z26TransformVerticesInnerLoopILb0ELb1ELb1EEvPhRK10Matrix4x4fRK10Matrix3x3fbjPKhiS8_ii25GfxTransformVerticesFlagsj
3454:__Z26TransformVerticesInnerLoopILb1ELb1ELb1EEvPhRK10Matrix4x4fRK10Matrix3x3fbjPKhiS8_ii25GfxTransformVerticesFlagsj
3455:__ZN10Matrix4x4f5ScaleERK8Vector3f
3456:__Z20InvertMatrix4x4_FullPKfPf
3457:__ZN10Matrix4x4fC2ERK10Matrix3x3f
3458:__ZN10Matrix3x3fC2ERK10Matrix4x4f
3459:__ZN16GeometryJobTasks19PutGeometryJobFenceER9GfxDevicej
3460:__ZN13ComputeBuffer7SetDataER9GfxDevicePKvjj
3461:__ZN12GPUFencePool28ClearCompletedFencesInternalEv
3462:__ZN16GeometryJobTasks26ScheduleSharedGeometryJobsER9GfxDeviceiPFvP21SharedGeometryJobDatajEPFvS3_EPFvRK8JobFenceES3_jPK16DynamicVBOBufferSF_b
3463:__ZN23DynamicVBOBufferManager15GetBufferOffsetERK16DynamicVBOBuffer
3464:__ZN13dynamic_arrayIN16GeometryJobTasks15GeometryJobTaskELj0EE21resize_buffer_nocheckEj12ResizePolicy
3465:__ZN16GeometryJobTasks20ScheduleGeometryJobsER9GfxDevicePFvP15GeometryJobDataEPK22GeometryJobInstructionjb
3466:__ZN23DynamicVBOBufferManager21AcquireSharedInternalER9GfxDevice15GfxBufferTargetjj
3467:__ZN23DynamicVBOBufferManager12CleanupClassEv
3468:__ZN23DynamicVBOBufferManager9NextFrameEv
3469:__ZN9GfxDevice13GetDynamicVBOEv
3470:__ZN13dynamic_arrayI16DynamicVBOBufferLj0EE4growEv
3471:__ZN19RenderBufferManager7Buffers17ReleaseTempBufferEP9GfxBuffer
3472:__ZN10MemoryPool8AllocateEj
3473:__ZN4core8hash_mapIN19RenderBufferManager7Buffers3KeyEPNS2_11BufferEntryENS2_9KeyHasherENSt3__28equal_toIS3_EEE6insertERKS3_RKS5_
3474:__ZN4core8hash_setINS_4pairIKN19RenderBufferManager7Buffers3KeyEPNS3_11BufferEntryELb0EEENS_9hash_pairINS3_9KeyHasherES5_S7_EENS_10equal_pairINSt3__28equal_toIS4_EES5_S7_EEE4growEi
3475:__ZN10MemoryPool14AllocNewBubbleEv
3476:__ZN9GfxDevice25CreateDefaultVertexBufferE26GfxDefaultVertexBufferTypej
3477:__ZN9GfxDevice14OnDeleteBufferEP9GfxBuffer
3478:__ZN9GfxDevice14OnCreateBufferEP9GfxBuffer
3479:__ZN9ShaderLab10SubProgramD2Ev
3480:__ZN20GpuProgramParametersD2Ev
3481:__ZNK10GpuProgram11IsSupportedEv
3482:__Z22MultiplyMatrices4x4REFPK10Matrix4x4fS1_PS_
3483:__ZN26SinglePassStereoSupportExt22RestoreStereoConstantsEv
3484:__ZN26SinglePassStereoSupportExt21SetStereoScissorRectsEPK5RectTIiE
3485:__ZN26SinglePassStereoSupportExt17SetStereoViewportE15StereoscopicEyeRK5RectTIiEb
3486:__ZN26SinglePassStereoSupportExt15GetStereoMatrixE21MonoOrStereoscopicEye24BuiltinShaderMatrixParamR10Matrix4x4f
3487:__ZN26SinglePassStereoSupportExt23SetupStereoMatrixParamsE21MonoOrStereoscopicEye24BuiltinShaderMatrixParamRK10Matrix4x4f
3488:__ZN26SinglePassStereoSupportExt21SetStereoMatrixCommonE21MonoOrStereoscopicEye24BuiltinShaderMatrixParamRK10Matrix4x4f
3489:__Z25InvertMatrix4x4_General3DPKfPf
3490:__ZN26SinglePassStereoSupportExt32UpdateStereoViewProjectionMatrixE21MonoOrStereoscopicEyeb
3491:__ZN13DrawImmediate10InvalidateEv
3492:__ZN9GfxDeviceD2Ev
3493:__ZN9GfxDevice8OnDeleteEv
3494:__ZNSt3__26__treeINS_12__value_typeI9TextureIDjEENS_19__map_value_compareIS2_S3_NS_4lessIS2_EELb1EEENS_9allocatorIS3_EEE7destroyEPNS_11__tree_nodeIS3_PvEE
3495:__ZN9GfxDevice25SetInvertProjectionMatrixEb
3496:__ZN9GfxDevice16CreateGpuProgramE20ShaderGpuProgramTypeRK13dynamic_arrayIhLj0EER22CreateGpuProgramOutput
3497:__ZN9GfxDevice15ImmediateVertexEfff
3498:__ZN9GfxDevice15ImmediateNormalEfff
3499:__ZN9GfxDevice14ImmediateColorEffff
3500:__ZN9GfxDevice20ImmediateTexCoordAllEfff
3501:__ZN9GfxDevice17ImmediateTexCoordEifff
3502:__ZN9GfxDevice14ImmediateBeginE16GfxPrimitiveType16VertexInputMasks
3503:__ZN9GfxDevice12ImmediateEndEv
3504:__ZN13DrawImmediate11FlushBufferEv
3505:__ZN16MeshVertexFormat20GetVertexDeclarationER9GfxDevice16VertexInputMasksPKS_
3506:__ZNK16MeshVertexFormat28GetVertexDeclarationInternalER9GfxDevice17ShaderChannelMaskPKS_
3507:__ZN9GfxDevice20GetVertexDeclarationERK18VertexChannelsInfoNS_30VertexDeclarationMRUCacheIndexE
3508:__ZN25VertexDeclarationMRUCache13GetVertexDeclER9GfxDeviceRK18VertexChannelsInfo
3509:__ZN13DrawImmediate5BeginE16GfxPrimitiveType16VertexInputMasksNS_9DrawFlagsE
3510:__ZN13DrawImmediate8TexCoordEifff
3511:__ZN13DrawImmediate11TexCoordAllEfff
3512:__ZN13DrawImmediate6VertexEfff
3513:__Z16CreateGpuProgram20ShaderGpuProgramTypeRK13dynamic_arrayIhLj0EER22CreateGpuProgramOutput
3514:__ZN18GlslGpuProgramGLESC2ERK13dynamic_arrayIhLj0EER22CreateGpuProgramOutput
3515:__ZN18GlslGpuProgramGLES6CreateERK13dynamic_arrayIhLj0EER17ShaderChannelMask
3516:__ZN22CreateGpuProgramOutput12CreateParamsEv
3517:__ZN4gles14UseGLSLProgramER15DeviceStateGLESjbij
3518:__Z18FillParamsBaseGLESjR20GpuProgramParametersP16PropertyNamesSetP20ActiveUniformIndicesi
3519:__ZN16UniformCacheGLES6CreateERK13dynamic_arrayIN20GpuProgramParameters14ValueParameterELj0EERS0_IiLj0EE
3520:__ZN7ApiGLES13DeleteProgramERj
3521:__ZNSt3__26vectorIN20GpuProgramParameters14ConstantBufferENS_9allocatorIS2_EEE7reserveEj
3522:__ZN13dynamic_arrayIN20GpuProgramParameters14ValueParameterELj0EE21resize_buffer_nocheckEj12ResizePolicy
3523:__ZN13dynamic_arrayIN20GpuProgramParameters15StructParameter6MemberELj0EE21resize_buffer_nocheckEj12ResizePolicy
3524:__ZNSt3__26vectorIN20GpuProgramParameters14ConstantBufferENS_9allocatorIS2_EEE21__push_back_slow_pathIRKS2_EEvOT_
3525:_glGetProgramInterfaceiv
3526:_glGetProgramResourceiv
3527:__ZN4glsl20IsStructArrayUniformEPKcRN4core12basic_stringIcNS2_20StringStorageDefaultIcEEEES7_RiS7_
3528:__ZNSt3__26vectorIN20GpuProgramParameters15StructParameterENS_9allocatorIS2_EEE21__push_back_slow_pathIS2_EEvOT_
3529:__ZN4glsl22IsShaderParameterArrayEPKciiPb
3530:__ZN20GpuProgramParameters14AddVectorParamEPKcii15ShaderParamTypeiiiP16PropertyNamesSet
3531:__ZN20GpuProgramParameters23AddMatrixParamWithFlagsEPKcii15ShaderParamTypeiiiiNS_14ValueParameter5FlagsEP16PropertyNamesSet
3532:__ZNK13TranslateGLES26GetTextureSamplerDimensionEj
3533:__ZN20GpuProgramParameters14AddBufferParamEPKciP16PropertyNamesSetii
3534:__ZN20GpuProgramParameters15AddTextureParamEPKciib16TextureDimensionP16PropertyNamesSet
3535:_glGetProgramResourceName
3536:__ZN20GpuProgramParameters36UpdatePrepareValuesMaximumBufferSizeEv
3537:__ZNSt3__26__treeINS_12__value_typeIiiEENS_19__map_value_compareIiS2_NS_4lessIiEELb1EEE13stl_allocatorIS2_L18MemLabelIdentifier1ELi16EEE7destroyEPNS_11__tree_nodeIS2_PvEE
3538:__ZNSt3__26__sortIR25ValueParameterArraySorterPN20GpuProgramParameters14ValueParameterEEEvT0_S6_T_
3539:__ZNSt3__27__sort3IR25ValueParameterArraySorterPN20GpuProgramParameters14ValueParameterEEEjT0_S6_S6_T_
3540:__ZNSt3__27__sort4IR25ValueParameterArraySorterPN20GpuProgramParameters14ValueParameterEEEjT0_S6_S6_S6_T_
3541:__ZNSt3__27__sort5IR25ValueParameterArraySorterPN20GpuProgramParameters14ValueParameterEEEjT0_S6_S6_S6_S6_T_
3542:__ZNSt3__218__insertion_sort_3IR25ValueParameterArraySorterPN20GpuProgramParameters14ValueParameterEEEvT0_S6_T_
3543:__ZNSt3__227__insertion_sort_incompleteIR25ValueParameterArraySorterPN20GpuProgramParameters14ValueParameterEEEbT0_S6_T_
3544:__ZNSt3__26vectorIN20GpuProgramParameters16TextureParameterENS_9allocatorIS2_EEE21__push_back_slow_pathIS2_EEvOT_
3545:__Z27IsShaderInstanceMatrixParamPKcPi
3546:__ZNSt3__26vectorIN20GpuProgramParameters15StructParameterENS_9allocatorIS2_EEEC2ERKS5_
3547:__ZN7ApiGLES11BindProgramEjb
3548:__ZN7ApiGLES16SetPatchVerticesEi
3549:__ZN7ApiGLES16EnableClipPlanesEj
3550:__ZN4glsl18ExtractDefineBlockERKN4core12basic_stringIcNS0_20StringStorageDefaultIcEEEES6_PS4_
3551:__Z4TrimRKN4core12basic_stringIcNS_20StringStorageDefaultIcEEEES5_
3552:__ZN18GlslGpuProgramGLES18CompileProgramImplERjRKN4core12basic_stringIcNS1_20StringStorageDefaultIcEEEES7_S7_S7_S7_R17ShaderChannelMaskij
3553:__ZN18GlslGpuProgramGLES25LoadFromBinaryShaderCacheERjRKN4core12basic_stringIcNS1_20StringStorageDefaultIcEEEER17ShaderChannelMaskPKc
3554:__ZL39PatchShaderSourceForAdrenoES3WorkaroundRKN4core12basic_stringIcNS_20StringStorageDefaultIcEEEEPS3_
3555:__ZL48PatchShaderSourceTransposeRedefinitionWorkaroundRKN4core12basic_stringIcNS_20StringStorageDefaultIcEEEEPS3_
3556:__ZN7ApiGLES12CreateShaderEN2gl11ShaderStageEPKc
3557:__ZL21CompileFragmentShaderRKN4core12basic_stringIcNS_20StringStorageDefaultIcEEEEbb
3558:__ZN7ApiGLES11CheckShaderERjbi
3559:__ZN7ApiGLES21CreateGraphicsProgramEjjjjj
3560:__ZL27BindVertexProgramAttributesRKN4core12basic_stringIcNS_20StringStorageDefaultIcEEEEjR17ShaderChannelMask
3561:__ZN7ApiGLES13DetachShadersEjjjjjj
3562:__ZN7ApiGLES12CheckProgramERj
3563:__ZN18GlslGpuProgramGLES24StoreInBinaryShaderCacheEjPKc
3564:__ZN7ApiGLES12DeleteShaderERj
3565:__ZN13string_traitsIA34_cE8get_sizeERA34_Kc
3566:__ZL31SplitSourceIntoHeaderAndProgramPKcPN4core12basic_stringIcNS1_20StringStorageDefaultIcEEEES6_
3567:__ZN18GlslGpuProgramGLESD2Ev
3568:__ZN18GlslGpuProgramGLESD0Ev
3569:__ZN18GlslGpuProgramGLES18ShaderPatchingInfoD2Ev
3570:__ZN13dynamic_arrayIN18GlslGpuProgramGLES9GLProgramELj0EED2Ev
3571:__ZN5Unity9Component16CheckConsistencyEv
3572:__ZNK5Unity9Component7GetNameEv
3573:__ZN5Unity9Component7SetNameEPKc
3574:__ZN9Behaviour10DeactivateE19DeactivateOperation
3575:__ZN9Behaviour10SetEnabledEb
3576:__ZN9Transform18GetTransformAccessEv
3577:__ZN32TransformHierarchyChangeDispatch19SetSystemInterestedE15TransformAccess36TransformHierarchyChangeSystemHandleb
3578:__Z25FindAncestorComponentImplR10GameObjectPKN5Unity4TypeE
3579:__ZN9Behaviour8TransferI14SafeBinaryReadEEvRT_
3580:__ZN5Unity9Component8TransferI14SafeBinaryReadEEvRT_
3581:__ZN12ImmediatePtrI10GameObjectE8TransferI14SafeBinaryReadEEvRT_
3582:__Z43LocalSerializedObjectIdentifierToInstanceIDRK31LocalSerializedObjectIdentifierRi
3583:__Z38PreallocateObjectFromPersistentManagerib
3584:__ZN9Behaviour8TransferI24GenerateTypeTreeTransferEEvRT_
3585:__ZN5Unity9Component8TransferI24GenerateTypeTreeTransferEEvRT_
3586:__ZN9Behaviour8TransferI17RemapPPtrTransferEEvRT_
3587:__ZN5Unity9Component8TransferI17RemapPPtrTransferEEvRT_
3588:__ZN17RemapPPtrTransfer12PushMetaFlagE17TransferMetaFlags
3589:__ZN9Behaviour8TransferI18StreamedBinaryReadEEvRT_
3590:__ZN5Unity9Component8TransferI18StreamedBinaryReadEEvRT_
3591:__ZN12ImmediatePtrI10GameObjectE8TransferI18StreamedBinaryReadEEvRT_
3592:__ZN9Behaviour8TransferI19StreamedBinaryWriteEEvRT_
3593:__ZN5Unity9Component8TransferI19StreamedBinaryWriteEEvRT_
3594:__ZN12ImmediatePtrI10GameObjectE8TransferI19StreamedBinaryWriteEEvRT_
3595:__Z43InstanceIDToLocalSerializedObjectIdentifieriR31LocalSerializedObjectIdentifier
3596:__ZN17PersistentManager43InstanceIDToLocalSerializedObjectIdentifierEiR31LocalSerializedObjectIdentifier
3597:__ZN17PersistentManager32GlobalToLocalSerializedFileIndexERK26SerializedObjectIdentifier
3598:__ZN19dynamic_block_arrayI14FileIdentifierLj64EE12emplace_backIS0_EERS0_RKT_
3599:__ZN10GameObject28FinalizeAddComponentInternalEPN5Unity9ComponentE
3600:__ZN9Behaviour13AwakeFromLoadE17AwakeFromLoadMode
3601:__ZNK5Unity9Component22GetTypeVirtualInternalEv
3602:__ZN5Unity9Component23VirtualRedirectTransferER24GenerateTypeTreeTransfer
3603:__ZN5Unity9Component23VirtualRedirectTransferER14SafeBinaryRead
3604:__ZN5Unity9Component10SetEnabledEb
3605:__ZN9BehaviourD2Ev
3606:__ZNK9Behaviour22GetTypeVirtualInternalEv
3607:__ZN9Behaviour23VirtualRedirectTransferER24GenerateTypeTreeTransfer
3608:__ZN9Behaviour23VirtualRedirectTransferER14SafeBinaryRead
3609:__ZN11NamedObject7SetNameEPKc
3610:__ZN11NamedObject8TransferI14SafeBinaryReadEEvRT_
3611:__ZN14SafeBinaryRead21TransferSTLStyleArrayI13dynamic_arrayIN4core12basic_stringIcNS2_20StringStorageDefaultIcEEEELj0EEEEvRT_17TransferMetaFlags
3612:__ZN5RectTIfE8TransferI14SafeBinaryReadEEvRT_
3613:__ZN14ConstantString6assignEPKc10MemLabelId
3614:__ZN14ConstantString6assignEPKci10MemLabelId
3615:__ZN11NamedObject8TransferI24GenerateTypeTreeTransferEEvRT_
3616:__ZN11NamedObject8TransferI18StreamedBinaryReadEEvRT_
3617:__ZN11NamedObject8TransferI19StreamedBinaryWriteEEvRT_
3618:__ZN14ConstantStringD2Ev
3619:__ZN11NamedObjectD2Ev
3620:__ZN11NamedObjectD0Ev
3621:__ZNK11NamedObject22GetTypeVirtualInternalEv
3622:__ZN11NamedObject23VirtualRedirectTransferER24GenerateTypeTreeTransfer
3623:__ZN11NamedObject23VirtualRedirectTransferER14SafeBinaryRead
3624:__ZN12TLSAllocatorI14StackAllocatorED2Ev
3625:__ZN12TLSAllocatorI14StackAllocatorED0Ev
3626:__ZN12TLSAllocatorI14StackAllocatorE10DeallocateEPv
3627:__ZNK12TLSAllocatorI14StackAllocatorE8ContainsEPKv
3628:__ZNK12TLSAllocatorI14StackAllocatorE10IsAssignedEv
3629:__ZNK12TLSAllocatorI14StackAllocatorE22GetAllocatedMemorySizeEv
3630:__ZNK12TLSAllocatorI14StackAllocatorE21GetReservedMemorySizeEv
3631:__ZNK12TLSAllocatorI14StackAllocatorE24GetBookKeepingMemorySizeEv
3632:__ZN12TLSAllocatorI14StackAllocatorE16ThreadInitializeEP13BaseAllocator
3633:__ZN12TLSAllocatorI14StackAllocatorE13ThreadCleanupEv
3634:__ZN12TLSAllocatorI14StackAllocatorE16FrameMaintenanceEb
3635:__ZNK14StackAllocator20IsOverflowAllocationEPKv
3636:__ZN25ThreadsafeLinearAllocatorD2Ev
3637:__ZN25ThreadsafeLinearAllocatorD0Ev
3638:__ZN25ThreadsafeLinearAllocator8AllocateEji
3639:__ZN25ThreadsafeLinearAllocator10ReallocateEPvji
3640:__ZN25ThreadsafeLinearAllocator10DeallocateEPv
3641:__ZN25ThreadsafeLinearAllocator13TryDeallocateEPv
3642:__ZNK25ThreadsafeLinearAllocator8ContainsEPKv
3643:__ZNK25ThreadsafeLinearAllocator10GetPtrSizeEPKv
3644:__ZNK25ThreadsafeLinearAllocator22GetAllocatedMemorySizeEv
3645:__ZNK25ThreadsafeLinearAllocator21GetReservedMemorySizeEv
3646:__ZN25ThreadsafeLinearAllocator16FrameMaintenanceEb
3647:__ZN25ThreadsafeLinearAllocator16OverflowAllocateEjj
3648:__ZN25ThreadsafeLinearAllocator18OverflowDeallocateEPv
3649:__ZNK25ThreadsafeLinearAllocator16OverflowContainsEPKv
3650:__ZN25ThreadsafeLinearAllocator15SelectFreeBlockEv
3651:__ZN10TagManagerD2Ev
3652:__ZN10TagManagerD0Ev
3653:__ZN10TagManager5ResetEv
3654:__ZNK10TagManager22GetTypeVirtualInternalEv
3655:__ZN10TagManager23VirtualRedirectTransferER19StreamedBinaryWrite
3656:__ZN10TagManager23VirtualRedirectTransferER18StreamedBinaryRead
3657:__ZN10TagManager23VirtualRedirectTransferER17RemapPPtrTransfer
3658:__ZN10TagManager23VirtualRedirectTransferER24GenerateTypeTreeTransfer
3659:__ZN10TagManager23VirtualRedirectTransferER14SafeBinaryRead
3660:__ZN10TagManager8TransferI14SafeBinaryReadEEvRT_
3661:__ZN10TagManager32RegisterDefaultTagsAndLayerMasksEv
3662:__ZN10TagManager11RegisterTagEjRKN4core12basic_stringIcNS0_20StringStorageDefaultIcEEEE
3663:__ZN10TagManager13RegisterLayerEjRKN4core12basic_stringIcNS0_20StringStorageDefaultIcEEEE
3664:__ZN14SafeBinaryRead21TransferSTLStyleArrayI13dynamic_arrayI17SortingLayerEntryLj0EEEEvRT_17TransferMetaFlags
3665:__ZN10TagManager23AddDefaultLayerIfNeededEv
3666:__ZN13dynamic_arrayI17SortingLayerEntryLj0EE18resize_initializedEj12ResizePolicy
3667:__ZN15SerializeTraitsI17SortingLayerEntryE8TransferI14SafeBinaryReadEEvRS0_RT_
3668:__ZNSt3__26__treeINS_12__value_typeIN4core12basic_stringIcNS2_20StringStorageDefaultIcEEEEjEENS_19__map_value_compareIS6_S7_NS_4lessIS6_EELb1EEE13stl_allocatorIS7_L18MemLabelIdentifier7ELi16EEE25__emplace_unique_key_argsIS6_JNS_4pairIS6_jEEEEENSH_INS_15__tree_iteratorIS7_PNS_11__tree_nodeIS7_PvEEiEEbEERKT_DpOT0_
3669:__ZNSt3__26__treeINS_12__value_typeIN4core12basic_stringIcNS2_20StringStorageDefaultIcEEEEjEENS_19__map_value_compareIS6_S7_NS_4lessIS6_EELb1EEE13stl_allocatorIS7_L18MemLabelIdentifier7ELi16EEE7destroyEPNS_11__tree_nodeIS7_PvEE
3670:__ZNSt3__26__treeINS_12__value_typeIjN4core12basic_stringIcNS2_20StringStorageDefaultIcEEEEEENS_19__map_value_compareIjS7_NS_4lessIjEELb1EEE13stl_allocatorIS7_L18MemLabelIdentifier7ELi16EEE7destroyEPNS_11__tree_nodeIS7_PvEE
3671:__ZN10TagManager8TransferI24GenerateTypeTreeTransferEEvRT_
3672:__ZN15SerializeTraitsI13dynamic_arrayI17SortingLayerEntryLj0EEE8TransferI24GenerateTypeTreeTransferEEvRS2_RT_
3673:__ZN10TagManager8TransferI17RemapPPtrTransferEEvRT_
3674:__ZN10TagManager8TransferI18StreamedBinaryReadEEvRT_
3675:__ZN18StreamedBinaryRead21TransferSTLStyleArrayI13dynamic_arrayI17SortingLayerEntryLj0EEEEvRT_17TransferMetaFlags
3676:__ZN10TagManager8TransferI19StreamedBinaryWriteEEvRT_
3677:__ZN15SerializeTraitsI13dynamic_arrayI17SortingLayerEntryLj0EEE8TransferI19StreamedBinaryWriteEEvRS2_RT_
3678:__ZN10TagManager15ThreadedCleanupEv
3679:__ZN13dynamic_arrayI17SortingLayerEntryLj0EED2Ev
3680:__ZNK6Object22GetTypeVirtualInternalEv
3681:__ZNK16LevelGameManager22GetTypeVirtualInternalEv
3682:__ZN16LevelGameManager23VirtualRedirectTransferER24GenerateTypeTreeTransfer
3683:__ZN16LevelGameManager23VirtualRedirectTransferER14SafeBinaryRead
3684:__ZN10GameObjectD2Ev
3685:__ZN10GameObjectD0Ev
3686:__ZN10GameObject13AwakeFromLoadE17AwakeFromLoadMode
3687:__ZN10GameObject16CheckConsistencyEv
3688:__ZN10GameObject5ResetEv
3689:__ZNK10GameObject22GetTypeVirtualInternalEv
3690:__ZNK10GameObject7GetNameEv
3691:__ZN10GameObject7SetNameEPKc
3692:__ZN10GameObject12SetHideFlagsEN6Object9HideFlagsE
3693:__ZN10GameObject23VirtualRedirectTransferER19StreamedBinaryWrite
3694:__ZN10GameObject23VirtualRedirectTransferER18StreamedBinaryRead
3695:__ZN10GameObject23VirtualRedirectTransferER17RemapPPtrTransfer
3696:__ZN10GameObject23VirtualRedirectTransferER24GenerateTypeTreeTransfer
3697:__ZN10GameObject23VirtualRedirectTransferER14SafeBinaryRead
3698:__ZN10GameObject8TransferI14SafeBinaryReadEEvRT_
3699:__ZN10GameObject18TransferComponentsI14SafeBinaryReadEEvRT_
3700:__ZN14SafeBinaryRead21TransferSTLStyleArrayI13dynamic_arrayINSt3__24pairIi12ImmediatePtrIN5Unity9ComponentEEEELj0EEEEvRT_17TransferMetaFlags
3701:__ZN14SafeBinaryRead21TransferSTLStyleArrayI13dynamic_arrayIN10GameObject13ComponentPairELj0EEEEvRT_17TransferMetaFlags
3702:__ZN12ImmediatePtrIN5Unity9ComponentEE8TransferI14SafeBinaryReadEEvRT_
3703:__ZN14SafeBinaryRead8TransferIN10GameObject13ComponentPairEEEvRT_PKc17TransferMetaFlags
3704:__ZN15SerializeTraitsINSt3__24pairIi12ImmediatePtrIN5Unity9ComponentEEEEE8TransferI14SafeBinaryReadEEvRS6_RT_
3705:__ZN10GameObject8TransferI24GenerateTypeTreeTransferEEvRT_
3706:__ZN10GameObject18TransferComponentsI24GenerateTypeTreeTransferEEvRT_
3707:__ZN17RemapPPtrTransfer8TransferI13dynamic_arrayIN10GameObject13ComponentPairELj0EEEEvRT_PKc17TransferMetaFlags
3708:__ZN10GameObject8TransferI18StreamedBinaryReadEEvRT_
3709:__ZN18StreamedBinaryRead21TransferSTLStyleArrayI13dynamic_arrayIN10GameObject13ComponentPairELj0EEEEvRT_17TransferMetaFlags
3710:__ZN12ImmediatePtrIN5Unity9ComponentEE8TransferI18StreamedBinaryReadEEvRT_
3711:__ZN10GameObject8TransferI19StreamedBinaryWriteEEvRT_
3712:__Z17IsObjectAvailablei
3713:__ZN10GameObject21EnsureUniqueTransformEv
3714:__Z24MergeTransformComponentsR9TransformS0_b
3715:__Z30AddTransformComponentUncheckedR10GameObjectPKN5Unity4TypeE
3716:__ZN10GameObject20AddComponentInternalEPN5Unity9ComponentE
3717:__ZN9Transform7GetRootEv
3718:__ZN9Transform47ClearTransformHierarchyAndApplyToSerializedDataEv
3719:__ZN9Transform8GetSceneEv
3720:__ZN10UnityScene19RemoveRootFromSceneER9Transformb
3721:__ZN10UnityScene14AddRootToSceneERS_R9Transform
3722:__ZN9Transform4FindEPKS_
3723:__ZN9Transform25RebuildTransformHierarchyEv
3724:__ZN9Transform35SetLocalPositionWithoutNotificationERKN4math7_float3Ey
3725:__ZN9Transform35SetLocalRotationWithoutNotificationERKN4math7_float4Ey
3726:__ZN9Transform32SetLocalScaleWithoutNotificationERKN4math7_float3Ey
3727:__ZN17TransformInternal36OnScaleChangedCalculateTransformTypeE15TransformAccess
3728:__ZNK9Transform14CountNodesDeepEv
3729:__ZN17TransformInternal24CreateTransformHierarchyEj10MemLabelId
3730:__ZN17TransformInternal23AllocateTransformThreadER18TransformHierarchyjj
3731:__ZN9Transform37InitializeTransformHierarchyRecursiveER18TransformHierarchyRii
3732:__ZN23TransformChangeDispatch32QueueTransformChangeIfHasChangedERK15TransformAccess
3733:__ZN17TransformInternal12InitLocalTRSE15TransformAccessRKN4math7_float3ERKNS1_7_float4ES4_
3734:__ZN23TransformChangeDispatch29RecalculatePermanentInterestsE15TransformAccess
3735:__ZN32TransformHierarchyChangeDispatch29RecalculatePermanentInterestsE15TransformAccess
3736:__ZN14BatchAllocator16AllocateInternalEPPvijjj
3737:__ZN14BatchAllocator6CommitE10MemLabelId
3738:__ZN17PersistentManager17IsObjectAvailableEi
3739:__ZN6Shader10GetDefaultEv
3740:__ZN6SkyboxD0Ev
3741:__ZNK6Skybox22GetTypeVirtualInternalEv
3742:__ZN6Skybox23VirtualRedirectTransferER19StreamedBinaryWrite
3743:__ZN6Skybox23VirtualRedirectTransferER18StreamedBinaryRead
3744:__ZN6Skybox23VirtualRedirectTransferER17RemapPPtrTransfer
3745:__ZN6Skybox23VirtualRedirectTransferER24GenerateTypeTreeTransfer
3746:__ZN6Skybox23VirtualRedirectTransferER14SafeBinaryRead
3747:__ZN14SafeBinaryRead8TransferI6SkyboxEEvRT_PKc17TransferMetaFlags
3748:__ZN12BaseRendererD2Ev
3749:__ZN12BaseRenderer23RendererCullingCallbackEv
3750:__ZN12BaseRenderer17GetSortingGroupIDEj
3751:__ZN12BaseRenderer17SetSortingGroupIDEjj
3752:__ZN12BaseRenderer20GetSortingGroupOrderEj
3753:__ZN12BaseRenderer20SetSortingGroupOrderEjj
3754:__ZNK12BaseRenderer21GetGlobalLayeringDataEj
3755:__ZN12BaseRenderer21SetGlobalLayeringDataE18GlobalLayeringDataj
3756:__ZNK6Camera22GetWorldToCameraMatrixEv
3757:__ZN33RendererCullingCallbackPropertiesC2ERK6CameraRK10Matrix4x4f
3758:__ZNK9Transform11GetRotationEv
3759:__ZNK6Camera33CalculateFarPlaneWorldSpaceLengthEv
3760:__ZNK6Camera16GetCullingMatrixEv
3761:__ZNK6Camera20GetWorldToClipMatrixEv
3762:__ZNK6Camera19GetProjectionMatrixEv
3763:__ZN10Matrix4x4f8SetScaleERK8Vector3f
3764:__ZNK9Transform28GetWorldToLocalMatrixNoScaleEv
3765:__ZN10Matrix4x4fmLERKS_
3766:__ZN10Matrix4x4f14SetPerspectiveEffff
3767:__ZN10Matrix4x4f8SetOrthoEffffff
3768:__ZNK6Camera13GetCameraRectEbb
3769:__ZNK6Camera18ScreenToWorldPointERK8Vector3f21MonoOrStereoscopicEye
3770:__ZNK6Camera21GetFrustumPlaneSizeAtEf
3771:__Z14RectfToRectIntRK5RectTIfE
3772:__ZNK6Camera19GetStereoViewMatrixE15StereoscopicEye
3773:__ZNK6Camera25GetStereoProjectionMatrixE15StereoscopicEye
3774:__Z15CameraUnProjectRK8Vector3fRK10Matrix4x4fS4_RK5RectTIiERS_b
3775:__ZL19GetCameraTargetRectRK6Camerabbb
3776:__ZNK13RenderTexture14GetScaledWidthEv
3777:__ZNK13RenderTexture15GetScaledHeightEv
3778:__ZN15SerializeTraitsI10ColorRGBAfE8TransferI14SafeBinaryReadEEvRS0_RT_
3779:__ZN10ColorRGBAf8TransferI24GenerateTypeTreeTransferEEvRT_
3780:__ZN12FlareManager8AddFlareENS_9OwnerTypeE
3781:__ZN12FlareManager11UpdateFlareEiP5FlareR9TransformbfRK10ColorRGBAffjj
3782:__ZNSt3__26vectorIN12FlareManager10FlareEntryENS_9allocatorIS2_EEE21__push_back_slow_pathIS2_EEvOT_
3783:__ZN14SafeBinaryRead8TransferI8BitFieldEEvRT_PKc17TransferMetaFlags
3784:__ZNK10FlareLayer22GetTypeVirtualInternalEv
3785:__ZN10FlareLayer12AddToManagerEv
3786:__ZN10FlareLayer17RemoveFromManagerEv
3787:__ZN12FlareManager12RemoveCameraER6Camera
3788:__ZN12FlareManager9AddCameraER6Camera
3789:__ZNSt3__26vectorIfNS_9allocatorIfEEE8__appendEjRKf
3790:__ZN12BaseRenderer25FlattenSharedMaterialDataILb0EEEvRKS_R22PerThreadPageAllocatorR10RenderNode
3791:__ZN22PerThreadPageAllocator14AcquireNewPageEj
3792:__ZN8Material25AcquireSharedMaterialDataEv
3793:__ZN8Material15BuildPropertiesEv
3794:__ZN8Material12UpdateHashesEv
3795:__ZNK9ShaderLab4Pass21ComputePassValuesHashERK16ShaderKeywordSetPK19ShaderPropertySheetP6Shader
3796:__ZN9ShaderLab27ComputeStateBlockValuesHashERK13dynamic_arrayIiLj0EEPK19ShaderPropertySheetS6_
3797:__ZN9ShaderLab9IntShader23CreateStateBlocksForKeyEjPK19ShaderPropertySheetS3_
3798:__ZN9ShaderLab11ShaderState15AddDeviceStatesEjPK19ShaderPropertySheetS3_
3799:__ZNK9ShaderLab11ShaderState17BuildDeviceStatesER9GfxDevicePK19ShaderPropertySheetS5_RNS0_12DeviceStatesE
3800:__ZNK9ShaderLab20ShaderBlendStateDesc15ToGfxBlendStateEPK19ShaderPropertySheetS3_R13GfxBlendState
3801:__ZN9ShaderLab11shaderprops8GetFloatEPK19ShaderPropertySheetS3_NS_16FastPropertyNameE
3802:__ZNK9ShaderLab21ShaderRasterStateDesc16ToGfxRasterStateEPK19ShaderPropertySheetS3_R14GfxRasterState
3803:__ZNK9ShaderLab22ShaderStencilStateDesc17ToGfxStencilStateEPK19ShaderPropertySheetS3_RK14GfxRasterStateR15GfxStencilState
3804:__ZNK9ShaderLab7Program21GetMatchingSubProgramEPK6ShaderPKNS_4PassERK16ShaderKeywordSetjPS7_R19ShaderSnippetResult
3805:__ZNK20GpuProgramParameters23PrepareOverridingValuesERK19ShaderPropertySheetR13dynamic_arrayIhLj4EE
3806:__ZL22PrepareValueParametersI27OverridingParameterPreparerEvRK13dynamic_arrayIN20GpuProgramParameters14ValueParameterELj0EEjjjRS1_IhLj4EERKT_
3807:__ZNK9ShaderLab6TexEnv11PrepareDataEiibP15GfxTextureParam
3808:__Z35UnityShaderExtPluginKeywordsEnabledRK16ShaderKeywordSet
3809:__Z41UnityShaderExtIsCustomPluginVariantNeededjj
3810:__ZN24dense_hashtable_iteratorINSt3__24pairIKN9ShaderLab7Program23ShaderKeywordSetAndHashEPKNS2_10SubProgramEEES4_NS3_24ShaderKeywordHashFunctorEN14dense_hash_mapIS4_S8_SA_NS0_8equal_toIS4_EE13stl_allocatorIS9_L18MemLabelIdentifier68ELi16EEE9SelectKeyESD_SG_E30advance_past_empty_and_deletedEv
3811:__ZNK15dense_hashtableINSt3__24pairIKN9ShaderLab7Program23ShaderKeywordSetAndHashEPKNS2_10SubProgramEEES4_NS3_24ShaderKeywordHashFunctorEN14dense_hash_mapIS4_S8_SA_NS0_8equal_toIS4_EE13stl_allocatorIS9_L18MemLabelIdentifier68ELi16EEE9SelectKeyESD_SG_E23find_position_with_hashERS5_j
3812:__ZN9ShaderLab32FindBestMatchingShaderKeywordSetERK16ShaderKeywordSetRK13dynamic_arrayIS0_Lj0EEPS5_
3813:__ZNK9ShaderLab7Program40EnsureCompiledAndMarkUnsupportedIfFailedEPKNS_10SubProgramERK16ShaderKeywordSetPS4_R19ShaderSnippetResult
3814:__ZN15dense_hashtableINSt3__24pairIKN9ShaderLab7Program23ShaderKeywordSetAndHashEPKNS2_10SubProgramEEES4_NS3_24ShaderKeywordHashFunctorEN14dense_hash_mapIS4_S8_SA_NS0_8equal_toIS4_EE13stl_allocatorIS9_L18MemLabelIdentifier68ELi16EEE9SelectKeyESD_SG_E12resize_deltaEjj
3815:__ZN15dense_hashtableINSt3__24pairIKN9ShaderLab7Program23ShaderKeywordSetAndHashEPKNS2_10SubProgramEEES4_NS3_24ShaderKeywordHashFunctorEN14dense_hash_mapIS4_S8_SA_NS0_8equal_toIS4_EE13stl_allocatorIS9_L18MemLabelIdentifier68ELi16EEE9SelectKeyESD_SG_E15insert_noresizeERKS9_
3816:__ZN15dense_hashtableINSt3__24pairIKN9ShaderLab7Program23ShaderKeywordSetAndHashEPKNS2_10SubProgramEEES4_NS3_24ShaderKeywordHashFunctorEN14dense_hash_mapIS4_S8_SA_NS0_8equal_toIS4_EE13stl_allocatorIS9_L18MemLabelIdentifier68ELi16EEE9SelectKeyESD_SG_E12maybe_shrinkEv
3817:__ZN15dense_hashtableINSt3__24pairIKN9ShaderLab7Program23ShaderKeywordSetAndHashEPKNS2_10SubProgramEEES4_NS3_24ShaderKeywordHashFunctorEN14dense_hash_mapIS4_S8_SA_NS0_8equal_toIS4_EE13stl_allocatorIS9_L18MemLabelIdentifier68ELi16EEE9SelectKeyESD_SG_E9copy_fromERKSJ_j
3818:__ZN9ShaderLab10SubProgram7CompileEv
3819:__ZN13dynamic_arrayI16ShaderKeywordSetLj0EE4growEv
3820:__ZN20GpuProgramParametersaSERKS_
3821:__Z34UnityShaderExtCanCompileGPUProgramRK16ShaderKeywordSet20ShaderGpuProgramType
3822:__ZN16PropertyNamesSet6insertERKS_
3823:__ZN22CreateGpuProgramOutputD2Ev
3824:__ZNSt3__26vectorIN20GpuProgramParameters16TextureParameterENS_9allocatorIS2_EEE6assignIPS2_EENS_9enable_ifIXaasr21__is_forward_iteratorIT_EE5valuesr16is_constructibleIS2_NS_15iterator_traitsIS9_E9referenceEEE5valueEvE4typeES9_S9_
3825:__ZNSt3__26vectorIN20GpuProgramParameters12UAVParameterENS_9allocatorIS2_EEE6assignIPS2_EENS_9enable_ifIXaasr21__is_forward_iteratorIT_EE5valuesr16is_constructibleIS2_NS_15iterator_traitsIS9_E9referenceEEE5valueEvE4typeES9_S9_
3826:__ZNSt3__26vectorIN20GpuProgramParameters14ConstantBufferENS_9allocatorIS2_EEE6assignIPS2_EENS_9enable_ifIXaasr21__is_forward_iteratorIT_EE5valuesr16is_constructibleIS2_NS_15iterator_traitsIS9_E9referenceEEE5valueEvE4typeES9_S9_
3827:__ZNSt3__26vectorIN20GpuProgramParameters15StructParameterENS_9allocatorIS2_EEE6assignIPS2_EENS_9enable_ifIXaasr21__is_forward_iteratorIT_EE5valuesr16is_constructibleIS2_NS_15iterator_traitsIS9_E9referenceEEE5valueEvE4typeES9_S9_
3828:__ZN22CreateGpuProgramOutputC2Ev
3829:__ZN19ShaderPropertySheet8CopyFromERKS_
3830:__ZN18UnityPropertySheet20AddNewShaderlabPropsERK19ShaderPropertySheet
3831:__ZN18UnityPropertySheet25AssignDefinedPropertiesToER19ShaderPropertySheet
3832:__ZN8Material10SetTextureEN9ShaderLab16FastPropertyNameEP7Texture
3833:__ZN24MaterialDisplayListCache22InvalidateDisplayListsER18SharedMaterialData
3834:__ZN19ShaderPropertySheet10SetTextureERK23FastTexturePropertyNameP7Texture
3835:__ZN8Material28UpdateHashesOnPropertyChangeEN9ShaderLab16FastPropertyNameE
3836:__ZN23TextureStreamingManager14UpdateMaterialER8Material
3837:__ZN20TextureStreamingData15FreeTextureInfoEP17StreamingRenderer
3838:__ZN24MaterialDisplayListCache16CachedShaderPass10ReleaseAllEv
3839:__ZN19ShaderPropertySheet8SetFloatEN9ShaderLab16FastPropertyNameEfNS_8SetFlagsE
3840:__ZN19ShaderPropertySheet9SetVectorEN9ShaderLab16FastPropertyNameERK8Vector4fNS_8SetFlagsE
3841:__ZN19ShaderPropertySheet23SetTextureWithPlacementERK23FastTexturePropertyNameP7Texture8Vector2fS5_
3842:__ZNK19ShaderPropertySheet24GetFloatValueInsRGBSpaceEi
3843:__ZNK19ShaderPropertySheet25GetVectorValueInsRGBSpaceEi
3844:__ZN19AtomicPageAllocator12AllocatePageEj
3845:__ZN4Mesh10CreateMeshEv
3846:__ZN12BaseRenderer16FlattenProbeDataE4PPtrI9TransformERisRK17LightProbeContextR10RenderNode
3847:__ZN17MeshRenderingData4InitEP4MeshS1_P9GfxBufferS3_
3848:__Z20RenderMultipleMeshesRK15RenderNodeQueueRK18RenderMultipleData16VertexInputMasks
3849:__ZN8DrawUtil24DrawMeshRawFromNodeQueueERK15RenderNodeQueuej16VertexInputMasksi
3850:__ZN8DrawUtil31CleanupDrawMeshRawFromNodeQueueER15RenderNodeQueuej
3851:__ZN17MeshRenderingData7ReleaseEv
3852:__Z30ExtractMeshBuffersAndDrawRangeR11MeshBuffersR16DrawBuffersRangeRK9GfxDeviceRK17MeshRenderingData16VertexInputMasksib
3853:__Z18ExtractMeshBuffersR11MeshBuffersP14SharedMeshDataS2_P23SharedMeshRenderingDataS4_16VertexInputMasksP9GfxBufferb
3854:__ZNK16MeshVertexFormat28CalculateRequiredStreamCountE17ShaderChannelMask
3855:__Z30AddDefaultStreamsToMeshBuffersR9GfxDeviceR11MeshBuffersj17ShaderChannelMaskS3_
3856:__ZL13MeshExtractorPv16VertexInputMasksiR11MeshBuffersR16DrawBuffersRangeRi
3857:__ZNK17InstancingBatcher15RenderInstancesERK15RenderNodeQueuePK17BatchInstanceDataj16VertexInputMasksPFbPvS6_iR11MeshBuffersR16DrawBuffersRangeRiE
3858:__ZN8DrawUtil26ApplySharedNodeCustomPropsER9GfxDeviceRK10RenderNodei
3859:__Z18ExtractMeshBuffersR11MeshBuffersRK17MeshRenderingData16VertexInputMasksbb
3860:__Z17RenderStaticBatchR9GfxDevice10Matrix4x4fR13dynamic_arrayI7SubMeshLj0EERK11MeshBuffersPK17BatchInstanceDataj16VertexInputMasks
3861:__ZNK14VertexDataInfo19GetAttributeFormatsEv
3862:__Z29CalculateDefaultChannelsToAdd17ShaderChannelMaskS_
3863:__Z40BuildSingleStreamChannelInfoWithDefaultsR18VertexChannelsInfoRK22VertexAttributeFormats17ShaderChannelMaskS4_S4_
3864:__ZN23DynamicVBOBufferManager13AcquireSharedER9GfxDevice15GfxBufferTargetjj
3865:__ZN16GeometryJobTasks11CreateFenceEv
3866:__Z30ProcessDynamicBatchGeometryJobP21SharedGeometryJobDataj
3867:__Z30CleanupDynamicBatchGeometryJobP21SharedGeometryJobData
3868:__ZNK17InstancingBatcher18MapConstantBuffersER9GfxDeviceR13dynamic_arrayIPvLj0EERS2_I5CbKeyLj0EERS2_IjLj0EEj
3869:__ZNK17InstancingBatcher25FillInstanceBufferWithJobIN10Instancing14RenderLoopArgsEEEvR8JobFencePPvjjRKT_
3870:__ZNK15RenderNodeQueue15AddDependentJobER8JobFence
3871:__ZL17InstanceBufferJobIN10Instancing14RenderLoopArgsEEvP21InstanceBufferJobDataIT_E
3872:__Z19ScheduleJobInternalR8JobFencePFvPvES1_11JobPriority
3873:__ZNK15InstancingProps35FillInstanceBufferDispatchConstantsIN10Instancing14RenderLoopArgsEEEvPPvjjRK19ShaderPropertySheetRKT_
3874:__Z26DrawSpriteRawFromNodeQueueRK15RenderNodeQueuej16VertexInputMasksi
3875:__Z20GetSpriteDeviceColorRK10ColorRGBAf
3876:__ZN19ShaderPropertySheet20ReservePropertyCountEj
3877:__ZN19ShaderPropertySheetD2Ev
3878:__ZN19ShaderPropertySheetD0Ev
3879:__ZNK28ReflectionProbeAnchorManager35FindCachedReflectionProbeFromAnchorEPK9TransformRK4AABBRS3_RsS7_
3880:__ZNK28ReflectionProbeAnchorManager28GetCachedProbeAnchorPositionERK9Transform
3881:__Z38CalculateLightProbeSamplingCoordinatesRK17LightProbeContextRK8Vector3fiR29LightProbeSamplingCoordinates
3882:__ZNK11LightProbes14LightProbeData33GetLightProbeInterpolationWeightsERK8Vector3fRiR8Vector4f
3883:__Z37GetBarycentricCoordinatesForOuterCellPPK8Vector3fRK13dynamic_arrayIS_Lj0EERS0_RK11TetrahedronR8Vector4f
3884:__ZN15LightProbeUtils32BarycentricCoordinates3DTriangleEPK8Vector3fRS1_
3885:__ZN28ReflectionProbeAnchorManager37FindReflectionProbeFromAnchorInternalEPK9Transform8Vector3fRK4AABBRS4_RsS8_
3886:__ZNK10GameObject25QueryComponentByExactTypeEPKN5Unity4TypeE
3887:__ZN4Mesh5ClearEb
3888:__ZN4Mesh15UnshareMeshDataEv
3889:__Z27ConvertSubMeshesToTrianglesIjEvR13dynamic_arrayI7SubMeshLj0EERS0_IhLj0EE
3890:__Z27ConvertSubMeshesToTrianglesItEvR13dynamic_arrayI7SubMeshLj0EERS0_IhLj0EE
3891:__ZN23SharedMeshRenderingData18UnloadVertexStreamEi
3892:__ZN23SharedMeshRenderingData25CreateOrUpdateIndexBufferERK13GfxBufferDescPKv20GfxUpdateBufferFlags
3893:__ZN23SharedMeshRenderingData17UnloadIndexBufferEv
3894:__ZN23PerBoneCountSkinBuffers10InvalidateEv
3895:__ZN14SharedMeshDataC2ERKS_
3896:__ZN13dynamic_arrayI7SubMeshLj0EE21resize_buffer_nocheckEj12ResizePolicy
3897:__ZN13dynamic_arrayI10Matrix4x4fLj16EE21resize_buffer_nocheckEj12ResizePolicy
3898:__ZN13dynamic_arrayI12BoneWeights2Lj16EE21resize_buffer_nocheckEj12ResizePolicy
3899:__ZN13dynamic_arrayI12BoneWeights4Lj16EE21resize_buffer_nocheckEj12ResizePolicy
3900:__ZN10VertexDataC2E10MemLabelIdRKS_17ShaderChannelMask
3901:__ZNK14VertexDataInfo22CalculateStreamsLayoutEv
3902:__ZN14VertexDataInfo12UpdateFormatEj17ShaderChannelMaskS0_RK19VertexStreamsLayoutRK22VertexAttributeFormats
3903:__ZL12CopyChannelsj17ShaderChannelMaskRK11fixed_arrayI16VertexStreamInfoLj4EERK18VertexChannelsInfoPKhS4_S7_Ph
3904:__ZN14VertexDataInfo18UpdateImplicitDataEv
3905:__Z43IsVertexFormatCompatibleWithDynamicBatchingRK14VertexDataInfo
3906:__ZN13dynamic_arrayI7SubMeshLj0EE4growEv
3907:__Z16ClearBlendShapesR14BlendShapeData
3908:__ZN4Mesh14ResizeVerticesEj17ShaderChannelMaskS0_RK22VertexAttributeFormats
3909:__ZN14VertexDataInfoC2Ev
3910:__Z4swapR10VertexDataS0_
3911:__ZN14SharedMeshData22ClearCachedBoneWeightsEv
3912:__Z17SendMessageDirectR6ObjectRK17MessageIdentifierR11MessageData
3913:__ZN10VertexData6ResizeEj17ShaderChannelMaskS0_RK19VertexStreamsLayoutRK22VertexAttributeFormats
3914:__ZN5Light17MainThreadCleanupEv
3915:__ZN5Light13AwakeFromLoadE17AwakeFromLoadMode
3916:__ZN5Light16CheckConsistencyEv
3917:__ZN5Light5ResetEv
3918:__ZNK5Light22GetTypeVirtualInternalEv
3919:__ZN5Light23VirtualRedirectTransferER19StreamedBinaryWrite
3920:__ZN5Light23VirtualRedirectTransferER18StreamedBinaryRead
3921:__ZN5Light23VirtualRedirectTransferER17RemapPPtrTransfer
3922:__ZN5Light23VirtualRedirectTransferER24GenerateTypeTreeTransfer
3923:__ZN5Light23VirtualRedirectTransferER14SafeBinaryRead
3924:__ZN5Light12AddToManagerEv
3925:__ZN5Light17RemoveFromManagerEv
3926:__ZN12LightManager11RemoveLightEP5Light
3927:__ZN11HaloManager10DeleteHaloEiP6Object
3928:__ZN23TransformChangeDispatch19SetSystemInterestedE15TransformAccess27TransformChangeSystemHandleb
3929:__ZN15SharedLightData15UpdateTransformERK9Transform
3930:__ZN12LightManager8AddLightEP5Light
3931:__ZN5Light9SetupHaloEv
3932:__ZN5Light10SetupFlareEv
3933:__ZN12LightManager28IsLightTransformDataUpToDateEPK5Light
3934:__ZN12LightManager27UpdateAllLightTransformDataEv
3935:__ZN23TransformChangeDispatch28GetAndClearChangedTransformsE27TransformChangeSystemHandleR13dynamic_arrayI23TransformAccessReadOnlyLj0EEPN9profiling6MarkerE
3936:__ZN5Light25UpdateLightDataTransformsEv
3937:__ZN15SharedLightData7PrecalcEv
3938:__ZN15SharedLightData17PrecalcLightColorEb
3939:__Z24CalculateVertexLightDataRK15SharedLightDataR14GfxVertexLight
3940:__Z31CorrelatedColorTemperatureToRGBf
3941:__ZL31GetAndClearChangedTransformsJobP27GetChangedTransformsJobDatajPK23TransformAccessReadOnlyPKyj
3942:__ZN23TransformChangeDispatch40GetAndClearChangedAsBatchedJobs_InternalEyPFvPvjPK23TransformAccessReadOnlyPKyjES0_PFvS0_EPN9profiling6MarkerE
3943:__Z40ConfigureBlockRangesWithMinIndicesPerJobP10BlockRangeii
3944:__ZN18BlockRangeInternal16PopLastNodeIndexEP10BlockRangeji
3945:__ZN18BlockRangeInternal25GetSizeFromLastBlockRangeEP10BlockRangej
3946:__Z43GetUniqueDependenciesAndClearHierarchyFencePP18TransformHierarchyjP8JobFence
3947:__Z26ScheduleMultiDependencyJobR8JobFenceR18JobBatchDispatcherPKS_j
3948:__ZL8BatchJobP18BatchJobDataSingle
3949:__ZN11HaloManager7AddHaloENS_9OwnerTypeE
3950:__ZN11HaloManager10UpdateHaloEiR9Transform11ColorRGBA32fjP6Object
3951:__ZNSt3__26vectorIN11HaloManager8HaloDataENS_9allocatorIS2_EEE21__push_back_slow_pathIS2_EEvOT_
3952:__ZNK9Transform28GetLocalToWorldMatrixNoScaleEv
3953:__ZN15SharedLightDataD2Ev
3954:__ZN19RenderEventsContextD2Ev
3955:__ZN19RenderEventsContext20RemoveCommandBuffersEi
3956:__ZN22RenderingCommandBufferD2Ev
3957:__ZN22RenderingCommandBuffer13ClearCommandsEv
3958:__ZN14GrowableBufferD2Ev
3959:__ZN17GPUFenceInternals7ReleaseEv
3960:__ZN15SharedLightDataC2ERKS_
3961:__ZN19RenderEventsContextC2ERKS_
3962:__ZN22RenderingCommandBufferC2E10MemLabelIdRKS_
3963:__ZN14GrowableBufferC2ERKS_
3964:__ZN5Light8TransferI14SafeBinaryReadEEvRT_
3965:__ZN14ShadowSettings8TransferI14SafeBinaryReadEEvRT_
3966:__ZN17LightBakingOutput8TransferI14SafeBinaryReadEEvRT_
3967:__ZN16LightmapBakeMode8TransferI14SafeBinaryReadEEvRT_
3968:__ZN5Light8TransferI24GenerateTypeTreeTransferEEvRT_
3969:__ZN14ShadowSettings8TransferI24GenerateTypeTreeTransferEEvRT_
3970:__ZN17LightBakingOutput8TransferI24GenerateTypeTreeTransferEEvRT_
3971:__ZN5Light8TransferI17RemapPPtrTransferEEvRT_
3972:__ZN5Light8TransferI18StreamedBinaryReadEEvRT_
3973:__ZN14ShadowSettings8TransferI18StreamedBinaryReadEEvRT_
3974:__ZN17LightBakingOutput8TransferI18StreamedBinaryReadEEvRT_
3975:__ZN5Light8TransferI19StreamedBinaryWriteEEvRT_
3976:__ZN17LightBakingOutput8TransferI19StreamedBinaryWriteEEvRT_
3977:__ZN15SharedLightData5ResetEv
3978:__ZN14ShadowSettings5ResetEv
3979:__ZN15SharedLightData16CheckConsistencyEv
3980:__ZN5Light7PrecalcEv
3981:__ZN15SharedLightData22UpdateCookieTextureRefEv
3982:__ZN12LightManager19DirtyDispatchUpdateER5Light
3983:__ZN10TextureRef4InitEP7Textureb
3984:__ZN19RenderEventsContext23RemoveAllCommandBuffersEv
3985:__ZN21LightProbeProxyVolume27ValidateBoundingBoxSettingsEv
3986:__ZNK9Transform21GetWorldToLocalMatrixEv
3987:__ZN26LightProbeProxyVolumeUtilsL27ComputeLocalAABBOnHierarchyERK10Matrix4x4fR9TransformR10MinMaxAABB
3988:__ZN8Renderer29GetTransformInfoAndUpdateSlowEv
3989:__ZNK4AABB17CalculateVerticesEP8Vector3f
3990:__ZN21RendererUpdateManager20UpdateSingleRendererER8RendererR13RendererScene
3991:__Z28CalculateGlobalMatrixInverse23TransformAccessReadOnly
3992:__ZN6CameraD2Ev
3993:__ZN6CameraD0Ev
3994:__ZN6Camera17MainThreadCleanupEv
3995:__ZN6Camera13AwakeFromLoadE17AwakeFromLoadMode
3996:__ZN6Camera16CheckConsistencyEv
3997:__ZN6Camera5ResetEv
3998:__ZNK6Camera22GetTypeVirtualInternalEv
3999:__ZN6Camera23VirtualRedirectTransferER19StreamedBinaryWrite
4000:__ZN6Camera23VirtualRedirectTransferER18StreamedBinaryRead
4001:__ZN6Camera23VirtualRedirectTransferER17RemapPPtrTransfer
4002:__ZN6Camera23VirtualRedirectTransferER24GenerateTypeTreeTransfer
4003:__ZN6Camera23VirtualRedirectTransferER14SafeBinaryRead
4004:__ZN6Camera12AddToManagerEv
4005:__ZN6Camera17RemoveFromManagerEv
4006:__ZN27IntermediateRendererManager26ClearIntermediateRenderersEij
4007:__ZN13RenderManager12RemoveCameraEP6Camera
4008:__ZNSt3__24listI4PPtrI6CameraENS_9allocatorIS3_EEE6removeERKS3_
4009:__ZN13RenderManager9AddCameraEP6Camera
4010:__ZN6Camera11ResetAspectEv
4011:__ZN6Camera38InitializePreviousViewProjectionMatrixEv
4012:__ZN6Camera8TransferI14SafeBinaryReadEEvRT_
4013:__ZN6Camera8TransferI24GenerateTypeTreeTransferEEvRT_
4014:__ZN6Camera8TransferI18StreamedBinaryReadEEvRT_
4015:__ZN6Camera8TransferI19StreamedBinaryWriteEEvRT_
4016:__ZN6Camera47CalculateProjectionParamsFromPhysicalPropertiesEv
4017:__ZN13MonoBehaviour33AddImageEffectCallbacksToManagersEv
4018:__Z30scripting_method_has_attribute18ScriptingMethodPtr17ScriptingClassPtr
4019:__ZN13MonoBehaviour17RenderImageFilterEPN5Unity9ComponentEP13RenderTextureS4_
4020:__ZN12ImageFilters14AddImageFilterERK11ImageFilter
4021:__ZN12ImageFilters17RemoveImageFilterERK11ImageFilter
4022:__ZNSt3__26vectorI11ImageFilterNS_9allocatorIS1_EEE6insertENS_11__wrap_iterIPKS1_EERS6_
4023:__ZN13MonoBehaviour30InvokeMethodOrCoroutineCheckedE18ScriptingMethodPtr18ScriptingObjectPtr
4024:__ZN9Scripting19ScriptingWrapperForEP6Object
4025:__ZN9Scripting34ScriptingWrapperClassForNativeTypeEPKN5Unity4TypeE
4026:__Z33scripting_unity_engine_object_new17ScriptingClassPtrP6Object
4027:__ZN19ScriptingInvocationC2E18ScriptingObjectPtr18ScriptingMethodPtr
4028:__ZN13MonoBehaviour30InvokeMethodOrCoroutineCheckedE18ScriptingMethodPtr18ScriptingObjectPtrP21ScriptingExceptionPtr
4029:__Z11IsCoroutine18ScriptingMethodPtrRK22CommonScriptingClasses
4030:__ZN13MonoBehaviour24TryCreateAndRunCoroutineE18ScriptingObjectPtr18ScriptingMethodPtrPP9Coroutine
4031:__Z35scripting_object_get_virtual_method18ScriptingObjectPtr18ScriptingMethodPtr
4032:__ZN9Coroutine3RunEPb
4033:__ZN9Coroutine16CleanupCoroutineEPv
4034:__ZN9Coroutine14InvokeMoveNextEP21ScriptingExceptionPtr
4035:__ZN9Coroutine23ProcessCoroutineCurrentEv
4036:__ZN9Coroutine17ContinueCoroutineEP6ObjectPv
4037:__Z11CallDelayedPF15CallObjectStateP6ObjectPvE4PPtrIS0_EfS2_fPFS_S2_EN18DelayedCallManager15DelayedCallModeE
4038:__ZN9Coroutine35HandleIEnumerableCurrentReturnValueE18ScriptingObjectPtr
4039:__ZN9CoroutineC2Ev
4040:__Z20scripting_object_new17ScriptingClassPtr
4041:__ZN13RenderTexture7ReleaseEv
4042:__ZN6Camera21CleanupAfterRenderingEPK11CullResults
4043:__ZN15LODGroupManager20DestroyCameraLODDataEi
4044:__Z22CleanupAfterRenderLoopR10RenderLoop
4045:__ZN19RenderBufferManager8Textures17ReleaseTempBufferEP13RenderTexture
4046:__Z19ClearShadowMapCacheP14ShadowMapCache
4047:__ZNSt3__26__treeINS_12__value_typeIi17ShadowCachingDataEENS_19__map_value_compareIiS3_NS_4lessIiEELb1EEE13stl_allocatorIS3_L18MemLabelIdentifier67ELi16EEE7destroyEPNS_11__tree_nodeIS3_PvEE
4048:__ZN4core8hash_mapI17RenderTextureDescPN19RenderBufferManager8Textures12TextureEntryENS3_9KeyHasherENSt3__28equal_toIS1_EEE6insertERKS1_RKS5_
4049:__ZN13RenderTexture21SwitchOutOfFastMemoryEb
4050:__ZN4core8hash_setINS_4pairIK17RenderTextureDescPN19RenderBufferManager8Textures12TextureEntryELb0EEENS_9hash_pairINS5_9KeyHasherES3_S7_EENS_10equal_pairINSt3__28equal_toIS2_EES3_S7_EEE4growEi
4051:__ZN9ShaderLab23ClearGrabPassFrameStateEv
4052:__ZN19SharedRendererSceneD2Ev
4053:__ZNK15RenderNodeQueue17SyncDependentJobsEv
4054:__ZN16RenderTextureMap5QueryEPK17RenderSurfaceBase
4055:__ZN13RenderTexture21MakeRenderTargetSetupEiP12ObjectHandleI17RenderSurface_TagP17RenderSurfaceBaseES4_i11CubemapFaceiNS_14SetActiveFlagsE
4056:__ZN13RenderTexture9SetActiveERK20GfxRenderTargetSetupPPS_NS_14SetActiveFlagsE
4057:__ZN13RenderTexture15DestroySurfacesEv
4058:__ZN16RenderTextureMap6RemoveEPK17RenderSurfaceBase
4059:__ZN6Camera24OnRenderSurfaceDestroyedE12ObjectHandleI17RenderSurface_TagP17RenderSurfaceBaseEP13RenderTexture
4060:__ZNK6Camera25GetNormalizedViewportRectEP13RenderTextureb
4061:__ZN14GraphicsHelper18ValidateMemorylessER20GfxRenderTargetSetup
4062:__Z16DeleteRenderLoopP10RenderLoop
4063:__Z21DestroyShadowMapCacheP14ShadowMapCache
4064:__ZN16GraphicsSettingsD2Ev
4065:__ZN16GraphicsSettingsD0Ev
4066:__ZN16GraphicsSettings10SmartResetEv
4067:__ZNK16GraphicsSettings22GetTypeVirtualInternalEv
4068:__ZN16GraphicsSettings23VirtualRedirectTransferER19StreamedBinaryWrite
4069:__ZN16GraphicsSettings23VirtualRedirectTransferER18StreamedBinaryRead
4070:__ZN16GraphicsSettings23VirtualRedirectTransferER17RemapPPtrTransfer
4071:__ZN16GraphicsSettings23VirtualRedirectTransferER24GenerateTypeTreeTransfer
4072:__ZN16GraphicsSettings23VirtualRedirectTransferER14SafeBinaryRead
4073:__ZN16GraphicsSettings8TransferI14SafeBinaryReadEEvRT_
4074:__ZN21BuiltinShaderSettings8TransferI14SafeBinaryReadEEvRT_
4075:__ZN14SafeBinaryRead21TransferSTLStyleArrayINSt3__26vectorI4PPtrI6ShaderE13stl_allocatorIS5_L18MemLabelIdentifier54ELi16EEEEEEvRT_17TransferMetaFlags
4076:__ZN14SafeBinaryRead21TransferSTLStyleArrayINSt3__26vectorI4PPtrI23ShaderVariantCollectionE13stl_allocatorIS5_L18MemLabelIdentifier54ELi16EEEEEEvRT_17TransferMetaFlags
4077:__ZN20TierGraphicsSettings8TransferI14SafeBinaryReadEEvRT_
4078:__ZN14SafeBinaryRead21TransferSTLStyleArrayI13dynamic_arrayI21PlatformShaderDefinesLj0EEEEvRT_17TransferMetaFlags
4079:__ZN5Light17PrecalcLightColorEb
4080:__ZN21PlatformShaderDefines8TransferI14SafeBinaryReadEEvRT_
4081:__Z14resize_trimmedINSt3__26vectorI4PPtrI23ShaderVariantCollectionE13stl_allocatorIS4_L18MemLabelIdentifier54ELi16EEEEEvRT_j
4082:__ZNSt3__26vectorI4PPtrI23ShaderVariantCollectionE13stl_allocatorIS3_L18MemLabelIdentifier54ELi16EEE6assignINS_11__wrap_iterIPS3_EEEENS_9enable_ifIXaasr21__is_forward_iteratorIT_EE5valuesr16is_constructibleIS3_NS_15iterator_traitsISD_E9referenceEEE5valueEvE4typeESD_SD_
4083:__ZNSt3__26vectorI4PPtrI23ShaderVariantCollectionE13stl_allocatorIS3_L18MemLabelIdentifier54ELi16EEE8__appendEj
4084:__ZN16GraphicsSettings8TransferI24GenerateTypeTreeTransferEEvRT_
4085:__ZN24GenerateTypeTreeTransfer8TransferI21BuiltinShaderSettingsEEvRT_PKc17TransferMetaFlags
4086:__ZN20TierGraphicsSettings8TransferI24GenerateTypeTreeTransferEEvRT_
4087:__ZN24GenerateTypeTreeTransfer8TransferI21PlatformShaderDefinesEEvRT_PKc17TransferMetaFlags
4088:__ZN16GraphicsSettings8TransferI17RemapPPtrTransferEEvRT_
4089:__ZN16GraphicsSettings8TransferI18StreamedBinaryReadEEvRT_
4090:__ZN20TierGraphicsSettings8TransferI18StreamedBinaryReadEEvRT_
4091:__ZN18StreamedBinaryRead21TransferSTLStyleArrayI13dynamic_arrayI21PlatformShaderDefinesLj0EEEEvRT_17TransferMetaFlags
4092:__ZN15SerializeTraitsI12fixed_bitsetILi28EjEE8TransferI18StreamedBinaryReadEEvRS1_RT_
4093:__ZN18StreamedBinaryRead10ReadDirectEPvi
4094:__ZN12CachedReader4ReadEPvj
4095:__ZN16GraphicsSettings8TransferI19StreamedBinaryWriteEEvRT_
4096:__ZN20TierGraphicsSettings8TransferI19StreamedBinaryWriteEEvRT_
4097:__ZN21PlatformShaderDefines8TransferI19StreamedBinaryWriteEEvRT_
4098:__ZN15ReflectionProbe13AwakeFromLoadE17AwakeFromLoadMode
4099:__ZN15ReflectionProbe16CheckConsistencyEv
4100:__ZN15ReflectionProbe5ResetEv
4101:__ZNK15ReflectionProbe22GetTypeVirtualInternalEv
4102:__ZN15ReflectionProbe23VirtualRedirectTransferER19StreamedBinaryWrite
4103:__ZN15ReflectionProbe23VirtualRedirectTransferER18StreamedBinaryRead
4104:__ZN15ReflectionProbe23VirtualRedirectTransferER17RemapPPtrTransfer
4105:__ZN15ReflectionProbe23VirtualRedirectTransferER24GenerateTypeTreeTransfer
4106:__ZN15ReflectionProbe23VirtualRedirectTransferER14SafeBinaryRead
4107:__ZN15ReflectionProbe12AddToManagerEv
4108:__ZN15ReflectionProbe17RemoveFromManagerEv
4109:__ZN16ReflectionProbes11RemoveProbeE4PPtrI15ReflectionProbeE
4110:__ZNK15ReflectionProbe10GetTextureEv
4111:__ZN16ReflectionProbes22ForceProbeToUseTextureER15ReflectionProbeP7Texture
4112:__Z35GetTextureDecodeValuesWithIntensity16TextureUsageMode17TextureColorSpace10ColorSpacef
4113:__ZN20dynamic_array_detail18dynamic_array_data4swapERS0_
4114:__ZNSt3__25dequeI18ReflectionProbeJobNS_9allocatorIS1_EEE19__add_back_capacityEv
4115:__ZNSt3__212__deque_baseI18ReflectionProbeJobNS_9allocatorIS1_EEED2Ev
4116:__ZNSt3__214__split_bufferIP18ReflectionProbeJobNS_9allocatorIS2_EEE9push_backEOS2_
4117:__ZNSt3__214__split_bufferIP18ReflectionProbeJobNS_9allocatorIS2_EEE10push_frontEOS2_
4118:__ZN16ReflectionProbes8AddProbeE4PPtrI15ReflectionProbeE
4119:__ZN16ReflectionProbes8ScheduleEN18ReflectionProbeJob7JobTypeEP15ReflectionProbei
4120:__ZN15ReflectionProbe8TransferI14SafeBinaryReadEEvRT_
4121:__ZN15ReflectionProbe8TransferI24GenerateTypeTreeTransferEEvRT_
4122:__ZN15ReflectionProbe8TransferI18StreamedBinaryReadEEvRT_
4123:__ZN15ReflectionProbe8TransferI19StreamedBinaryWriteEEvRT_
4124:__ZNK12GraphicsCaps17IsFormatSupportedE14GraphicsFormat11FormatUsage13FormatSupport
4125:__ZN11LightProbesD2Ev
4126:__ZN11LightProbesD0Ev
4127:__ZNK11LightProbes22GetTypeVirtualInternalEv
4128:__ZN11LightProbes23VirtualRedirectTransferER19StreamedBinaryWrite
4129:__ZN11LightProbes23VirtualRedirectTransferER18StreamedBinaryRead
4130:__ZN11LightProbes23VirtualRedirectTransferER17RemapPPtrTransfer
4131:__ZN11LightProbes23VirtualRedirectTransferER24GenerateTypeTreeTransfer
4132:__ZN11LightProbes23VirtualRedirectTransferER14SafeBinaryRead
4133:__ZN11LightProbes8TransferI14SafeBinaryReadEEvRT_
4134:__ZN11LightProbes14LightProbeData8TransferI14SafeBinaryReadEEvRT_
4135:__ZN14SafeBinaryRead21TransferSTLStyleArrayI13dynamic_arrayI20SphericalHarmonicsL2Lj0EEEEvRT_17TransferMetaFlags
4136:__ZN14SafeBinaryRead21TransferSTLStyleArrayI13dynamic_arrayI19LightProbeOcclusionLj0EEEEvRT_17TransferMetaFlags
4137:__ZN19LightProbeOcclusion8TransferI14SafeBinaryReadEEvRT_
4138:__ZN14SafeBinaryRead21TransferSTLStyleArrayI19StaticArrayTransferIiLi4EEEEvRT_17TransferMetaFlags
4139:__ZN14SafeBinaryRead21TransferSTLStyleArrayI19StaticArrayTransferIfLi4EEEEvRT_17TransferMetaFlags
4140:__ZN14SafeBinaryRead21TransferSTLStyleArrayI19StaticArrayTransferIaLi4EEEEvRT_17TransferMetaFlags
4141:__ZN13dynamic_arrayI20SphericalHarmonicsL2Lj0EE21resize_buffer_nocheckEj12ResizePolicy
4142:__ZN20SphericalHarmonicsL28TransferI14SafeBinaryReadEEvRT_
4143:__ZN26ProbeSetTetrahedralization8TransferI14SafeBinaryReadEEvRT_
4144:__ZN14SafeBinaryRead21TransferSTLStyleArrayI13dynamic_arrayI13ProbeSetIndexLj0EEEEvRT_17TransferMetaFlags
4145:__ZN14SafeBinaryRead21TransferSTLStyleArrayI10vector_mapI7Hash128iNSt3__24lessIS2_EE13stl_allocatorINS3_4pairIS2_iEEL18MemLabelIdentifier83ELi16EEEEEvRT_17TransferMetaFlags
4146:__ZNSt3__26vectorINS_4pairI7Hash128iEE13stl_allocatorIS3_L18MemLabelIdentifier83ELi16EEE8__appendEj
4147:__ZN15SerializeTraitsINSt3__24pairI7Hash128iEEE8TransferI14SafeBinaryReadEEvRS3_RT_
4148:__ZN13dynamic_arrayI13ProbeSetIndexLj0EE21resize_buffer_nocheckEj12ResizePolicy
4149:__ZN15SerializeTraitsI13ProbeSetIndexE8TransferI14SafeBinaryReadEEvRS0_RT_
4150:__ZN14SafeBinaryRead21TransferSTLStyleArrayI13dynamic_arrayI11TetrahedronLj0EEEEvRT_17TransferMetaFlags
4151:__ZN13dynamic_arrayI11TetrahedronLj0EE21resize_buffer_nocheckEj12ResizePolicy
4152:__ZN11Tetrahedron8TransferI14SafeBinaryReadEEvRT_
4153:__ZN10Matrix3x4f8TransferI14SafeBinaryReadEEvRT_
4154:__ZN15SerializeTraitsI11LightProbesE8TransferI24GenerateTypeTreeTransferEEvRS0_RT_
4155:__ZN24GenerateTypeTreeTransfer8TransferIN11LightProbes14LightProbeDataEEEvRT_PKc17TransferMetaFlags
4156:__ZN20SphericalHarmonicsL28TransferI24GenerateTypeTreeTransferEEvRT_
4157:__ZN15SerializeTraitsI19LightProbeOcclusionE8TransferI24GenerateTypeTreeTransferEEvRS0_RT_
4158:__ZN11Tetrahedron8TransferI24GenerateTypeTreeTransferEEvRT_
4159:__ZN24GenerateTypeTreeTransfer8TransferI13dynamic_arrayI8Vector3fLj0EEEEvRT_PKc17TransferMetaFlags
4160:__ZN10Matrix3x4f8TransferI24GenerateTypeTreeTransferEEvRT_
4161:__ZN11LightProbes8TransferI17RemapPPtrTransferEEvRT_
4162:__ZN11LightProbes8TransferI18StreamedBinaryReadEEvRT_
4163:__ZN15SerializeTraitsIN11LightProbes14LightProbeDataEE8TransferI18StreamedBinaryReadEEvRS1_RT_
4164:__ZN18StreamedBinaryRead21TransferSTLStyleArrayI13dynamic_arrayI20SphericalHarmonicsL2Lj0EEEEvRT_17TransferMetaFlags
4165:__ZN18StreamedBinaryRead21TransferSTLStyleArrayI13dynamic_arrayI19LightProbeOcclusionLj0EEEEvRT_17TransferMetaFlags
4166:__ZN19LightProbeOcclusion8TransferI18StreamedBinaryReadEEvRT_
4167:__ZN20SphericalHarmonicsL28TransferI18StreamedBinaryReadEEvRT_
4168:__ZN26ProbeSetTetrahedralization8TransferI18StreamedBinaryReadEEvRT_
4169:__ZN18StreamedBinaryRead21TransferSTLStyleArrayI13dynamic_arrayI13ProbeSetIndexLj0EEEEvRT_17TransferMetaFlags
4170:__ZN18StreamedBinaryRead21TransferSTLStyleArrayI10vector_mapI7Hash128iNSt3__24lessIS2_EE13stl_allocatorINS3_4pairIS2_iEEL18MemLabelIdentifier83ELi16EEEEEvRT_17TransferMetaFlags
4171:__ZN18StreamedBinaryRead21TransferSTLStyleArrayI13dynamic_arrayI11TetrahedronLj0EEEEvRT_17TransferMetaFlags
4172:__ZN11Tetrahedron8TransferI18StreamedBinaryReadEEvRT_
4173:__ZN10Matrix3x4f8TransferI18StreamedBinaryReadEEvRT_
4174:__ZN11LightProbes8TransferI19StreamedBinaryWriteEEvRT_
4175:__ZN11LightProbes14LightProbeData8TransferI19StreamedBinaryWriteEEvRT_
4176:__ZN20SphericalHarmonicsL28TransferI19StreamedBinaryWriteEEvRT_
4177:__Z13TransferArrayILi4Ei19StreamedBinaryWriteEjRAT__T0_PKcRT1_
4178:__Z13TransferArrayILi4Ea19StreamedBinaryWriteEjRAT__T0_PKcRT1_
4179:__ZN11Tetrahedron8TransferI19StreamedBinaryWriteEEvRT_
4180:__ZN15SerializeTraitsI13dynamic_arrayI13ProbeSetIndexLj0EEE8TransferI19StreamedBinaryWriteEEvRS2_RT_
4181:__ZN10Matrix3x4f8TransferI19StreamedBinaryWriteEEvRT_
4182:__ZN11LightProbes14LightProbeDataD2Ev
4183:__ZN14RenderSettingsD2Ev
4184:__ZN14RenderSettingsD0Ev
4185:__ZN14RenderSettings13AwakeFromLoadE17AwakeFromLoadMode
4186:__ZN14RenderSettings16CheckConsistencyEv
4187:__ZN14RenderSettings5ResetEv
4188:__ZNK14RenderSettings22GetTypeVirtualInternalEv
4189:__ZN14RenderSettings23VirtualRedirectTransferER19StreamedBinaryWrite
4190:__ZN14RenderSettings23VirtualRedirectTransferER18StreamedBinaryRead
4191:__ZN14RenderSettings23VirtualRedirectTransferER17RemapPPtrTransfer
4192:__ZN14RenderSettings23VirtualRedirectTransferER24GenerateTypeTreeTransfer
4193:__ZN14RenderSettings23VirtualRedirectTransferER14SafeBinaryRead
4194:__ZN14RenderSettings8TransferI14SafeBinaryReadEEvRT_
4195:__ZN14RenderSettings18TransferDeprecatedI14SafeBinaryReadEEvRT_
4196:__ZN14RenderSettings8TransferI24GenerateTypeTreeTransferEEvRT_
4197:__ZN14RenderSettings8TransferI17RemapPPtrTransferEEvRT_
4198:__ZN14RenderSettings8TransferI18StreamedBinaryReadEEvRT_
4199:__ZN14RenderSettings8TransferI19StreamedBinaryWriteEEvRT_
4200:__ZNK22BuiltinResourceManager21GetResourceInstanceIDEPKN5Unity4TypeERKN4core12basic_stringIcNS4_20StringStorageDefaultIcEEEE
4201:__ZN14RenderSettings17UpdateGlobalStateEv
4202:__ZN14RenderSettings23UpdateFinalAmbientProbeEv
4203:__ZN14RenderSettings14ApplyFogParamsEv
4204:__ZN16ReflectionProbes17SetDefaultTextureE4PPtrI7CubemapEf
4205:__ZN14RenderSettings27UpdateIndirectSpecularColorEv
4206:__ZN16ReflectionProbes16UpdateSampleDataEv
4207:__ZNK16ReflectionProbes21GenerateDefaultSampleEv
4208:__ZN16ReflectionProbes11UpdateProbeER15ReflectionProbej
4209:__ZNK10GameObject16GetCullSceneMaskEv
4210:__ZNK28ReflectionProbeAnchorManager14IsAnchorCachedERK9Transform
4211:__ZN19RuntimeSceneManager14GetActiveSceneEv
4212:__ZN20SphericalHarmonicsL27SetZeroEv
4213:__ZN20SphericalHarmonicsL211AddWeightedERKS_f
4214:__ZN20SphericalHarmonicsL215AddAmbientLightERK10ColorRGBAf
4215:__ZN20SphericalHarmonicsL219AddDirectionalLightERKN4math7_float3ERKNS0_7_float4E
4216:__ZN17AmbientProbeBaker29CalculateAmbientFaceProcessorclER5ImageiRK8Vector3fS5_S5_b
4217:__ZN6prcore10ClearImageER14ImageReferenceRK11ColorRGBA3214ImageClearMode
4218:__ZN6prcore17IsFloatBlitFormatE13TextureFormat
4219:__Z20GetTextureFormatInfo13TextureFormat
4220:__ZN6prcoreL11inner_clearILj1EEEvPhjjj
4221:__ZN6prcoreL11inner_clearILj2EEEvPhjjj
4222:__ZN6prcoreL11inner_clearILj3EEEvPhjjj
4223:__ZN6prcoreL11inner_clearILj4EEEvPhjjj
4224:__ZN5ImageD2Ev
4225:__ZN5ImageC2Eii13TextureFormat
4226:__ZN5Image15InitializeImageEiii13TextureFormat
4227:__Z25GetBytesFromTextureFormat13TextureFormat
4228:__ZN20SphericalHarmonicsL217AddToCoefficientsEPKN4math7_float4EPKf
4229:__ZN18ShadowMapJobHeaderD0Ev
4230:__ZN18ShadowMapJobHeaderD2Ev
4231:__ZN13dynamic_arrayI9IndexListLj0EEixEj
4232:__Z16DestroyIndexListR9IndexList
4233:__ZNK12SharedObjectI15SharedLightDataLb1E27SharedObjectDeleteReleaseOpIS0_EE7ReleaseEv
4234:__ZN13dynamic_arrayIS_I16ShadowCasterDataLj0EELj0EED2Ev
4235:__ZN21GfxDeviceAsyncCommand3ArgD2Ev
4236:__Z10destruct_nI13dynamic_arrayI16ShadowCasterDataLj0EEEvPT_j
4237:__ZL14atomic_releasePVi
4238:__ZNK27SharedObjectDeleteReleaseOpI15SharedLightDataEclEPS0_10MemLabelId
4239:__Z11CopyTextureP7TextureS0_
4240:__ZL29CheckCopyTextureBaseArgumentsP7TextureS0_
4241:__ZN9Texture2D18UnshareTextureDataEv
4242:__Z29GetRowBytesFromWidthAndFormati13TextureFormat
4243:__Z28EnsureRenderTextureIsCreatedP13RenderTexture
4244:__ZN13RenderTexture6CreateERK12ObjectHandleI17RenderSurface_TagP17RenderSurfaceBaseES6_NS_11CreateFlagsE
4245:__ZN13RenderTexture25AdjustDescForGraphicsCapsER17RenderTextureDescR9GfxDeviceRK12GraphicsCapsPS_
4246:__Z12GetMSAALeveli
4247:__Z17GetGraphicsFormat17DepthBufferFormat
4248:__ZN9GfxDevice18AliasRenderSurfaceE9TextureIDP17RenderSurfaceBase
4249:__ZN16RenderTextureMap6UpdateEPK17RenderSurfaceBaseP13RenderTexture
4250:__ZN4core8hash_mapIPK17RenderSurfaceBaseP13RenderTexture19PointerHashFunctionIS3_ENSt3__28equal_toIS3_EEE6insertERKS3_RKS5_
4251:__Z23GetGraphicsFormatString14GraphicsFormat
4252:__ZN4core13StringBuilder6appendEi
4253:__Z11IntToStringi
4254:__ZN4core13StringBuilder14UpdateWritePtrERPcb
4255:__ZN19RenderBufferManager8Textures13GetTempBufferEii17DepthBufferFormat19RenderTextureFormat22RenderTextureReadWriteNS0_5FlagsE14VRTextureUsagei23RenderTextureMemoryless
4256:__ZN19RenderBufferManager8Textures13GetTempBufferE17RenderTextureDesc
4257:__ZNK6Camera24GetScreenViewportRectIntEb
4258:__ZN13RenderTexture21FixInvalidDescOptionsER17RenderTextureDesc
4259:__ZNK4core8hash_setINS_4pairIK17RenderTextureDescPN19RenderBufferManager8Textures12TextureEntryELb0EEENS_9hash_pairINS5_9KeyHasherES3_S7_EENS_10equal_pairINSt3__28equal_toIS2_EES3_S7_EEE6lookupIS2_EEPNSH_4nodeERKT_
4260:__ZN6Object27AllocateAndAssignInstanceIDEPS_
4261:__ZN13RenderTexture20SetRenderTextureDescERK17RenderTextureDesc
4262:__ZN13RenderTexture18SetUseDynamicScaleEb
4263:__ZN13RenderTexture6CreateENS_11CreateFlagsE
4264:__ZN13RenderTexture15DiscardContentsEbb
4265:__ZN13RenderTexture24CorrectVerticalTexelSizeEb
4266:__ZN13RenderTexture20SwitchIntoFastMemoryE11SurfaceType12SurfaceUsage15FastMemoryFlagsbf
4267:__ZN13RenderTexture14SetColorFormatE19RenderTextureFormat
4268:__ZN13RenderTexture9SetMipMapEb
4269:__ZN13RenderTexture16SetBindTextureMSEb
4270:__ZN13RenderTexture12SetDimensionE16TextureDimension
4271:__ZN13RenderTextureC2E10MemLabelId18ObjectCreationMode
4272:__ZN7TextureC2E10MemLabelId18ObjectCreationMode
4273:__ZN13RenderTextureD2Ev
4274:__ZN13RenderTextureD0Ev
4275:__ZN13RenderTexture17MainThreadCleanupEv
4276:__ZN13RenderTexture13AwakeFromLoadE17AwakeFromLoadMode
4277:__ZN7Texture16CheckConsistencyEv
4278:__ZN7Texture5ResetEv
4279:__ZNK13RenderTexture22GetTypeVirtualInternalEv
4280:__ZN7Texture7SetNameEPKc
4281:__ZNK13RenderTexture20GetRuntimeMemorySizeEv
4282:__ZN13RenderTexture23VirtualRedirectTransferER19StreamedBinaryWrite
4283:__ZN13RenderTexture23VirtualRedirectTransferER18StreamedBinaryRead
4284:__ZN13RenderTexture23VirtualRedirectTransferER24GenerateTypeTreeTransfer
4285:__ZN13RenderTexture23VirtualRedirectTransferER14SafeBinaryRead
4286:__ZN13RenderTexture13ApplySettingsEv
4287:__ZNK13RenderTexture21GetShadowSamplingModeEv
4288:__ZNK13RenderTexture14IsDepthTextureEv
4289:__ZNK13RenderTexture12IsMemorylessEv
4290:__ZNK13RenderTexture19IsBoundMultisampledEv
4291:__ZNK13RenderTexture12IsUAVAllowedEv
4292:__ZNK13RenderTexture12GetDataWidthEv
4293:__ZNK13RenderTexture13GetDataHeightEv
4294:__ZNK13RenderTexture20GetTextureLayerCountEv
4295:__ZNK13RenderTexture12GetDimensionEv
4296:__ZNK13RenderTexture10GetVRUsageEv
4297:__ZN7Texture33VerifyFileTextureUploadCompletionEv
4298:__ZNK13RenderTexture16ExtractImageImplEP14ImageReference13ImageBlitModebi
4299:__ZNK13RenderTexture37IsBoundMultisampledOnSecondaryTextureEv
4300:__ZN15TextureSettings38ClearUnsupportedSettingsForColorFormatE19RenderTextureFormat
4301:__ZNK15TextureSettings5ApplyE9TextureID16TextureDimensionb17TextureColorSpace18ShadowSamplingModeb
4302:__ZNK15TextureSettings5ApplyER9GfxDevice9TextureID16TextureDimensionb17TextureColorSpace18ShadowSamplingModeb
4303:__ZNK12GraphicsCaps16FindUploadFormatE14GraphicsFormat11FormatUsage
4304:__ZN13RenderTexture8TransferI14SafeBinaryReadEEvRT_
4305:__ZN7Texture8TransferI14SafeBinaryReadEEvRT_
4306:__ZN15TextureSettings8TransferI14SafeBinaryReadEEvRT_
4307:__ZN13RenderTexture8TransferI24GenerateTypeTreeTransferEEvRT_
4308:__ZN7Texture8TransferI24GenerateTypeTreeTransferEEvRT_
4309:__ZN15TextureSettings8TransferI24GenerateTypeTreeTransferEEvRT_
4310:__ZN13RenderTexture8TransferI18StreamedBinaryReadEEvRT_
4311:__ZN7Texture8TransferI18StreamedBinaryReadEEvRT_
4312:__ZN15TextureSettings8TransferI18StreamedBinaryReadEEvRT_
4313:__ZN13RenderTexture8TransferI19StreamedBinaryWriteEEvRT_
4314:__ZN7Texture8TransferI19StreamedBinaryWriteEEvRT_
4315:__ZN15TextureSettings8TransferI19StreamedBinaryWriteEEvRT_
4316:__ZN15TextureSettings16CheckConsistencyEv
4317:__ZN6Camera24OnRenderTextureDestroyedEP13RenderTexture
4318:__ZN25CameraStackRenderingState16GetTargetTextureEv
4319:__ZN7Texture17MainThreadCleanupEv
4320:__ZN19ShaderPropertySheet26SetMatchingTextureIDToNoneE9TextureID
4321:__ZN25CameraStackRenderingState32GetCameraStackTempEyeTextureDescEv
4322:__ZN25CameraStackRenderingState29GetCameraStackTempTextureDescEv
4323:__ZN19StereoRenderTexture12AllocateTempER17RenderTextureDesc
4324:__Z27GetRenderTextureColorFormatbbb
4325:__ZN6Camera23SetTargetTextureBuffersEP13RenderTextureiPK12ObjectHandleI17RenderSurface_TagP17RenderSurfaceBaseES6_PS1_
4326:__ZN7TextureD2Ev
4327:__ZNK7Texture22GetTypeVirtualInternalEv
4328:__ZN7Texture23VirtualRedirectTransferER24GenerateTypeTreeTransfer
4329:__ZN7Texture23VirtualRedirectTransferER14SafeBinaryRead
4330:__ZN7Texture13ApplySettingsEv
4331:__ZN11NamedObjectC2E10MemLabelId18ObjectCreationMode
4332:__ZN6ObjectC2E10MemLabelId18ObjectCreationMode
4333:__ZN14ConstantString12create_emptyEv
4334:__ZNK9Transform18GetWorldScaleLossyEv
4335:__Z25CalculateGlobalScaleLossy23TransformAccessReadOnly
4336:__ZN22DeviceMVPMatricesStateD2Ev
4337:__ZN29ExtractProjectionPlanesHelperILb0EE5ApplyERK10Matrix4x4fP5Plane
4338:__ZL20InitializeGUIShadersv
4339:__ZN9ShaderLab4Pass9ApplyPassEjPK19ShaderPropertySheetR17ShaderPassContextP6ShaderiPKNS_10GrabPassesEPNS_11SubProgramsEPK22DeviceRenderStateBlock
4340:__ZNK9ShaderLab11ShaderState16ApplyShaderStateEjPK19ShaderPropertySheetRK17ShaderPassContextP6ShaderPNS_4PassEPNS_11SubProgramsEPK22DeviceRenderStateBlock
4341:__ZN9ShaderLab10GrabPasses13ApplyGrabPassERKNS_16FastPropertyNameER17ShaderPassContextRKS0_
4342:__ZN9ShaderLab10GrabPasses23ApplyGrabPassMainThreadERKNS_16FastPropertyNameER17ShaderPassContext
4343:__ZN9ShaderLabL15GetSizedTextureEPK6CameraRKNS_16FastPropertyNameEbbRb
4344:__ZN13RenderTexture17SetGlobalPropertyERKN9ShaderLab16FastPropertyNameER17ShaderPassContext
4345:__ZN9ShaderLabL27GetDesiredRenderTextureDescEPK6Camera
4346:__ZN13RenderTexture9GetActiveEi
4347:__ZN13RenderTexture10GrabPixelsEiiii
4348:__ZN7Texture13SetFilterModeE17TextureFilterMode
4349:__ZN13RenderTexture10GrabPixelsE12ObjectHandleI17RenderSurface_TagP17RenderSurfaceBaseES4_iiii
4350:__ZN19ShaderPropertySheet38CopyTextureWithAuxiliaryPropertiesFromERKN9ShaderLab16FastPropertyNameERKS_
4351:__ZNK9ShaderLab11ShaderState20FindSubProgramsToUseEPK6ShaderPKNS_4PassERNS_11SubProgramsERK17ShaderPassContext
4352:__ZN14GraphicsHelper28PrepareShaderParameterBufferER13dynamic_arrayIhLj4EERA6_P10GpuProgramRA6_PK20GpuProgramParametersRA6_PKhRKN9ShaderLab11SubProgramsEPK19ShaderPropertySheetSM_
4353:__ZNK22DeviceRenderStateBlock8OverrideERN9ShaderLab11ShaderState12DeviceStatesERi
4354:__ZNK20GpuProgramParameters13PrepareValuesEPK19ShaderPropertySheetS2_R13dynamic_arrayIhLj4EEjP12GfxPatchInfoPb
4355:__ZL22PrepareValueParametersI21FullParameterPreparerEvRK13dynamic_arrayIN20GpuProgramParameters14ValueParameterELj0EEjjjRS1_IhLj4EERKT_
4356:__ZNK21FullParameterPreparer16OnPrepareTextureERPKN9ShaderLab6TexEnvERKN20GpuProgramParameters16TextureParameterEj
4357:__ZN9ShaderLab11shaderprops16GetComputeBufferEPK19ShaderPropertySheetS3_NS_16FastPropertyNameE
4358:__ZN9ShaderLab11shaderprops9GetTexEnvEPK19ShaderPropertySheetS3_NS_16FastPropertyNameE16TextureDimensionb
4359:__ZNK21FullParameterPreparer14OnPrepareFloatER12PartialArrayIfERKN20GpuProgramParameters14ValueParameterEj
4360:__ZNK21FullParameterPreparer15OnPrepareVectorER12PartialArrayI8Vector4fERKN20GpuProgramParameters14ValueParameterEj
4361:__ZNK21FullParameterPreparer15OnPrepareMatrixER12PartialArrayI10Matrix4x4fERKN20GpuProgramParameters14ValueParameterEj
4362:__ZN9ShaderLab11shaderprops9GetMatrixEPK19ShaderPropertySheetS3_NS_16FastPropertyNameE
4363:__ZN9ShaderLab11shaderprops9GetVectorEPK19ShaderPropertySheetS3_NS_16FastPropertyNameE
4364:__ZNK9ShaderLab7Program24MarkVariantAsUnsupportedERK16ShaderKeywordSet
4365:__ZN9ShaderLab11ShaderState25RemoveUnsupportedProgramsEPK6Shader
4366:__ZNK9ShaderLab10SubProgram14EnsureCompiledEv
4367:__ZN6Shader27MarkShaderStateNotSupportedEPKS_
4368:__ZN6Shader19MarkShaderHasErrorsEPKS_
4369:__ZNK9ShaderLab11ShaderState34ShouldRemoveAnyUnsupportedProgramsEv
4370:__ZNK9ShaderLab7Program19HasMatchingVariantsERK13dynamic_arrayI16ShaderKeywordSetLj0EE
4371:__ZN9ShaderLab7Program14RemoveVariantsERK13dynamic_arrayI16ShaderKeywordSetLj0EE
4372:__ZN12ScriptMapper10FindShaderERKN4core12basic_stringIcNS0_20StringStorageDefaultIcEEEE
4373:__ZN8Material14CreateMaterialER6ShaderN6Object9HideFlagsEb
4374:__ZN8Material9GetShaderEv
4375:__ZN8MaterialD2Ev
4376:__ZN8MaterialD0Ev
4377:__ZN8Material17MainThreadCleanupEv
4378:__ZN8Material13AwakeFromLoadE17AwakeFromLoadMode
4379:__ZN8Material5ResetEv
4380:__ZNK8Material22GetTypeVirtualInternalEv
4381:__ZNK8Material20GetRuntimeMemorySizeEv
4382:__ZN8Material23VirtualRedirectTransferER19StreamedBinaryWrite
4383:__ZN8Material23VirtualRedirectTransferER18StreamedBinaryRead
4384:__ZN8Material23VirtualRedirectTransferER17RemapPPtrTransfer
4385:__ZN8Material23VirtualRedirectTransferER24GenerateTypeTreeTransfer
4386:__ZN8Material23VirtualRedirectTransferER14SafeBinaryRead
4387:__ZN8Material8TransferI14SafeBinaryReadEEvRT_
4388:__ZN14SafeBinaryRead19TransferSTLStyleMapINSt3__23mapIN4core12basic_stringIcNS3_20StringStorageDefaultIcEEEES7_NS1_4lessIS7_EE13stl_allocatorINS1_4pairIKS7_S7_EEL18MemLabelIdentifier1ELi16EEEEEEvRT_17TransferMetaFlags
4389:__ZN14SafeBinaryRead21TransferSTLStyleArrayINSt3__26vectorIN4core12basic_stringIcNS3_20StringStorageDefaultIcEEEE13stl_allocatorIS7_L18MemLabelIdentifier1ELi16EEEEEEvRT_17TransferMetaFlags
4390:__ZNSt3__26vectorINS_4pairI11ShaderTagIDS2_EENS_9allocatorIS3_EEE6insertENS_11__wrap_iterIPKS3_EEOS3_
4391:__ZN18UnityPropertySheet8TransferI14SafeBinaryReadEEvRT_
4392:__ZNSt3__26__treeINS_12__value_typeIN4core12basic_stringIcNS2_20StringStorageDefaultIcEEEES6_EENS_19__map_value_compareIS6_S7_NS_4lessIS6_EELb1EEE13stl_allocatorIS7_L18MemLabelIdentifier1ELi16EEE7destroyEPNS_11__tree_nodeIS7_PvEE
4393:__ZN14SafeBinaryRead19TransferSTLStyleMapINSt3__23mapI39DeprecatedFastPropertyNameSerializationN18UnityPropertySheet11UnityTexEnvENS1_4lessIS3_EENS1_9allocatorINS1_4pairIKS3_S5_EEEEEEEEvRT_17TransferMetaFlags
4394:__ZN14SafeBinaryRead19TransferSTLStyleMapINSt3__23mapI39DeprecatedFastPropertyNameSerializationfNS1_4lessIS3_EENS1_9allocatorINS1_4pairIKS3_fEEEEEEEEvRT_17TransferMetaFlags
4395:__ZN14SafeBinaryRead19TransferSTLStyleMapINSt3__23mapI39DeprecatedFastPropertyNameSerialization10ColorRGBAfNS1_4lessIS3_EENS1_9allocatorINS1_4pairIKS3_S4_EEEEEEEEvRT_17TransferMetaFlags
4396:__ZN14SafeBinaryRead19TransferSTLStyleMapINSt3__23mapIN9ShaderLab16FastPropertyNameEN18UnityPropertySheet11UnityTexEnvENS1_4lessIS4_EENS1_9allocatorINS1_4pairIKS4_S6_EEEEEEEEvRT_17TransferMetaFlags
4397:__ZN14SafeBinaryRead19TransferSTLStyleMapINSt3__23mapIN9ShaderLab16FastPropertyNameEfNS1_4lessIS4_EENS1_9allocatorINS1_4pairIKS4_fEEEEEEEEvRT_17TransferMetaFlags
4398:__ZN14SafeBinaryRead19TransferSTLStyleMapINSt3__23mapIN9ShaderLab16FastPropertyNameE10ColorRGBAfNS1_4lessIS4_EENS1_9allocatorINS1_4pairIKS4_S5_EEEEEEEEvRT_17TransferMetaFlags
4399:__ZNSt3__26__treeINS_12__value_typeIN9ShaderLab16FastPropertyNameE10ColorRGBAfEENS_19__map_value_compareIS3_S5_NS_4lessIS3_EELb1EEENS_9allocatorIS5_EEE7destroyEPNS_11__tree_nodeIS5_PvEE
4400:__ZN15SerializeTraitsINSt3__24pairIN9ShaderLab16FastPropertyNameE10ColorRGBAfEEE8TransferI14SafeBinaryReadEEvRS5_RT_
4401:__ZNSt3__26__treeINS_12__value_typeIN9ShaderLab16FastPropertyNameEfEENS_19__map_value_compareIS3_S4_NS_4lessIS3_EELb1EEENS_9allocatorIS4_EEE7destroyEPNS_11__tree_nodeIS4_PvEE
4402:__ZN15SerializeTraitsINSt3__24pairIN9ShaderLab16FastPropertyNameEfEEE8TransferI14SafeBinaryReadEEvRS4_RT_
4403:__ZNSt3__26__treeINS_12__value_typeIN9ShaderLab16FastPropertyNameEN18UnityPropertySheet11UnityTexEnvEEENS_19__map_value_compareIS3_S6_NS_4lessIS3_EELb1EEENS_9allocatorIS6_EEE7destroyEPNS_11__tree_nodeIS6_PvEE
4404:__ZN15SerializeTraitsINSt3__24pairIN9ShaderLab16FastPropertyNameEN18UnityPropertySheet11UnityTexEnvEEEE8TransferI14SafeBinaryReadEEvRS6_RT_
4405:__ZN18UnityPropertySheet11UnityTexEnv8TransferI14SafeBinaryReadEEvRT_
4406:__ZNSt3__26__treeINS_12__value_typeI39DeprecatedFastPropertyNameSerialization10ColorRGBAfEENS_19__map_value_compareIS2_S4_NS_4lessIS2_EELb1EEENS_9allocatorIS4_EEE7destroyEPNS_11__tree_nodeIS4_PvEE
4407:__ZN15SerializeTraitsINSt3__24pairI39DeprecatedFastPropertyNameSerialization10ColorRGBAfEEE8TransferI14SafeBinaryReadEEvRS4_RT_
4408:__ZN39DeprecatedFastPropertyNameSerialization8TransferI14SafeBinaryReadEEvRT_
4409:__ZNSt3__26__treeINS_12__value_typeI39DeprecatedFastPropertyNameSerializationfEENS_19__map_value_compareIS2_S3_NS_4lessIS2_EELb1EEENS_9allocatorIS3_EEE7destroyEPNS_11__tree_nodeIS3_PvEE
4410:__ZNSt3__26__treeINS_12__value_typeI39DeprecatedFastPropertyNameSerializationN18UnityPropertySheet11UnityTexEnvEEENS_19__map_value_compareIS2_S5_NS_4lessIS2_EELb1EEENS_9allocatorIS5_EEE7destroyEPNS_11__tree_nodeIS5_PvEE
4411:__ZN15SerializeTraitsINSt3__24pairI39DeprecatedFastPropertyNameSerializationN18UnityPropertySheet11UnityTexEnvEEEE8TransferI14SafeBinaryReadEEvRS5_RT_
4412:__ZNSt3__214__split_bufferINS_4pairI11ShaderTagIDS2_EERNS_9allocatorIS3_EEE9push_backEOS3_
4413:__ZN18SharedMaterialDataD2Ev
4414:__ZN18SharedMaterialDataD0Ev
4415:__ZN24MaterialDisplayListCache20MaterialDisplayLists22InvalidateDisplayListsEv
4416:__Z14resize_trimmedINSt3__26vectorIN4core12basic_stringIcNS2_20StringStorageDefaultIcEEEE13stl_allocatorIS6_L18MemLabelIdentifier1ELi16EEEEEvRT_j
4417:__ZNSt3__26vectorIN4core12basic_stringIcNS1_20StringStorageDefaultIcEEEE13stl_allocatorIS5_L18MemLabelIdentifier1ELi16EEE7reserveEj
4418:__ZNSt3__26vectorIN4core12basic_stringIcNS1_20StringStorageDefaultIcEEEE13stl_allocatorIS5_L18MemLabelIdentifier1ELi16EEE6assignINS_11__wrap_iterIPS5_EEEENS_9enable_ifIXaasr21__is_forward_iteratorIT_EE5valuesr16is_constructibleIS5_NS_15iterator_traitsISF_E9referenceEEE5valueEvE4typeESF_SF_
4419:__ZNSt3__26vectorIN4core12basic_stringIcNS1_20StringStorageDefaultIcEEEE13stl_allocatorIS5_L18MemLabelIdentifier1ELi16EEE8__appendEj
4420:__ZNSt3__26vectorIN4core12basic_stringIcNS1_20StringStorageDefaultIcEEEE13stl_allocatorIS5_L18MemLabelIdentifier1ELi16EEEC2INS_11__wrap_iterIPS5_EEEET_SE_RKS8_PNS_9enable_ifIXaasr21__is_forward_iteratorISE_EE5valuesr16is_constructibleIS5_NS_15iterator_traitsISE_E9referenceEEE5valueEvE4typeE
4421:__ZN15SerializeTraitsINSt3__24pairIN4core12basic_stringIcNS2_20StringStorageDefaultIcEEEES6_EEE8TransferI14SafeBinaryReadEEvRS7_RT_
4422:__ZNSt3__26__treeINS_12__value_typeIN4core12basic_stringIcNS2_20StringStorageDefaultIcEEEES6_EENS_19__map_value_compareIS6_S7_NS_4lessIS6_EELb1EEE13stl_allocatorIS7_L18MemLabelIdentifier1ELi16EEE25__emplace_unique_key_argsIS6_JRNS_4pairIS6_S6_EEEEENSH_INS_15__tree_iteratorIS7_PNS_11__tree_nodeIS7_PvEEiEEbEERKT_DpOT0_
4423:__ZNSt3__26__treeINS_12__value_typeIN4core12basic_stringIcNS2_20StringStorageDefaultIcEEEES6_EENS_19__map_value_compareIS6_S7_NS_4lessIS6_EELb1EEE13stl_allocatorIS7_L18MemLabelIdentifier1ELi16EEE16__construct_nodeIJRNS_4pairIS6_S6_EEEEENS_10unique_ptrINS_11__tree_nodeIS7_PvEENS_22__tree_node_destructorISC_ISN_LSD_1ELi16EEEEEEDpOT_
4424:__ZN8Material8TransferI24GenerateTypeTreeTransferEEvRT_
4425:__ZN24GenerateTypeTreeTransfer19TransferSTLStyleMapINSt3__23mapIN4core12basic_stringIcNS3_20StringStorageDefaultIcEEEES7_NS1_4lessIS7_EE13stl_allocatorINS1_4pairIKS7_S7_EEL18MemLabelIdentifier1ELi16EEEEEEvRT_17TransferMetaFlags
4426:__ZN18UnityPropertySheet8TransferI24GenerateTypeTreeTransferEEvRT_
4427:__ZN15SerializeTraitsIN18UnityPropertySheet11UnityTexEnvEE8TransferI24GenerateTypeTreeTransferEEvRS1_RT_
4428:__ZN15SerializeTraitsINSt3__24pairIN4core12basic_stringIcNS2_20StringStorageDefaultIcEEEES6_EEE8TransferI24GenerateTypeTreeTransferEEvRS7_RT_
4429:__ZN8Material8TransferI17RemapPPtrTransferEEvRT_
4430:__ZN8Material8TransferI18StreamedBinaryReadEEvRT_
4431:__ZN18StreamedBinaryRead19TransferSTLStyleMapINSt3__23mapIN4core12basic_stringIcNS3_20StringStorageDefaultIcEEEES7_NS1_4lessIS7_EE13stl_allocatorINS1_4pairIKS7_S7_EEL18MemLabelIdentifier1ELi16EEEEEEvRT_17TransferMetaFlags
4432:__ZN18StreamedBinaryRead19TransferSTLStyleMapINSt3__23mapIN9ShaderLab16FastPropertyNameEN18UnityPropertySheet11UnityTexEnvENS1_4lessIS4_EENS1_9allocatorINS1_4pairIKS4_S6_EEEEEEEEvRT_17TransferMetaFlags
4433:__ZN18StreamedBinaryRead19TransferSTLStyleMapINSt3__23mapIN9ShaderLab16FastPropertyNameEfNS1_4lessIS4_EENS1_9allocatorINS1_4pairIKS4_fEEEEEEEEvRT_17TransferMetaFlags
4434:__ZN18StreamedBinaryRead19TransferSTLStyleMapINSt3__23mapIN9ShaderLab16FastPropertyNameE10ColorRGBAfNS1_4lessIS4_EENS1_9allocatorINS1_4pairIKS4_S5_EEEEEEEEvRT_17TransferMetaFlags
4435:__ZN18StreamedBinaryRead8TransferINSt3__24pairIN9ShaderLab16FastPropertyNameEfEEEEvRT_PKc17TransferMetaFlags
4436:__ZN18UnityPropertySheet11UnityTexEnv8TransferI18StreamedBinaryReadEEvRT_
4437:__ZN8Material8TransferI19StreamedBinaryWriteEEvRT_
4438:__ZN9shadertag16GetShaderTagNameE11ShaderTagID
4439:__ZNSt3__26__treeINS_12__value_typeIN4core12basic_stringIcNS2_20StringStorageDefaultIcEEEES6_EENS_19__map_value_compareIS6_S7_NS_4lessIS6_EELb1EEE13stl_allocatorIS7_L18MemLabelIdentifier1ELi16EEE25__emplace_unique_key_argsIS6_JRKNS_21piecewise_construct_tENS_5tupleIJOS6_EEENSK_IJEEEEEENS_4pairINS_15__tree_iteratorIS7_PNS_11__tree_nodeIS7_PvEEiEEbEERKT_DpOT0_
4440:__ZN18UnityPropertySheet8TransferI19StreamedBinaryWriteEEvRT_
4441:__Z36UnityPropertySheet_MakeSortedTexEnvsRKNSt3__23mapIN9ShaderLab16FastPropertyNameEN18UnityPropertySheet11UnityTexEnvENS_4lessIS2_EENS_9allocatorINS_4pairIKS2_S4_EEEEEER10vector_mapIS2_S4_S6_NS7_INS8_IS2_S4_EEEEE
4442:__ZN15SerializeTraitsIN9ShaderLab16FastPropertyNameEE8TransferI19StreamedBinaryWriteEEvRS1_RT_
4443:__ZN18UnityPropertySheet11UnityTexEnv8TransferI19StreamedBinaryWriteEEvRT_
4444:__Z35UnityPropertySheet_MakeSortedFloatsRKNSt3__23mapIN9ShaderLab16FastPropertyNameEfNS_4lessIS2_EENS_9allocatorINS_4pairIKS2_fEEEEEER10vector_mapIS2_fS4_NS5_INS6_IS2_fEEEEE
4445:__Z35UnityPropertySheet_MakeSortedColorsRKNSt3__23mapIN9ShaderLab16FastPropertyNameE10ColorRGBAfNS_4lessIS2_EENS_9allocatorINS_4pairIKS2_S3_EEEEEER10vector_mapIS2_S3_S5_NS6_INS7_IS2_S3_EEEEE
4446:__ZL15SortColorByNameRKNSt3__24pairIN9ShaderLab16FastPropertyNameE10ColorRGBAfEES6_
4447:__ZNSt3__26__sortIRPFbRKNS_4pairIN9ShaderLab16FastPropertyNameE10ColorRGBAfEES7_EPS5_EEvT0_SC_T_
4448:__ZNSt3__27__sort3IRPFbRKNS_4pairIN9ShaderLab16FastPropertyNameE10ColorRGBAfEES7_EPS5_EEjT0_SC_SC_T_
4449:__ZNSt3__27__sort4IRPFbRKNS_4pairIN9ShaderLab16FastPropertyNameE10ColorRGBAfEES7_EPS5_EEjT0_SC_SC_SC_T_
4450:__ZNSt3__27__sort5IRPFbRKNS_4pairIN9ShaderLab16FastPropertyNameE10ColorRGBAfEES7_EPS5_EEjT0_SC_SC_SC_SC_T_
4451:__ZNSt3__227__insertion_sort_incompleteIRPFbRKNS_4pairIN9ShaderLab16FastPropertyNameE10ColorRGBAfEES7_EPS5_EEbT0_SC_T_
4452:__ZNSt3__26__sortIRPFbRKNS_4pairIN9ShaderLab16FastPropertyNameEfEES6_EPS4_EEvT0_SB_T_
4453:__ZNSt3__27__sort3IRPFbRKNS_4pairIN9ShaderLab16FastPropertyNameEfEES6_EPS4_EEjT0_SB_SB_T_
4454:__ZNSt3__27__sort5IRPFbRKNS_4pairIN9ShaderLab16FastPropertyNameEfEES6_EPS4_EEjT0_SB_SB_SB_SB_T_
4455:__ZNSt3__227__insertion_sort_incompleteIRPFbRKNS_4pairIN9ShaderLab16FastPropertyNameEfEES6_EPS4_EEbT0_SB_T_
4456:__ZNSt3__26__sortIRPFbRKNS_4pairIN9ShaderLab16FastPropertyNameEN18UnityPropertySheet11UnityTexEnvEEES8_EPS6_EEvT0_SD_T_
4457:__ZNSt3__26vectorINS_4pairIN9ShaderLab16FastPropertyNameEN18UnityPropertySheet11UnityTexEnvEEENS_9allocatorIS6_EEE21__push_back_slow_pathIS6_EEvOT_
4458:__ZNSt3__27__sort3IRPFbRKNS_4pairIN9ShaderLab16FastPropertyNameEN18UnityPropertySheet11UnityTexEnvEEES8_EPS6_EEjT0_SD_SD_T_
4459:__ZNSt3__27__sort4IRPFbRKNS_4pairIN9ShaderLab16FastPropertyNameEN18UnityPropertySheet11UnityTexEnvEEES8_EPS6_EEjT0_SD_SD_SD_T_
4460:__ZNSt3__27__sort5IRPFbRKNS_4pairIN9ShaderLab16FastPropertyNameEN18UnityPropertySheet11UnityTexEnvEEES8_EPS6_EEjT0_SD_SD_SD_SD_T_
4461:__ZNSt3__227__insertion_sort_incompleteIRPFbRKNS_4pairIN9ShaderLab16FastPropertyNameEN18UnityPropertySheet11UnityTexEnvEEES8_EPS6_EEbT0_SD_T_
4462:__ZN8Material15ResetWithShaderEP6Shader
4463:__ZN19ShaderPropertySheet5ClearEb
4464:__ZN8Material17UpdateToNewShaderEb
4465:__ZN8Material14SetOverrideTagE11ShaderTagIDS0_
4466:__ZN8keywords18StringToKeywordSetERKN4core12basic_stringIcNS0_20StringStorageDefaultIcEEEER16ShaderKeywordSet
4467:__ZN15NameToObjectMapI6ShaderNSt3__23mapI4PPtrIS0_EN4core12basic_stringIcNS5_20StringStorageDefaultIcEEEENS1_4lessIS4_EENS1_9allocatorINS1_4pairIKS4_S9_EEEEEENS1_8multimapIS9_S4_NSA_IS9_EENSC_INSD_IKS9_S4_EEEEEEE4FindERSK_
4468:__ZNSt3__26__treeINS_12__value_typeIN4core12basic_stringIcNS2_20StringStorageDefaultIcEEEE4PPtrI6ShaderEEENS_19__map_value_compareIS6_SA_NS_4lessIS6_EELb1EEENS_9allocatorISA_EEE19__equal_range_multiIS6_EENS_4pairINS_15__tree_iteratorISA_PNS_11__tree_nodeISA_PvEEiEESP_EERKT_
4469:__ZN22DeviceMVPMatricesStateC2ER9GfxDevice
4470:__ZN19ShaderPropertySheet18SetTextureUnscaledERK23FastTexturePropertyNameP7Texture8Vector2fS5_
4471:__ZN19ShaderPropertySheet24SetTextureScaleAndOffsetERK23FastTexturePropertyName8Vector2fS3_
4472:__ZN20BaseBehaviourManagerD2Ev
4473:__ZNSt3__26__treeINS_12__value_typeIiNS_4pairIP4ListI8ListNodeI9BehaviourEES8_EEEENS_19__map_value_compareIiSA_NS_4lessIiEELb1EEENS_9allocatorISA_EEE7destroyEPNS_11__tree_nodeISA_PvEE
4474:__ZN18DelayedCallManagerD2Ev
4475:__ZN18DelayedCallManagerD0Ev
4476:__ZN18DelayedCallManager17MainThreadCleanupEv
4477:__ZNK18DelayedCallManager22GetTypeVirtualInternalEv
4478:__ZN18DelayedCallManager6UpdateEi
4479:__ZN19ManagedTempMemScopeD2Ev
4480:__ZN19ManagedTempMemScopeC2Eb
4481:__ZN14StackAllocatorC2Ej10MemLabelIdPKc
4482:__ZN18DelayedCallManager8ClearAllEv
4483:__ZNSt3__26__treeIN18DelayedCallManager8CallbackENS_4lessIS2_EENS_9allocatorIS2_EEE7destroyEPNS_11__tree_nodeIS2_PvEE
4484:__ZN6SpriteD2Ev
4485:__ZN6SpriteD0Ev
4486:__ZN6Sprite17MainThreadCleanupEv
4487:__ZN6Sprite13AwakeFromLoadE17AwakeFromLoadMode
4488:__ZNK6Sprite22GetTypeVirtualInternalEv
4489:__ZN6Sprite23VirtualRedirectTransferER19StreamedBinaryWrite
4490:__ZN6Sprite23VirtualRedirectTransferER18StreamedBinaryRead
4491:__ZN6Sprite23VirtualRedirectTransferER17RemapPPtrTransfer
4492:__ZN6Sprite23VirtualRedirectTransferER24GenerateTypeTreeTransfer
4493:__ZN6Sprite23VirtualRedirectTransferER14SafeBinaryRead
4494:__ZN6Sprite8TransferI14SafeBinaryReadEEvRT_
4495:__ZN16SpriteRenderData8TransferI14SafeBinaryReadEEvRT_
4496:__ZN14SafeBinaryRead21TransferSTLStyleArrayINSt3__26vectorI13dynamic_arrayI8Vector2fLj0EENS1_9allocatorIS5_EEEEEEvRT_17TransferMetaFlags
4497:__ZN14SafeBinaryRead21TransferSTLStyleArrayI13dynamic_arrayI10SpriteBoneLj0EEEEvRT_17TransferMetaFlags
4498:__ZN13dynamic_arrayI10SpriteBoneLj0EE18resize_initializedEj12ResizePolicy
4499:__ZN10SpriteBone8TransferI14SafeBinaryReadEEvRT_
4500:__Z14resize_trimmedINSt3__26vectorI13dynamic_arrayI8Vector2fLj0EENS0_9allocatorIS4_EEEEEvRT_j
4501:__ZN14SafeBinaryRead21TransferSTLStyleArrayI13dynamic_arrayI8Vector2fLj0EEEEvRT_17TransferMetaFlags
4502:__ZNSt3__26vectorI13dynamic_arrayI8Vector2fLj0EENS_9allocatorIS3_EEE7reserveEj
4503:__ZNSt3__26vectorI13dynamic_arrayI8Vector2fLj0EENS_9allocatorIS3_EEE6assignINS_11__wrap_iterIPS3_EEEENS_9enable_ifIXaasr21__is_forward_iteratorIT_EE5valuesr16is_constructibleIS3_NS_15iterator_traitsISC_E9referenceEEE5valueEvE4typeESC_SC_
4504:__ZNSt3__26vectorI13dynamic_arrayI8Vector2fLj0EENS_9allocatorIS3_EEE8__appendEj
4505:__ZN14SafeBinaryRead21TransferSTLStyleArrayI13dynamic_arrayI7SubMeshLj0EEEEvRT_17TransferMetaFlags
4506:__ZN14SafeBinaryRead21TransferSTLStyleArrayI13dynamic_arrayI12SpriteVertexLj0EEEEvRT_17TransferMetaFlags
4507:__ZN14SafeBinaryRead21TransferSTLStyleArrayI13dynamic_arrayItLj0EEEEvRT_17TransferMetaFlags
4508:__Z23SetSpriteMeshIndexCountP14SharedMeshDataj
4509:__Z24SetSpriteMeshVertexCountP14SharedMeshDataj
4510:__ZN10VertexData8TransferI14SafeBinaryReadEEvRT_
4511:__ZN14SafeBinaryRead21TransferSTLStyleArrayI13dynamic_arrayI10Matrix4x4fLj16EEEEvRT_17TransferMetaFlags
4512:__ZN14SafeBinaryRead21TransferSTLStyleArrayI13dynamic_arrayI12BoneWeights4Lj0EEEEvRT_17TransferMetaFlags
4513:__ZN16SpriteRenderData14SetBoneWeightsEPK12BoneWeights4i
4514:__ZN12BoneWeights48TransferI14SafeBinaryReadEEvRT_
4515:__ZN10Matrix4x4f8TransferI14SafeBinaryReadEEvRT_
4516:__ZN14SafeBinaryRead21TransferSTLStyleArrayI13dynamic_arrayI17VertexChannelInfoLj0EEEEvRT_17TransferMetaFlags
4517:__Z33BuildLegacyShaderChannelsFromMaskR13dynamic_arrayI17VertexChannelInfoLj0EEj
4518:__ZN10VertexData27ConvertLegacyShaderChannelsERK13dynamic_arrayI17VertexChannelInfoLj0EE
4519:__ZN14SafeBinaryRead16TransferTypelessEPjPKc17TransferMetaFlags
4520:__ZN14SafeBinaryRead20TransferTypelessDataEjPvi
4521:__ZN10VertexDataC2E10MemLabelIdRKS_17ShaderChannelMaskRK19VertexStreamsLayoutRK22VertexAttributeFormats
4522:__ZN15SerializeTraitsI17VertexChannelInfoE8TransferI14SafeBinaryReadEEvRS0_RT_
4523:__ZN14SafeBinaryRead8TransferItEEvRT_PKc17TransferMetaFlags
4524:__ZN12SpriteVertex8TransferI14SafeBinaryReadEEvRT_
4525:__ZN7SubMesh8TransferI14SafeBinaryReadEEvRT_
4526:__ZN6Sprite8TransferI24GenerateTypeTreeTransferEEvRT_
4527:__ZN16SpriteRenderData8TransferI24GenerateTypeTreeTransferEEvRT_
4528:__ZN15SerializeTraitsI13dynamic_arrayI10SpriteBoneLj0EEE8TransferI24GenerateTypeTreeTransferEEvRS2_RT_
4529:__ZN10SpriteBone8TransferI24GenerateTypeTreeTransferEEvRT_
4530:__ZN7SubMesh8TransferI24GenerateTypeTreeTransferEEvRT_
4531:__ZN10VertexData8TransferI24GenerateTypeTreeTransferEEvRT_
4532:__ZN10Matrix4x4f8TransferI24GenerateTypeTreeTransferEEvRT_
4533:__ZN17VertexChannelInfo8TransferI24GenerateTypeTreeTransferEEvRT_
4534:__ZN24GenerateTypeTreeTransfer16TransferTypelessEPjPKc17TransferMetaFlags
4535:__ZN16SpriteRenderData8TransferI17RemapPPtrTransferEEvRT_
4536:__ZN10VertexData8TransferI17RemapPPtrTransferEEvRT_
4537:__ZN6Sprite8TransferI18StreamedBinaryReadEEvRT_
4538:__ZN16SpriteRenderData8TransferI18StreamedBinaryReadEEvRT_
4539:__ZN18StreamedBinaryRead21TransferSTLStyleArrayINSt3__26vectorI13dynamic_arrayI8Vector2fLj0EENS1_9allocatorIS5_EEEEEEvRT_17TransferMetaFlags
4540:__ZN10SpriteBone8TransferI18StreamedBinaryReadEEvRT_
4541:__ZN18StreamedBinaryRead21TransferSTLStyleArrayI13dynamic_arrayI7SubMeshLj0EEEEvRT_17TransferMetaFlags
4542:__ZN10VertexData8TransferI18StreamedBinaryReadEEvRT_
4543:__ZN10Matrix4x4f8TransferI18StreamedBinaryReadEEvRT_
4544:__ZN18StreamedBinaryRead21TransferSTLStyleArrayI13dynamic_arrayI17VertexChannelInfoLj0EEEEvRT_17TransferMetaFlags
4545:__ZN18StreamedBinaryRead20TransferTypelessDataEjPvi
4546:__ZN18StreamedBinaryRead16TransferTypelessEPjPKc17TransferMetaFlags
4547:__ZN12CachedReader4SkipEj
4548:__ZN17VertexChannelInfo8TransferI18StreamedBinaryReadEEvRT_
4549:__ZN7SubMesh8TransferI18StreamedBinaryReadEEvRT_
4550:__ZN6Sprite8TransferI19StreamedBinaryWriteEEvRT_
4551:__ZN16SpriteRenderData8TransferI19StreamedBinaryWriteEEvRT_
4552:__ZN19StreamedBinaryWrite8TransferI13dynamic_arrayI8Vector2fLj0EEEEvRT_PKc17TransferMetaFlags
4553:__ZN10SpriteBone8TransferI19StreamedBinaryWriteEEvRT_
4554:__ZN7SubMesh8TransferI19StreamedBinaryWriteEEvRT_
4555:__ZN10VertexData8TransferI19StreamedBinaryWriteEEvRT_
4556:__ZN10Matrix4x4f8TransferI19StreamedBinaryWriteEEvRT_
4557:__ZN17VertexChannelInfo8TransferI19StreamedBinaryWriteEEvRT_
4558:__ZN19StreamedBinaryWrite16TransferTypelessEPjPKc17TransferMetaFlags
4559:__ZN19StreamedBinaryWrite20TransferTypelessDataEjPvi
4560:__ZN12CachedWriter5WriteEPKvj
4561:__ZN6Sprite19LoadAtlasRenderDataEb
4562:__ZN18SpriteAtlasManager8GetAtlasERK4PPtrI6SpriteE
4563:__ZNK11SpriteAtlas20GetRuntimeRenderDataEPK6Sprite
4564:__ZNK4core8hash_setINS_4pairIKNSt3__24pairI9UnityGUIDxEE15SpriteAtlasDataLb0EEENS_9hash_pairI23SpriteRenderDataKeyHashS6_S7_EENS_10equal_pairINS2_8equal_toIS5_EES6_S7_EEE6lookupIS5_EEPNSG_4nodeERKT_
4565:__ZN13sorted_vectorI4PPtrI11SpriteAtlasENSt3__24lessIS2_EE13stl_allocatorIS2_L18MemLabelIdentifier1ELi16EEE21sort_clear_duplicatesEv
4566:__ZNK4core8hash_setINS_4pairIKNS_12basic_stringIcNS_20StringStorageDefaultIcEEEE10vector_setI4PPtrI11SpriteAtlasENSt3__24lessISA_EE13stl_allocatorISA_L18MemLabelIdentifier82ELi16EEELb1EEENS_9hash_pairINS_4hashIS5_EES6_SH_EENS_10equal_pairINSB_8equal_toIS5_EES6_SH_EEE6lookupIS5_EEPNSR_4nodeERKT_
4567:__ZN18SpriteAtlasManager19AddRequestingSpriteE4PPtrI6SpriteE
4568:__ZNK4core8hash_setINS_4pairIKNS_12basic_stringIcNS_20StringStorageDefaultIcEEEE13dynamic_arrayI4PPtrI6SpriteELj0EELb1EEENS_9hash_pairINS_4hashIS5_EES6_SB_EENS_10equal_pairINSt3__28equal_toIS5_EES6_SB_EEE6lookupIS5_EEPNSM_4nodeERKT_
4569:__ZN4core8hash_mapINS_12basic_stringIcNS_20StringStorageDefaultIcEEEE13dynamic_arrayI4PPtrI6SpriteELj0EENS_4hashIS4_EENSt3__28equal_toIS4_EEEixERKS4_
4570:__ZN13sorted_vectorIN4core12basic_stringIcNS0_20StringStorageDefaultIcEEEENSt3__24lessIS4_EE13stl_allocatorIS4_L18MemLabelIdentifier82ELi16EEE4findIS4_EENS5_11__wrap_iterIPS4_EERKT_
4571:__ZNSt3__26vectorIN4core12basic_stringIcNS1_20StringStorageDefaultIcEEEE13stl_allocatorIS5_L18MemLabelIdentifier82ELi16EEE21__push_back_slow_pathIRKS5_EEvOT_
4572:__ZN4core8hash_setINS_4pairIKNS_12basic_stringIcNS_20StringStorageDefaultIcEEEE13dynamic_arrayI4PPtrI6SpriteELj0EELb1EEENS_9hash_pairINS_4hashIS5_EES6_SB_EENS_10equal_pairINSt3__28equal_toIS5_EES6_SB_EEE4growEi
4573:__ZNSt3__213__stable_sortIRNS_4lessI4PPtrI11SpriteAtlasEEENS_11__wrap_iterIPS4_EEEEvT0_SA_T_NS_15iterator_traitsISA_E15difference_typeEPNSD_10value_typeEi
4574:__ZNSt3__218__stable_sort_moveIRNS_4lessI4PPtrI11SpriteAtlasEEENS_11__wrap_iterIPS4_EEEEvT0_SA_T_NS_15iterator_traitsISA_E15difference_typeEPNSD_10value_typeE
4575:__ZNSt3__215__inplace_mergeIRNS_4lessI4PPtrI11SpriteAtlasEEENS_11__wrap_iterIPS4_EEEEvT0_SA_SA_T_NS_15iterator_traitsISA_E15difference_typeESE_PNSD_10value_typeEi
4576:__ZN16SpriteRenderData17MainThreadCleanupEv
4577:__ZN23SharedMeshRenderingData6UnloadEv
4578:__ZN13dynamic_arrayI10SpriteBoneLj0EED2Ev
4579:__ZN12CubemapArrayD2Ev
4580:__ZN12CubemapArrayD0Ev
4581:__ZN12CubemapArray17MainThreadCleanupEv
4582:__ZN12CubemapArray13AwakeFromLoadE17AwakeFromLoadMode
4583:__ZN12CubemapArray21AwakeFromLoadThreadedEv
4584:__ZN12CubemapArray5ResetEv
4585:__ZNK12CubemapArray22GetTypeVirtualInternalEv
4586:__ZNK12CubemapArray20GetRuntimeMemorySizeEv
4587:__ZN12CubemapArray23VirtualRedirectTransferER19StreamedBinaryWrite
4588:__ZN12CubemapArray23VirtualRedirectTransferER18StreamedBinaryRead
4589:__ZN12CubemapArray23VirtualRedirectTransferER17RemapPPtrTransfer
4590:__ZN12CubemapArray23VirtualRedirectTransferER24GenerateTypeTreeTransfer
4591:__ZN12CubemapArray23VirtualRedirectTransferER14SafeBinaryRead
4592:__ZNK12CubemapArray26CanReuploadDataToGfxDeviceEv
4593:__ZNK12CubemapArray20GetTextureLayerCountEv
4594:__ZNK12CubemapArray12GetDimensionEv
4595:__ZN12CubemapArray34UpdateFileTextureUploadInstructionEP24TextureUploadInstructionj
4596:__ZNK12CubemapArray13GetIsReadableEv
4597:__ZN12CubemapArray19UnloadFromGfxDeviceEb
4598:__ZN12CubemapArray17UploadToGfxDeviceEv
4599:__ZNK12CubemapArray16ExtractImageImplEP14ImageReference13ImageBlitModebi
4600:__ZN14ImageReference9BlitImageERKS_13ImageBlitMode
4601:__ZL13BlitImageImplR14ImageReferenceiiRKS_17TextureColorSpace13ImageBlitModeb
4602:__ZN6prcore14BlitImageFlipYERK14ImageReferenceRS0_ii
4603:__ZN6prcore9BlitImageERK14ImageReferenceRS0_ii
4604:__ZN6prcore14BlitImageFlipYERK14ImageReferenceRS0_13ImageBlitMode
4605:__ZN6prcore9BlitImageERK14ImageReferenceRS0_13ImageBlitMode
4606:__ZL21BlitScaleStbImageImplRK14ImageReferenceRS_17TextureColorSpace
4607:__ZN6prcore10FlipImageYER14ImageReference
4608:__ZN6prcoreL10inner_flipILj2EEEvPhS1_j
4609:__ZN6prcoreL10inner_flipILj3EEEvPhS1_j
4610:__ZN6prcoreL10inner_flipILj4EEEvPhS1_j
4611:__ZN6prcoreL10inner_flipILj1EEEvPhS1_j
4612:__Z11IsHDRFormat13TextureFormat
4613:__ZL8StbAllocjPv
4614:__ZL7StbFreePvS_
4615:_stbir_resize
4616:__ZL23stbir__resize_arbitraryPvPKviiiS_iiiffffPfiij14stbir_datatype12stbir_filterS4_10stbir_edgeS5_16stbir_colorspace
4617:__ZL23stbir__calculate_memoryP11stbir__info
4618:__ZL24stbir__calculate_filtersP19stbir__contributorsPf12stbir_filterffii
4619:__ZL22stbir__decode_scanlineP11stbir__infoi
4620:__ZL35stbir__resample_horizontal_upsampleP11stbir__infoPf
4621:__ZL37stbir__resample_horizontal_downsampleP11stbir__infoPf
4622:__ZL22stbir__encode_scanlineP11stbir__infoiPvPfiii
4623:__ZL19stbir__support_zerof
4624:__ZL23stbir__filter_trapezoidff
4625:__ZL24stbir__support_trapezoidf
4626:__ZL22stbir__filter_triangleff
4627:__ZL18stbir__support_onef
4628:__ZL19stbir__filter_cubicff
4629:__ZL18stbir__support_twof
4630:__ZL24stbir__filter_catmullromff
4631:__ZL22stbir__filter_mitchellff
4632:__ZL31stbir__filter_mitchell_modifiedff
4633:__ZN6prcoreL21InitRemapBlitterTableEv
4634:__ZN6prcore14BlitImageFloatERK14ImageReferenceRS0_13ImageBlitMode
4635:__ZN6prcore21BlitImageRemapNoScaleERK14ImageReferenceRS0_
4636:__ZN6prcore19BlitImageRemapScaleERK14ImageReferenceRS0_13ImageBlitMode
4637:__ZN6prcore17GetIntegerBlitterE13TextureFormatS0_13ImageBlitMode
4638:__ZN6prcore21CreateRemapAnyBlitterE13TextureFormatS0_
4639:__ZNK6prcore16BlitFuncInfoSIMD10GetBlitterEv
4640:__ZN6prcore16BlitFuncInfoSIMD19BlitFuncExecuteSIMDEPKNS_9InnerInfoEPKv
4641:__ZN6prcoreL29BlitFuncExecuteFromSelectInfoEPKNS_9InnerInfoEPKv
4642:__ZN6prcore22GetIntegerBlitterScaleE13TextureFormatS0_
4643:__ZN6prcore30GetIntegerBlitterBilinearScaleE13TextureFormatS0_
4644:__ZN6prcoreL31inner_stretch_argb8888_bilinearEPKNS_9InnerInfoE
4645:__ZN6prcoreL25inner_stretch_i8_bilinearEPKNS_9InnerInfoE
4646:__ZN6prcoreL29inner_stretch_rgb565_bilinearEPKNS_9InnerInfoE
4647:__ZN6prcoreL29inner_stretch_rgb888_bilinearEPKNS_9InnerInfoE
4648:__ZN6prcoreL31inner_stretch_argb4444_bilinearEPKNS_9InnerInfoE
4649:__ZN6prcoreL27inner_stretch_rg88_bilinearEPKNS_9InnerInfoE
4650:__ZN6prcoreL26inner_stretch_r16_bilinearEPKNS_9InnerInfoE
4651:__ZN6prcoreL13inner_stretchILj1ELj1EEEvPKNS_9InnerInfoE
4652:__ZN6prcoreL13inner_stretchILj2ELj2EEEvPKNS_9InnerInfoE
4653:__ZN6prcoreL13inner_stretchILj3ELj3EEEvPKNS_9InnerInfoE
4654:__ZN6prcoreL13inner_stretchILj4ELj4EEEvPKNS_9InnerInfoE
4655:__ZN6prcore17BlitBilinearFloatERK14ImageReferenceRS0_
4656:__ZN6prcoreL27StretchGenericFloatBilinearI15TexFormatRFloatEEvPKNS_9InnerInfoE
4657:__ZN6prcoreL27StretchGenericFloatBilinearI16TexFormatRGFloatEEvPKNS_9InnerInfoE
4658:__ZN6prcoreL27StretchGenericFloatBilinearI17TexFormatRGBFloatEEvPKNS_9InnerInfoE
4659:__ZN6prcoreL27StretchGenericFloatBilinearI18TexFormatRGBAFloatEEvPKNS_9InnerInfoE
4660:__ZN6prcoreL27StretchGenericFloatBilinearI14TexFormatRHalfEEvPKNS_9InnerInfoE
4661:__ZN6prcoreL27StretchGenericFloatBilinearI15TexFormatRGHalfEEvPKNS_9InnerInfoE
4662:__ZN6prcoreL27StretchGenericFloatBilinearI17TexFormatRGBAHalfEEvPKNS_9InnerInfoE
4663:__ZN6prcoreL21StretchRGB9e5BilinearEPKNS_9InnerInfoE
4664:__Z16rgb9e5_to_float36rgb9e5P10ColorRGBAf
4665:__Z16float3_to_rgb9e5RK10ColorRGBAfP6rgb9e5
4666:__ZN6prcoreL19RemapGenericIntegerI17TexFormatARGB888811TexFormatI8EEvPKNS_9InnerInfoE
4667:__ZN6prcoreL19RemapGenericIntegerI17TexFormatARGB888811TexFormatA8EEvPKNS_9InnerInfoE
4668:__ZN6prcoreL19RemapGenericIntegerI17TexFormatARGB888815TexFormatRGB565EEvPKNS_9InnerInfoE
4669:__ZN6prcoreL19RemapGenericIntegerI17TexFormatARGB888815TexFormatRGB888EEvPKNS_9InnerInfoE
4670:__ZN6prcoreL19RemapGenericIntegerI17TexFormatARGB888817TexFormatARGB1555EEvPKNS_9InnerInfoE
4671:__ZN6prcoreL19RemapGenericIntegerI17TexFormatARGB888817TexFormatARGB4444EEvPKNS_9InnerInfoE
4672:__ZN6prcoreL19RemapGenericIntegerI17TexFormatARGB888815TexFormatBGR888EEvPKNS_9InnerInfoE
4673:__ZN6prcoreL19RemapGenericIntegerI17TexFormatARGB888817TexFormatABGR8888EEvPKNS_9InnerInfoE
4674:__ZN6prcoreL19RemapGenericIntegerI17TexFormatARGB888817TexFormatRGBA4444EEvPKNS_9InnerInfoE
4675:__ZN6prcoreL19RemapGenericIntegerI17TexFormatARGB888817TexFormatBGRA8888EEvPKNS_9InnerInfoE
4676:__ZN6prcoreL22RemapFastARGB32_RGBA32EPKNS_9InnerInfoE
4677:__ZN6prcoreL19RemapGenericIntegerI17TexFormatARGB888811TexFormatR8EEvPKNS_9InnerInfoE
4678:__ZN6prcoreL19RemapGenericIntegerI17TexFormatARGB888813TexFormatRG88EEvPKNS_9InnerInfoE
4679:__ZN6prcoreL19RemapGenericIntegerI17TexFormatARGB888812TexFormatR16EEvPKNS_9InnerInfoE
4680:__ZN6prcoreL19RemapGenericIntegerI11TexFormatI817TexFormatARGB8888EEvPKNS_9InnerInfoE
4681:__ZN6prcoreL19RemapGenericIntegerI11TexFormatI815TexFormatRGB565EEvPKNS_9InnerInfoE
4682:__ZN6prcoreL19RemapGenericIntegerI11TexFormatI815TexFormatRGB888EEvPKNS_9InnerInfoE
4683:__ZN6prcoreL19RemapGenericIntegerI11TexFormatI817TexFormatARGB4444EEvPKNS_9InnerInfoE
4684:__ZN6prcoreL19RemapGenericIntegerI11TexFormatA817TexFormatARGB8888EEvPKNS_9InnerInfoE
4685:__ZN6prcoreL19RemapGenericIntegerI15TexFormatRGB56517TexFormatARGB8888EEvPKNS_9InnerInfoE
4686:__ZN6prcoreL19RemapGenericIntegerI15TexFormatRGB56511TexFormatI8EEvPKNS_9InnerInfoE
4687:__ZN6prcoreL19RemapGenericIntegerI15TexFormatRGB56515TexFormatRGB888EEvPKNS_9InnerInfoE
4688:__ZN6prcoreL19RemapGenericIntegerI15TexFormatRGB56517TexFormatARGB4444EEvPKNS_9InnerInfoE
4689:__ZN6prcoreL19RemapGenericIntegerI15TexFormatRGB56515TexFormatBGR888EEvPKNS_9InnerInfoE
4690:__ZN6prcoreL19RemapGenericIntegerI15TexFormatRGB88817TexFormatARGB8888EEvPKNS_9InnerInfoE
4691:__ZN6prcoreL19RemapGenericIntegerI15TexFormatRGB88811TexFormatI8EEvPKNS_9InnerInfoE
4692:__ZN6prcoreL19RemapGenericIntegerI15TexFormatRGB88815TexFormatRGB565EEvPKNS_9InnerInfoE
4693:__ZN6prcoreL19RemapGenericIntegerI15TexFormatRGB88817TexFormatARGB4444EEvPKNS_9InnerInfoE
4694:__ZN6prcoreL19RemapGenericIntegerI17TexFormatARGB155517TexFormatARGB8888EEvPKNS_9InnerInfoE
4695:__ZN6prcoreL19RemapGenericIntegerI17TexFormatARGB155517TexFormatRGBA8888EEvPKNS_9InnerInfoE
4696:__ZN6prcoreL19RemapGenericIntegerI17TexFormatARGB444417TexFormatARGB8888EEvPKNS_9InnerInfoE
4697:__ZN6prcoreL19RemapGenericIntegerI17TexFormatARGB444411TexFormatI8EEvPKNS_9InnerInfoE
4698:__ZN6prcoreL19RemapGenericIntegerI17TexFormatARGB444415TexFormatRGB565EEvPKNS_9InnerInfoE
4699:__ZN6prcoreL19RemapGenericIntegerI17TexFormatARGB444415TexFormatRGB888EEvPKNS_9InnerInfoE
4700:__ZN6prcoreL19RemapGenericIntegerI17TexFormatARGB444417TexFormatABGR8888EEvPKNS_9InnerInfoE
4701:__ZN6prcoreL19RemapGenericIntegerI15TexFormatBGR88817TexFormatARGB8888EEvPKNS_9InnerInfoE
4702:__ZN6prcoreL19RemapGenericIntegerI17TexFormatABGR888817TexFormatARGB8888EEvPKNS_9InnerInfoE
4703:__ZN6prcoreL19RemapGenericIntegerI17TexFormatRGBA444417TexFormatARGB8888EEvPKNS_9InnerInfoE
4704:__ZN6prcoreL19RemapGenericIntegerI17TexFormatRGBA444417TexFormatABGR8888EEvPKNS_9InnerInfoE
4705:__ZN6prcoreL19RemapGenericIntegerI17TexFormatBGRA888817TexFormatRGBA8888EEvPKNS_9InnerInfoE
4706:__ZN6prcoreL19RemapGenericIntegerI17TexFormatBGRA888817TexFormatABGR8888EEvPKNS_9InnerInfoE
4707:__ZN6prcoreL19RemapGenericIntegerI17TexFormatRGBA888817TexFormatARGB8888EEvPKNS_9InnerInfoE
4708:__ZN6prcoreL19RemapGenericIntegerI17TexFormatRGBA888817TexFormatARGB1555EEvPKNS_9InnerInfoE
4709:__ZN6prcoreL19RemapGenericIntegerI11TexFormatR817TexFormatARGB8888EEvPKNS_9InnerInfoE
4710:__ZN6prcoreL19RemapGenericIntegerI13TexFormatRG8817TexFormatARGB8888EEvPKNS_9InnerInfoE
4711:__ZN6prcoreL19RemapGenericIntegerI12TexFormatR1617TexFormatARGB8888EEvPKNS_9InnerInfoE
4712:__ZN6prcoreL26RemapGenericIntegerToFloatI11TexFormatR815TexFormatRFloatEEvPKNS_9InnerInfoE
4713:__ZN6prcoreL26RemapGenericIntegerToFloatI13TexFormatRG8816TexFormatRGFloatEEvPKNS_9InnerInfoE
4714:__ZN6prcoreL26RemapGenericIntegerToFloatI17TexFormatARGB888815TexFormatRFloatEEvPKNS_9InnerInfoE
4715:__ZN6prcoreL26RemapGenericIntegerToFloatI17TexFormatARGB888816TexFormatRGFloatEEvPKNS_9InnerInfoE
4716:__ZN6prcoreL26RemapGenericIntegerToFloatI17TexFormatARGB888817TexFormatRGBFloatEEvPKNS_9InnerInfoE
4717:__ZN6prcoreL26RemapGenericIntegerToFloatI17TexFormatARGB888818TexFormatRGBAFloatEEvPKNS_9InnerInfoE
4718:__ZN6prcoreL26RemapGenericIntegerToFloatI17TexFormatARGB888818TexFormatARGBFloatEEvPKNS_9InnerInfoE
4719:__ZN6prcoreL26RemapGenericIntegerToFloatI17TexFormatARGB888814TexFormatRHalfEEvPKNS_9InnerInfoE
4720:__ZN6prcoreL26RemapGenericIntegerToFloatI17TexFormatARGB888815TexFormatRGHalfEEvPKNS_9InnerInfoE
4721:__ZN6prcoreL26RemapGenericIntegerToFloatI17TexFormatARGB888817TexFormatRGBAHalfEEvPKNS_9InnerInfoE
4722:__ZN6prcoreL16ARGB8888ToRGB9e5EPKNS_9InnerInfoE
4723:__ZN6prcoreL26RemapGenericFloatToIntegerI15TexFormatRFloat11TexFormatR8EEvPKNS_9InnerInfoE
4724:__ZN6prcoreL26RemapGenericFloatToIntegerI15TexFormatRFloat17TexFormatARGB8888EEvPKNS_9InnerInfoE
4725:__ZN6prcoreL26RemapGenericFloatToIntegerI16TexFormatRGFloat17TexFormatARGB8888EEvPKNS_9InnerInfoE
4726:__ZN6prcoreL26RemapGenericFloatToIntegerI17TexFormatRGBFloat17TexFormatARGB8888EEvPKNS_9InnerInfoE
4727:__ZN6prcoreL26RemapGenericFloatToIntegerI18TexFormatRGBAFloat17TexFormatARGB8888EEvPKNS_9InnerInfoE
4728:__ZN6prcoreL26RemapGenericFloatToIntegerI18TexFormatARGBFloat17TexFormatARGB8888EEvPKNS_9InnerInfoE
4729:__ZN6prcoreL26RemapGenericFloatToIntegerI14TexFormatRHalf17TexFormatARGB8888EEvPKNS_9InnerInfoE
4730:__ZN6prcoreL26RemapGenericFloatToIntegerI15TexFormatRGHalf17TexFormatARGB8888EEvPKNS_9InnerInfoE
4731:__ZN6prcoreL26RemapGenericFloatToIntegerI17TexFormatRGBAHalf17TexFormatARGB8888EEvPKNS_9InnerInfoE
4732:__ZN6prcoreL16RGB9e5ToARGB8888EPKNS_9InnerInfoE
4733:__ZN6prcoreL17RemapGenericFloatI15TexFormatRFloat16TexFormatRGFloatEEvPKNS_9InnerInfoE
4734:__ZN6prcoreL17RemapGenericFloatI15TexFormatRFloat17TexFormatRGBFloatEEvPKNS_9InnerInfoE
4735:__ZN6prcoreL17RemapGenericFloatI15TexFormatRFloat18TexFormatRGBAFloatEEvPKNS_9InnerInfoE
4736:__ZN6prcoreL17RemapGenericFloatI15TexFormatRFloat18TexFormatARGBFloatEEvPKNS_9InnerInfoE
4737:__ZN6prcoreL17RemapGenericFloatI15TexFormatRFloat14TexFormatRHalfEEvPKNS_9InnerInfoE
4738:__ZN6prcoreL17RemapGenericFloatI15TexFormatRFloat15TexFormatRGHalfEEvPKNS_9InnerInfoE
4739:__ZN6prcoreL17RemapGenericFloatI15TexFormatRFloat17TexFormatRGBAHalfEEvPKNS_9InnerInfoE
4740:__ZN6prcoreL17RemapGenericFloatI16TexFormatRGFloat15TexFormatRFloatEEvPKNS_9InnerInfoE
4741:__ZN6prcoreL17RemapGenericFloatI16TexFormatRGFloat17TexFormatRGBFloatEEvPKNS_9InnerInfoE
4742:__ZN6prcoreL17RemapGenericFloatI16TexFormatRGFloat18TexFormatRGBAFloatEEvPKNS_9InnerInfoE
4743:__ZN6prcoreL17RemapGenericFloatI16TexFormatRGFloat18TexFormatARGBFloatEEvPKNS_9InnerInfoE
4744:__ZN6prcoreL17RemapGenericFloatI16TexFormatRGFloat14TexFormatRHalfEEvPKNS_9InnerInfoE
4745:__ZN6prcoreL17RemapGenericFloatI16TexFormatRGFloat15TexFormatRGHalfEEvPKNS_9InnerInfoE
4746:__ZN6prcoreL17RemapGenericFloatI16TexFormatRGFloat17TexFormatRGBAHalfEEvPKNS_9InnerInfoE
4747:__ZN6prcoreL17RemapGenericFloatI17TexFormatRGBFloat15TexFormatRFloatEEvPKNS_9InnerInfoE
4748:__ZN6prcoreL17RemapGenericFloatI17TexFormatRGBFloat16TexFormatRGFloatEEvPKNS_9InnerInfoE
4749:__ZN6prcoreL17RemapGenericFloatI17TexFormatRGBFloat18TexFormatRGBAFloatEEvPKNS_9InnerInfoE
4750:__ZN6prcoreL17RemapGenericFloatI17TexFormatRGBFloat18TexFormatARGBFloatEEvPKNS_9InnerInfoE
4751:__ZN6prcoreL17RemapGenericFloatI17TexFormatRGBFloat14TexFormatRHalfEEvPKNS_9InnerInfoE
4752:__ZN6prcoreL17RemapGenericFloatI17TexFormatRGBFloat15TexFormatRGHalfEEvPKNS_9InnerInfoE
4753:__ZN6prcoreL17RemapGenericFloatI17TexFormatRGBFloat17TexFormatRGBAHalfEEvPKNS_9InnerInfoE
4754:__ZN6prcoreL17RemapGenericFloatI18TexFormatRGBAFloat15TexFormatRFloatEEvPKNS_9InnerInfoE
4755:__ZN6prcoreL17RemapGenericFloatI18TexFormatRGBAFloat16TexFormatRGFloatEEvPKNS_9InnerInfoE
4756:__ZN6prcoreL17RemapGenericFloatI18TexFormatRGBAFloat17TexFormatRGBFloatEEvPKNS_9InnerInfoE
4757:__ZN6prcoreL17RemapGenericFloatI18TexFormatRGBAFloat18TexFormatARGBFloatEEvPKNS_9InnerInfoE
4758:__ZN6prcoreL17RemapGenericFloatI18TexFormatRGBAFloat14TexFormatRHalfEEvPKNS_9InnerInfoE
4759:__ZN6prcoreL17RemapGenericFloatI18TexFormatRGBAFloat15TexFormatRGHalfEEvPKNS_9InnerInfoE
4760:__ZN6prcoreL17RemapGenericFloatI18TexFormatRGBAFloat17TexFormatRGBAHalfEEvPKNS_9InnerInfoE
4761:__ZN6prcoreL17RemapGenericFloatI18TexFormatARGBFloat15TexFormatRFloatEEvPKNS_9InnerInfoE
4762:__ZN6prcoreL17RemapGenericFloatI18TexFormatARGBFloat16TexFormatRGFloatEEvPKNS_9InnerInfoE
4763:__ZN6prcoreL17RemapGenericFloatI18TexFormatARGBFloat17TexFormatRGBFloatEEvPKNS_9InnerInfoE
4764:__ZN6prcoreL17RemapGenericFloatI18TexFormatARGBFloat18TexFormatRGBAFloatEEvPKNS_9InnerInfoE
4765:__ZN6prcoreL17RemapGenericFloatI18TexFormatARGBFloat14TexFormatRHalfEEvPKNS_9InnerInfoE
4766:__ZN6prcoreL17RemapGenericFloatI18TexFormatARGBFloat15TexFormatRGHalfEEvPKNS_9InnerInfoE
4767:__ZN6prcoreL17RemapGenericFloatI18TexFormatARGBFloat17TexFormatRGBAHalfEEvPKNS_9InnerInfoE
4768:__ZN6prcoreL17RemapGenericFloatI14TexFormatRHalf15TexFormatRFloatEEvPKNS_9InnerInfoE
4769:__ZN6prcoreL17RemapGenericFloatI14TexFormatRHalf16TexFormatRGFloatEEvPKNS_9InnerInfoE
4770:__ZN6prcoreL17RemapGenericFloatI14TexFormatRHalf17TexFormatRGBFloatEEvPKNS_9InnerInfoE
4771:__ZN6prcoreL17RemapGenericFloatI14TexFormatRHalf18TexFormatRGBAFloatEEvPKNS_9InnerInfoE
4772:__ZN6prcoreL17RemapGenericFloatI14TexFormatRHalf18TexFormatARGBFloatEEvPKNS_9InnerInfoE
4773:__ZN6prcoreL17RemapGenericFloatI14TexFormatRHalf15TexFormatRGHalfEEvPKNS_9InnerInfoE
4774:__ZN6prcoreL17RemapGenericFloatI14TexFormatRHalf17TexFormatRGBAHalfEEvPKNS_9InnerInfoE
4775:__ZN6prcoreL17RemapGenericFloatI15TexFormatRGHalf15TexFormatRFloatEEvPKNS_9InnerInfoE
4776:__ZN6prcoreL17RemapGenericFloatI15TexFormatRGHalf16TexFormatRGFloatEEvPKNS_9InnerInfoE
4777:__ZN6prcoreL17RemapGenericFloatI15TexFormatRGHalf17TexFormatRGBFloatEEvPKNS_9InnerInfoE
4778:__ZN6prcoreL17RemapGenericFloatI15TexFormatRGHalf18TexFormatRGBAFloatEEvPKNS_9InnerInfoE
4779:__ZN6prcoreL17RemapGenericFloatI15TexFormatRGHalf18TexFormatARGBFloatEEvPKNS_9InnerInfoE
4780:__ZN6prcoreL17RemapGenericFloatI15TexFormatRGHalf14TexFormatRHalfEEvPKNS_9InnerInfoE
4781:__ZN6prcoreL17RemapGenericFloatI15TexFormatRGHalf17TexFormatRGBAHalfEEvPKNS_9InnerInfoE
4782:__ZN6prcoreL17RemapGenericFloatI17TexFormatRGBAHalf15TexFormatRFloatEEvPKNS_9InnerInfoE
4783:__ZN6prcoreL17RemapGenericFloatI17TexFormatRGBAHalf16TexFormatRGFloatEEvPKNS_9InnerInfoE
4784:__ZN6prcoreL17RemapGenericFloatI17TexFormatRGBAHalf17TexFormatRGBFloatEEvPKNS_9InnerInfoE
4785:__ZN6prcoreL17RemapGenericFloatI17TexFormatRGBAHalf18TexFormatRGBAFloatEEvPKNS_9InnerInfoE
4786:__ZN6prcoreL17RemapGenericFloatI17TexFormatRGBAHalf18TexFormatARGBFloatEEvPKNS_9InnerInfoE
4787:__ZN6prcoreL17RemapGenericFloatI17TexFormatRGBAHalf14TexFormatRHalfEEvPKNS_9InnerInfoE
4788:__ZN6prcoreL17RemapGenericFloatI17TexFormatRGBAHalf15TexFormatRGHalfEEvPKNS_9InnerInfoE
4789:__ZN6prcoreL17RGBAFloatToRGB9e5EPKNS_9InnerInfoE
4790:__ZN6prcoreL17RGB9e5ToRGBAFloatEPKNS_9InnerInfoE
4791:__ZN6prcoreL15RemapR16ToFloatEPKNS_9InnerInfoE
4792:__ZN6prcoreL15RemapFloatToR16EPKNS_9InnerInfoE
4793:__ZN14ImageReferenceC2Eiii13TextureFormatPv
4794:__ZN7Texture25ReloadFromStorageIfNeededEPvb
4795:__ZN12CubemapArray13UploadTextureEv
4796:__ZN17PersistentManager14ReloadFromDiskER6Object
4797:__Z21CalculateMipMapOffsetii13TextureFormati
4798:__Z18CalculateImageSizeii13TextureFormat
4799:__ZNK7Texture41QueryPersistentManagerForDataAvailabilityEv
4800:__ZN12CubemapArray8TransferI14SafeBinaryReadEEvRT_
4801:__ZN14SafeBinaryRead21TransferResourceImageE19ActiveResourceImagePKcR13StreamingInfoPvjiPKN5Unity4TypeE
4802:__ZN13StreamingInfo8TransferI14SafeBinaryReadEEvRT_
4803:__ZN12CubemapArray8TransferI24GenerateTypeTreeTransferEEvRT_
4804:__ZN24GenerateTypeTreeTransfer21TransferResourceImageE19ActiveResourceImagePKcR13StreamingInfoPvjiPKN5Unity4TypeE
4805:__ZN29SerializeTraitsForStringTypesIN4core12basic_stringIcNS0_20StringStorageDefaultIcEEEEE8TransferI24GenerateTypeTreeTransferEEvRS4_RT_
4806:__ZN12CubemapArray8TransferI18StreamedBinaryReadEEvRT_
4807:__ZN18StreamedBinaryRead21TransferResourceImageE19ActiveResourceImagePKcR13StreamingInfoPvjiPKN5Unity4TypeE
4808:__ZN12CubemapArray8TransferI19StreamedBinaryWriteEEvRT_
4809:__ZN19StreamedBinaryWrite21TransferResourceImageE19ActiveResourceImagePKcR13StreamingInfoPvjiPKN5Unity4TypeE
4810:__ZN7Texture16BeginAsyncUploadEjb
4811:__Z18UploadAsyncTextureR7Texturejb
4812:__ZN7Texture38InitializeFileTextureUploadInstructionER24TextureUploadInstructionjb
4813:__ZL26CalculateAsyncTextureSizesPK24TextureUploadInstructionRjS2_S2_
4814:__ZL32AsyncTextureReadCompleteCallbackbRK23AsyncUploadCallbackInfo
4815:__ZL38AsyncTextureProcessingCompleteCallbackR9GfxDeviceRK23AsyncUploadCallbackInfo
4816:__ZN18AsyncUploadManager16QueueUploadAssetEPKcjjjRK18AsyncUploadHandler
4817:__ZN15TextureSettings38ClearUnsupportedSettingsForColorFormatE13TextureFormat
4818:__Z19UploadTexture2DDataRK23UploadTextureDataParams
4819:__Z17UploadCubemapData9TextureIDPhjiiii14GraphicsFormat18TextureUploadFlagsR9GfxDevice
4820:__Z16DecompressCrunchPKhRjR13TextureFormatiiii10MemLabelIdi
4821:__ZN4crnd17crnd_unpack_beginEPKvj
4822:__ZN4crnd21crnd_get_texture_infoEPKvjPNS_16crn_texture_infoE
4823:__Z24CalculateImageMipMapSizeii13TextureFormat
4824:__ZN4crnd17crnd_unpack_levelEPvPS0_jjj
4825:__ZN4crnd12crn_unpackerD2Ev
4826:__ZN4crndL20crnd_default_reallocEPvjPjbS0_
4827:__ZN4crnd11crnd_deleteINS_13prefix_coding14decoder_tablesEEEvPT_
4828:__ZN4crnd12crn_unpacker12unpack_levelEPKvjPPvjjj
4829:__ZN4crnd12crn_unpacker11unpack_dxt1EPPhjjj
4830:__ZN4crnd12crn_unpacker11unpack_dxt5EPPhjjj
4831:__ZN4crnd12crn_unpacker12unpack_dxt5aEPPhjjj
4832:__ZN4crnd12crn_unpacker10unpack_dxnEPPhjjj
4833:__ZN4crnd12crn_unpacker11unpack_etc1EPPhjjj
4834:__ZN4crnd12crn_unpacker12unpack_etc2aEPPhjjj
4835:__ZN4crnd16elemental_vector17increase_capacityEjbjPFvPvS1_jE
4836:__ZN4crnd12symbol_codec6decodeERKNS_25static_huffman_data_modelE
4837:__ZN4crnd11crnd_mallocEjPj
4838:__ZN4crnd12crn_unpacker11init_tablesEv
4839:__ZN4crnd12crn_unpacker15decode_palettesEv
4840:__ZN4crnd12crn_unpacker22decode_color_endpointsEv
4841:__ZN4crnd12crn_unpacker22decode_color_selectorsEv
4842:__ZN4crnd12crn_unpacker22decode_alpha_endpointsEv
4843:__ZN4crnd12crn_unpacker26decode_alpha_selectors_etcEv
4844:__ZN4crnd12crn_unpacker22decode_alpha_selectorsEv
4845:__ZN4crnd12symbol_codec32decode_receive_static_data_modelERNS_25static_huffman_data_modelE
4846:__ZN4crnd12symbol_codec11decode_bitsEj
4847:__ZN4crnd25static_huffman_data_model22prepare_decoder_tablesEv
4848:__ZN4crnd13prefix_coding14decoder_tables4initEjPKhj
4849:__Z29SkipMipLevelsForTextureUploadi13TextureFormatiPPKhPiS3_S3_b
4850:__Z19GetBytesForOnePixel13TextureFormat
4851:__ZL17DoScaledPaddedJobP24TextureUploadInstruction
4852:__ZN9TextureOpI11TextureDataE15ExtractMipLevelEPS0_S2_iibb
4853:__ZL18DoCubemapMipmapJobP24TextureUploadInstruction
4854:__ZL15DoDeCruncherJobP24TextureUploadInstruction
4855:__Z25ClampMipLevelToSafeLimitsiiiib
4856:__Z21SourceMipLevelForBlitiiii
4857:__Z23BlitCopyCompressedImage13TextureFormatPKhiiPhiib
4858:__ZN9TextureOpI11TextureDataE12ExtractImageEPS0_P14ImageReference13ImageBlitModebi
4859:__ZN17SharedTextureData32GetCrunchDecompressedTextureDataI11TextureDataEEbRKT_
4860:__ZN9TextureOpI17SharedTextureDataE12ExtractImageEPS0_P14ImageReference13ImageBlitModebi
4861:__Z26GetDecompressTextureFormat13TextureFormat
4862:__ZN5Image9CopyImageERK14ImageReferenceb
4863:__Z41DecompressNativeTextureFormatWithMipLevel13TextureFormatS_iiiPKjiiPj
4864:__ZNK14ImageReference9ClipImageEiiii
4865:__Z14PadImageBorderR14ImageReferenceii
4866:__Z29DecompressNativeTextureFormat13TextureFormatS_iiPKjiiPj
4867:__Z19GetColorBlockColorsPK11DXTColBlockP9Color8888
4868:__Z16DecodeColorBlockPjRK11DXTColBlockiPKj
4869:__Z19DecodeAlphaExplicitPjRK21DXTAlphaBlockExplicitij
4870:__Z21DecodeAlpha3BitLinearPjRK23DXTAlphaBlock3BitLineariji
4871:__Z14DecompressBC6HiiiPKjPj13TextureFormat
4872:__Z13DecompressBC7iiiPKjPj
4873:__Z14DecodeBC7BlockP9HDRColorAPKh
4874:__Z15DecodeBC6HBlockP9HDRColorAPKh
4875:__ZN5Image8SetImageEii13TextureFormatb
4876:__ZN17SharedTextureData32GetCrunchDecompressedTextureDataIS_EEbRKT_
4877:__ZN7CubemapD2Ev
4878:__ZN7CubemapD0Ev
4879:__ZN9Texture2D17MainThreadCleanupEv
4880:__ZN9Texture2D13AwakeFromLoadE17AwakeFromLoadMode
4881:__ZN9Texture2D21AwakeFromLoadThreadedEv
4882:__ZN9Texture2D5ResetEv
4883:__ZNK7Cubemap22GetTypeVirtualInternalEv
4884:__ZNK9Texture2D20GetRuntimeMemorySizeEv
4885:__ZN7Cubemap23VirtualRedirectTransferER19StreamedBinaryWrite
4886:__ZN7Cubemap23VirtualRedirectTransferER18StreamedBinaryRead
4887:__ZN7Cubemap23VirtualRedirectTransferER17RemapPPtrTransfer
4888:__ZN7Cubemap23VirtualRedirectTransferER24GenerateTypeTreeTransfer
4889:__ZN7Cubemap23VirtualRedirectTransferER14SafeBinaryRead
4890:__ZN9Texture2D13ApplySettingsEv
4891:__ZNK9Texture2D20GetUnscaledTextureIDEv
4892:__ZNK9Texture2D16GetNpotTexelSizeEv
4893:__ZNK9Texture2D13IsNPOTAllowedEv
4894:__ZNK9Texture2D26CanReuploadDataToGfxDeviceEv
4895:__ZNK9Texture2D13GetDataHeightEv
4896:__ZNK7Cubemap12GetDimensionEv
4897:__ZN7Cubemap34UpdateFileTextureUploadInstructionEP24TextureUploadInstructionj
4898:__ZN9Texture2D33VerifyFileTextureUploadCompletionEv
4899:__ZNK9Texture2D13GetIsReadableEv
4900:__ZN9Texture2D19UnloadFromGfxDeviceEb
4901:__ZN9Texture2D17UploadToGfxDeviceEv
4902:__ZNK9Texture2D16ExtractImageImplEP14ImageReference13ImageBlitModebi
4903:__ZN7Cubemap13UploadTextureEi
4904:__ZNK9Texture2D13GetDataFormatEv
4905:__ZN7Cubemap11InitTextureEii13TextureFormat20TextureCreationFlagsiii16TextureDimension
4906:__ZN9Texture2D22UploadImageToGfxDeviceERK14ImageReference18TextureUploadFlags
4907:__ZN9Texture2D15UpdateImageDataEv
4908:__ZN9Texture2D30UpdateImageDataDontTouchMipmapEv
4909:__ZN7Cubemap13RebuildMipMapEv
4910:__Z12CreateMipMapPhiii13TextureFormat
4911:__ZN9Texture2D11InitTextureEii13TextureFormat20TextureCreationFlagsiii16TextureDimension
4912:__Z20IsValidTextureFormat13TextureFormat
4913:__Z25GetNextAllowedTextureSizeib13TextureFormat
4914:__Z30CalculateImageSizeWithMipCountii13TextureFormatj
4915:__ZN9Texture2D19InitTextureInternalEii13TextureFormati20TextureCreationFlagsii
4916:__ZN23TextureStreamingManager13RemoveTextureER9Texture2D
4917:__ZN9Texture2D16DeleteGfxTextureEv
4918:__ZN23TextureStreamingManager10AddTextureER9Texture2D
4919:__ZN23TextureStreamingManager14AddTextureDataER9Texture2D
4920:__ZN20TextureStreamingData10AddTextureEii13TextureFormatiii
4921:__ZN17SharedTextureDataC2E10MemLabelIdii13TextureFormatjiibb
4922:__ZN23TextureStreamingManager21RemoveTextureInternalER9Texture2D
4923:__ZN20TextureStreamingData13RemoveTextureEi
4924:__Z29GetTextureSizeAllowedMultiple13TextureFormat
4925:__ZN23TextureStreamingManager20GetLoadedMipmapLevelERK9Texture2D
4926:__ZN14SafeBinaryRead22TransferWithTypeStringI7CubemapEEvRT_PKcS5_17TransferMetaFlags
4927:__ZN9Texture2D8TransferI14SafeBinaryReadEEvRT_
4928:__ZN14SafeBinaryRead21TransferSTLStyleArrayINSt3__26vectorI4PPtrI9Texture2DENS1_9allocatorIS5_EEEEEEvRT_17TransferMetaFlags
4929:__Z14resize_trimmedINSt3__26vectorI4PPtrI9Texture2DENS0_9allocatorIS4_EEEEEvRT_j
4930:__ZNSt3__26vectorI4PPtrI9Texture2DENS_9allocatorIS3_EEE6assignINS_11__wrap_iterIPS3_EEEENS_9enable_ifIXaasr21__is_forward_iteratorIT_EE5valuesr16is_constructibleIS3_NS_15iterator_traitsISC_E9referenceEEE5valueEvE4typeESC_SC_
4931:__ZNSt3__26vectorI4PPtrI9Texture2DENS_9allocatorIS3_EEE8__appendEj
4932:__ZN9Texture2D8TransferI24GenerateTypeTreeTransferEEvRT_
4933:__ZN9Texture2D8TransferI17RemapPPtrTransferEEvRT_
4934:__ZN7Cubemap8TransferI18StreamedBinaryReadEEvRT_
4935:__ZN9Texture2D8TransferI18StreamedBinaryReadEEvRT_
4936:__ZN7Cubemap8TransferI19StreamedBinaryWriteEEvRT_
4937:__ZN9Texture2D8TransferI19StreamedBinaryWriteEEvRT_
4938:__ZN9Texture2DD2Ev
4939:__ZN9Texture2D15ThreadedCleanupEv
4940:__ZN9Texture2DD0Ev
4941:__ZNK9Texture2D22GetTypeVirtualInternalEv
4942:__ZN9Texture2D23VirtualRedirectTransferER19StreamedBinaryWrite
4943:__ZN9Texture2D23VirtualRedirectTransferER18StreamedBinaryRead
4944:__ZN9Texture2D23VirtualRedirectTransferER24GenerateTypeTreeTransfer
4945:__ZN9Texture2D23VirtualRedirectTransferER14SafeBinaryRead
4946:__ZN9Texture2D34UpdateFileTextureUploadInstructionEP24TextureUploadInstructionj
4947:__ZN9Texture2D13UploadTextureEi
4948:__ZN9Texture2D13RebuildMipMapEv
4949:__ZN9Texture2D25CreateScaledAndPaddedDataEPP17SharedTextureDataS2_
4950:__ZN9Texture2D26AllocateScaledOrPaddedDataE13TextureFormat
4951:__ZN17SharedTextureData17GetImageReferenceEii
4952:__ZN9TextureOpI17SharedTextureDataE15ExtractMipLevelEPS0_S2_iibb
4953:__ZN9TextureOpI17SharedTextureDataE22ExtractCompressedImageEPS0_Phiii
4954:__ZN17SharedTextureData17GetImageReferenceEP14ImageReferenceii
4955:__ZN15QualitySettingsD2Ev
4956:__ZN15QualitySettingsD0Ev
4957:__ZN15QualitySettings13AwakeFromLoadE17AwakeFromLoadMode
4958:__ZN15QualitySettings16CheckConsistencyEv
4959:__ZN15QualitySettings5ResetEv
4960:__ZNK15QualitySettings22GetTypeVirtualInternalEv
4961:__ZN15QualitySettings23VirtualRedirectTransferER19StreamedBinaryWrite
4962:__ZN15QualitySettings23VirtualRedirectTransferER18StreamedBinaryRead
4963:__ZN15QualitySettings23VirtualRedirectTransferER24GenerateTypeTreeTransfer
4964:__ZN15QualitySettings23VirtualRedirectTransferER14SafeBinaryRead
4965:__ZN15QualitySettings8TransferI14SafeBinaryReadEEvRT_
4966:__ZN14SafeBinaryRead21TransferSTLStyleArrayINSt3__26vectorIN15QualitySettings14QualitySettingENS1_9allocatorIS4_EEEEEEvRT_17TransferMetaFlags
4967:__ZL32InitializeDefaultQualitySettingsPN15QualitySettings14QualitySettingE
4968:__ZN15QualitySettings14QualitySetting8TransferI14SafeBinaryReadEEvRT_
4969:__ZNSt3__26vectorIN15QualitySettings14QualitySettingENS_9allocatorIS2_EEE6assignIPS2_EENS_9enable_ifIXaasr21__is_forward_iteratorIT_EE5valuesr16is_constructibleIS2_NS_15iterator_traitsIS9_E9referenceEEE5valueEvE4typeES9_S9_
4970:__Z14resize_trimmedINSt3__26vectorIN15QualitySettings14QualitySettingENS0_9allocatorIS3_EEEEEvRT_j
4971:__ZNSt3__26vectorIN15QualitySettings14QualitySettingENS_9allocatorIS2_EEE7reserveEj
4972:__ZNSt3__26vectorIN15QualitySettings14QualitySettingENS_9allocatorIS2_EEE6assignINS_11__wrap_iterIPS2_EEEENS_9enable_ifIXaasr21__is_forward_iteratorIT_EE5valuesr16is_constructibleIS2_NS_15iterator_traitsISB_E9referenceEEE5valueEvE4typeESB_SB_
4973:__ZNSt3__26vectorIN15QualitySettings14QualitySettingENS_9allocatorIS2_EEE8__appendEj
4974:__ZNSt3__26vectorIN15QualitySettings14QualitySettingENS_9allocatorIS2_EEEC2INS_11__wrap_iterIPS2_EEEET_SA_RKS4_PNS_9enable_ifIXaasr21__is_forward_iteratorISA_EE5valuesr16is_constructibleIS2_NS_15iterator_traitsISA_E9referenceEEE5valueEvE4typeE
4975:__ZN15QualitySettings8TransferI24GenerateTypeTreeTransferEEvRT_
4976:__ZN24GenerateTypeTreeTransfer21TransferSTLStyleArrayINSt3__26vectorIN15QualitySettings14QualitySettingENS1_9allocatorIS4_EEEEEEvRT_17TransferMetaFlags
4977:__ZN15QualitySettings14QualitySetting8TransferI24GenerateTypeTreeTransferEEvRT_
4978:__ZN15QualitySettings8TransferI18StreamedBinaryReadEEvRT_
4979:__ZN15QualitySettings14QualitySetting8TransferI18StreamedBinaryReadEEvRT_
4980:__ZN15QualitySettings8TransferI19StreamedBinaryWriteEEvRT_
4981:__ZN15QualitySettings14QualitySetting8TransferI19StreamedBinaryWriteEEvRT_
4982:__ZNSt3__26vectorIN15QualitySettings14QualitySettingENS_9allocatorIS2_EEE21__push_back_slow_pathIRKS2_EEvOT_
4983:__ZN11PlayerPrefs6GetIntERKN4core12basic_stringIcNS0_20StringStorageDefaultIcEEEEi
4984:__ZN15QualitySettings13ApplySettingsEib
4985:__ZN7Texture21SetMasterTextureLimitEib
4986:__ZN23TextureStreamingManager17SetFeatureEnabledEb
4987:__ZN23TextureStreamingManager15SetMemoryBudgetEf
4988:__ZN23TextureStreamingManager20SetRendererBatchSizeEi
4989:__ZN23TextureStreamingResults25UpdateWorkingBufferMemoryEv
4990:__ZN23TextureStreamingResults15ReserveTexturesEj
4991:__ZN23TextureStreamingManager17RescanTextureDataEv
4992:__ZN23TextureStreamingManager15AddRendererDataER8Renderer
4993:__ZN23TextureStreamingResults6ResizeEii
4994:__ZN20TextureStreamingData7CompactEPS_
4995:__ZN20TextureStreamingData11AddRendererEv
4996:__ZN20TextureStreamingDataD2Ev
4997:__ZN20TextureStreamingData19AllocateTextureInfoEP17StreamingRendererj
4998:__Z16ReloadAllSpritesv
4999:__ZL21SetAnisoLimitEnumImplN7Texture20AnisotropicFilteringEb
5000:__ZN15TextureSettings14SetAnisoLimitsEii
5001:__ZL18InitializeIfNeededv
5002:__ZNSt3__26__treeINS_12__value_typeIN4core12basic_stringIcNS2_20StringStorageDefaultIcEEEE9PrefValueEENS_19__map_value_compareIS6_S8_NS_4lessIS6_EELb1EEENS_9allocatorIS8_EEE25__emplace_unique_key_argsIS6_JRKNS_21piecewise_construct_tENS_5tupleIJRKS6_EEENSK_IJEEEEEENS_4pairINS_15__tree_iteratorIS8_PNS_11__tree_nodeIS8_PvEEiEEbEERKT_DpOT0_
5003:__ZL15GetPrefFilePathb
5004:__Z18ReadStringFromFilePN4core17string_with_labelILi1EEERKNS_12basic_stringIcNS_20StringStorageDefaultIcEEEE
5005:__ZL11DecodeValuePPKcS0_
5006:__ZN9Texture3DD2Ev
5007:__ZN9Texture3DD0Ev
5008:__ZN9Texture3D13AwakeFromLoadE17AwakeFromLoadMode
5009:__ZNK9Texture3D22GetTypeVirtualInternalEv
5010:__ZNK9Texture3D20GetRuntimeMemorySizeEv
5011:__ZN9Texture3D23VirtualRedirectTransferER19StreamedBinaryWrite
5012:__ZN9Texture3D23VirtualRedirectTransferER18StreamedBinaryRead
5013:__ZN9Texture3D23VirtualRedirectTransferER17RemapPPtrTransfer
5014:__ZN9Texture3D23VirtualRedirectTransferER24GenerateTypeTreeTransfer
5015:__ZN9Texture3D23VirtualRedirectTransferER14SafeBinaryRead
5016:__ZN9Texture3D13ApplySettingsEv
5017:__ZNK9Texture3D26CanReuploadDataToGfxDeviceEv
5018:__ZNK9Texture3D12GetDimensionEv
5019:__ZN9Texture3D34UpdateFileTextureUploadInstructionEP24TextureUploadInstructionj
5020:__ZN9Texture3D17UploadToGfxDeviceEv
5021:__ZNK9Texture3D16ExtractImageImplEP14ImageReference13ImageBlitModebi
5022:__ZN9Texture3D13UploadTextureEi
5023:__ZN9Texture3D8TransferI14SafeBinaryReadEEvRT_
5024:__ZN9Texture3D8TransferI24GenerateTypeTreeTransferEEvRT_
5025:__ZN9Texture3D8TransferI18StreamedBinaryReadEEvRT_
5026:__ZN9Texture3D8TransferI19StreamedBinaryWriteEEvRT_
5027:__ZN13ScreenManager17RequestResolutionEii14FullscreenModei
5028:__ZN13ScreenManager22SetRequestedResolutionEv
5029:__ZN13ScreenManager14GetResolutionsER13dynamic_arrayI10ResolutionLj0EE
5030:__ZNK13ScreenManager19GetSystemResolutionEv
5031:__ZNK13ScreenManager20GetCurrentResolutionEv
5032:__ZNK13ScreenManager16GetScreenTimeoutEv
5033:__ZNK13ScreenManager21GetCursorInsideWindowEv
5034:__ZN13ScreenManager21SetCursorInsideWindowEb
5035:__ZNK13ScreenManager11GetSafeAreaEv
5036:__ZN13ScreenManager26ReapplyRequestedResolutionEv
5037:__ZNK13ScreenManager6GetDPIEv
5038:__ZNK13ScreenManager17GetFullscreenModeEv
5039:__ZN13ScreenManager18RequestOrientationE17ScreenOrientation
5040:__ZNK13ScreenManager20GetScreenOrientationEv
5041:__ZN13ScreenManager20SetScreenOrientationE17ScreenOrientation
5042:__ZN13ScreenManager23SetIsOrientationEnabledE18EnabledOrientationb
5043:__ZN14Texture2DArrayD2Ev
5044:__ZN14Texture2DArrayD0Ev
5045:__ZN14Texture2DArray17MainThreadCleanupEv
5046:__ZN14Texture2DArray13AwakeFromLoadE17AwakeFromLoadMode
5047:__ZNK14Texture2DArray22GetTypeVirtualInternalEv
5048:__ZN14Texture2DArray23VirtualRedirectTransferER19StreamedBinaryWrite
5049:__ZN14Texture2DArray23VirtualRedirectTransferER18StreamedBinaryRead
5050:__ZN14Texture2DArray23VirtualRedirectTransferER24GenerateTypeTreeTransfer
5051:__ZN14Texture2DArray23VirtualRedirectTransferER14SafeBinaryRead
5052:__ZNK14Texture2DArray12GetDimensionEv
5053:__ZN14Texture2DArray34UpdateFileTextureUploadInstructionEP24TextureUploadInstructionj
5054:__ZNK14Texture2DArray13GetIsReadableEv
5055:__ZN14Texture2DArray19UnloadFromGfxDeviceEb
5056:__ZN14Texture2DArray17UploadToGfxDeviceEv
5057:__ZN14Texture2DArray13UploadTextureEv
5058:__ZN14Texture2DArray8TransferI14SafeBinaryReadEEvRT_
5059:__ZN14Texture2DArray8TransferI24GenerateTypeTreeTransferEEvRT_
5060:__ZN14Texture2DArray8TransferI18StreamedBinaryReadEEvRT_
5061:__ZN14Texture2DArray8TransferI19StreamedBinaryWriteEEvRT_
5062:__ZN16LightmapSettingsD2Ev
5063:__ZN16LightmapSettingsD0Ev
5064:__ZN16LightmapSettings13AwakeFromLoadE17AwakeFromLoadMode
5065:__ZN16LightmapSettings5ResetEv
5066:__ZNK16LightmapSettings22GetTypeVirtualInternalEv
5067:__ZN16LightmapSettings23VirtualRedirectTransferER19StreamedBinaryWrite
5068:__ZN16LightmapSettings23VirtualRedirectTransferER18StreamedBinaryRead
5069:__ZN16LightmapSettings23VirtualRedirectTransferER17RemapPPtrTransfer
5070:__ZN16LightmapSettings23VirtualRedirectTransferER24GenerateTypeTreeTransfer
5071:__ZN16LightmapSettings23VirtualRedirectTransferER14SafeBinaryRead
5072:__ZN16LightmapSettings8TransferI14SafeBinaryReadEEvRT_
5073:__ZN21EnlightenSceneMapping8TransferI14SafeBinaryReadEEvRT_
5074:__ZN14SafeBinaryRead21TransferSTLStyleArrayI13dynamic_arrayI12LightmapDataLj0EEEEvRT_17TransferMetaFlags
5075:__ZN10GISettings8TransferI14SafeBinaryReadEEvRT_
5076:__ZN16LightmapSettings18TransferDeprecatedI14SafeBinaryReadEEvRT_
5077:__ZN12LightmapData8TransferI14SafeBinaryReadEEvRT_
5078:__ZN14SafeBinaryRead21TransferSTLStyleArrayI13dynamic_arrayI28EnlightenRendererInformationLj0EEEEvRT_17TransferMetaFlags
5079:__ZN14SafeBinaryRead21TransferSTLStyleArrayI13dynamic_arrayI26EnlightenSystemInformationLj0EEEEvRT_17TransferMetaFlags
5080:__ZN14SafeBinaryRead21TransferSTLStyleArrayI13dynamic_arrayI7Hash128Lj0EEEEvRT_17TransferMetaFlags
5081:__ZN14SafeBinaryRead21TransferSTLStyleArrayI13dynamic_arrayI31EnlightenSystemAtlasInformationLj0EEEEvRT_17TransferMetaFlags
5082:__ZN14SafeBinaryRead21TransferSTLStyleArrayI13dynamic_arrayI33EnlightenTerrainChunksInformationLj0EEEEvRT_17TransferMetaFlags
5083:__ZN21EnlightenSceneMapping16BuildRemapTablesEv
5084:__ZN15SerializeTraitsI33EnlightenTerrainChunksInformationE8TransferI14SafeBinaryReadEEvRS0_RT_
5085:__ZN15SerializeTraitsI31EnlightenSystemAtlasInformationE8TransferI14SafeBinaryReadEEvRS0_RT_
5086:__ZN26EnlightenSystemInformation8TransferI14SafeBinaryReadEEvRT_
5087:__ZN28EnlightenRendererInformation8TransferI14SafeBinaryReadEEvRT_
5088:__ZN16LightmapSettings8TransferI24GenerateTypeTreeTransferEEvRT_
5089:__ZN21EnlightenSceneMapping8TransferI24GenerateTypeTreeTransferEEvRT_
5090:__ZN15SerializeTraitsI12LightmapDataE8TransferI24GenerateTypeTreeTransferEEvRS0_RT_
5091:__ZN10GISettings8TransferI24GenerateTypeTreeTransferEEvRT_
5092:__ZN28EnlightenRendererInformation8TransferI24GenerateTypeTreeTransferEEvRT_
5093:__ZN26EnlightenSystemInformation8TransferI24GenerateTypeTreeTransferEEvRT_
5094:__ZN24GenerateTypeTreeTransfer8TransferI13dynamic_arrayI33EnlightenTerrainChunksInformationLj0EEEEvRT_PKc17TransferMetaFlags
5095:__ZN16LightmapSettings8TransferI17RemapPPtrTransferEEvRT_
5096:__ZN16LightmapSettings8TransferI18StreamedBinaryReadEEvRT_
5097:__ZN21EnlightenSceneMapping8TransferI18StreamedBinaryReadEEvRT_
5098:__ZN18StreamedBinaryRead21TransferSTLStyleArrayI13dynamic_arrayI12LightmapDataLj0EEEEvRT_17TransferMetaFlags
5099:__ZN10GISettings8TransferI18StreamedBinaryReadEEvRT_
5100:__ZN18StreamedBinaryRead21TransferSTLStyleArrayI13dynamic_arrayI28EnlightenRendererInformationLj0EEEEvRT_17TransferMetaFlags
5101:__ZN18StreamedBinaryRead21TransferSTLStyleArrayI13dynamic_arrayI26EnlightenSystemInformationLj0EEEEvRT_17TransferMetaFlags
5102:__ZN18StreamedBinaryRead21TransferSTLStyleArrayI13dynamic_arrayI7Hash128Lj0EEEEvRT_17TransferMetaFlags
5103:__ZN18StreamedBinaryRead21TransferSTLStyleArrayI13dynamic_arrayI31EnlightenSystemAtlasInformationLj0EEEEvRT_17TransferMetaFlags
5104:__ZN18StreamedBinaryRead21TransferSTLStyleArrayI13dynamic_arrayI33EnlightenTerrainChunksInformationLj0EEEEvRT_17TransferMetaFlags
5105:__ZN26EnlightenSystemInformation8TransferI18StreamedBinaryReadEEvRT_
5106:__ZN16LightmapSettings8TransferI19StreamedBinaryWriteEEvRT_
5107:__ZN21EnlightenSceneMapping8TransferI19StreamedBinaryWriteEEvRT_
5108:__ZN10GISettings8TransferI19StreamedBinaryWriteEEvRT_
5109:__ZN19StreamedBinaryWrite21TransferSTLStyleArrayI13dynamic_arrayI28EnlightenRendererInformationLj0EEEEvRT_17TransferMetaFlags
5110:__ZN26EnlightenSystemInformation8TransferI19StreamedBinaryWriteEEvRT_
5111:__ZN15SerializeTraitsI13dynamic_arrayI31EnlightenSystemAtlasInformationLj0EEE8TransferI19StreamedBinaryWriteEEvRS2_RT_
5112:__ZN10GISettings5ResetEv
5113:__ZN13RenderTexture14SetDepthFormatE17DepthBufferFormat
5114:__ZN8Material14SetVectorArrayEN9ShaderLab16FastPropertyNameEPK8Vector4fj
5115:__ZN8Material13SetFloatArrayEN9ShaderLab16FastPropertyNameEPKfj
5116:__ZN19ShaderPropertySheet16SetArrayPropertyEN9ShaderLab16FastPropertyNameENS_12PropertyTypeEPKvj
5117:__ZN19CustomRenderTexture22ClearChildDependenciesEv
5118:__ZNSt3__26__treeI4PPtrI19CustomRenderTextureENS_4lessIS3_EENS_9allocatorIS3_EEE7destroyEPNS_11__tree_nodeIS3_PvEE
5119:__ZN8RendererD2Ev
5120:__ZN8RendererD0Ev
5121:__ZN8Renderer17MainThreadCleanupEv
5122:__ZN8Renderer13AwakeFromLoadE17AwakeFromLoadMode
5123:__ZN8Renderer16CheckConsistencyEv
5124:__ZN8Renderer10SmartResetEv
5125:__ZNK8Renderer22GetTypeVirtualInternalEv
5126:__ZN8Renderer23VirtualRedirectTransferER19StreamedBinaryWrite
5127:__ZN8Renderer23VirtualRedirectTransferER18StreamedBinaryRead
5128:__ZN8Renderer23VirtualRedirectTransferER17RemapPPtrTransfer
5129:__ZN8Renderer23VirtualRedirectTransferER24GenerateTypeTreeTransfer
5130:__ZN8Renderer23VirtualRedirectTransferER14SafeBinaryRead
5131:__ZN8Renderer26SupportedMessagesDidChangeEj
5132:__ZN8Renderer10DeactivateE19DeactivateOperation
5133:__ZNK8Renderer10GetEnabledEv
5134:__ZN8Renderer10SetEnabledEb
5135:__ZN8Renderer21RendererBecameVisibleEv
5136:__ZN8Renderer23RendererBecameInvisibleEv
5137:__ZN8Renderer20RendererAddedToSceneEv
5138:__ZN8Renderer24RendererRemovedFromSceneEv
5139:__ZN8Renderer15AddAsRenderNodeER15RenderNodeQueueRK20DeprecatedSourceData
5140:__ZNK8Renderer8GetLayerEv
5141:__ZNK8Renderer16GetMaterialCountEv
5142:__ZNK8Renderer11GetMaterialEi
5143:__ZN8Renderer15SetIsRenderableEb
5144:__ZN8Renderer11SetMaterialE4PPtrI8MaterialEi
5145:__ZN8Renderer20SetupSortingOverrideEv
5146:__ZThn32_N8RendererD1Ev
5147:__ZThn32_N8RendererD0Ev
5148:__ZThn32_N8Renderer15AddAsRenderNodeER15RenderNodeQueueRK20DeprecatedSourceData
5149:__ZThn32_NK8Renderer8GetLayerEv
5150:__ZThn32_NK8Renderer16GetMaterialCountEv
5151:__ZThn32_NK8Renderer11GetMaterialEi
5152:__ZN8Renderer15ThreadedCleanupEv
5153:__Z35UpdateSortingGroupStatusForRendererP8Renderer
5154:__ZN8Renderer10AddToSceneEv
5155:__ZN8Renderer15RemoveFromSceneEv
5156:__ZN23TextureStreamingManager14RemoveRendererER8Renderer
5157:__ZN21RendererUpdateManager14RemoveRendererER8Renderer
5158:__ZN20TextureStreamingData14RemoveRendererEi
5159:__ZN13RendererScene11AddRendererEP8Renderer
5160:__ZN8LODGroup23GetLODGroupIndexAndMaskEPK8RendererPjPh
5161:__ZN21RendererUpdateManager11AddRendererER8Renderer
5162:__ZN13RendererScene19AddRendererInternalEP8Rendereri
5163:__ZN13dynamic_arrayIhLj0EE4growEv
5164:__ZN12BaseRenderer16FlattenBasicDataERKS_fR10RenderNode
5165:__ZNK8Renderer29FlattenPerMaterialCustomPropsER22PerThreadPageAllocatorR10RenderNode
5166:__ZN12BaseRenderer18FlattenCustomPropsEPKPK19ShaderPropertySheetiR22PerThreadPageAllocatorR10RenderNode
5167:__Z30GetLightProbeProxyVolumeHandleRK28LightProbeProxyVolumeContextRK8Renderer
5168:__ZN28ReflectionProbeAnchorManager18RemoveCachedAnchorERK4PPtrI9TransformE
5169:__ZN28ReflectionProbeAnchorManager15AddCachedAnchorERK4PPtrI9TransformE
5170:__ZN4core8hash_mapIiN28ReflectionProbeAnchorManager16CachedAnchorDataENS_4hashIiEENSt3__28equal_toIiEEEixERKi
5171:__ZN4core8hash_setIiNS_4hashIiEENSt3__28equal_toIiEEE6insertERKi
5172:__ZN6Object11InvokeEventEi
5173:__ZN13RendererScene30RemoveRendererFromPendingNodesEP8Renderer
5174:__ZN8Renderer8TransferI14SafeBinaryReadEEvRT_
5175:__ZN14SafeBinaryRead21TransferSTLStyleArrayI13dynamic_arrayI4PPtrI8MaterialELj0EEEEvRT_17TransferMetaFlags
5176:__ZN15StaticBatchInfo8TransferI14SafeBinaryReadEEvRT_
5177:__ZN8Renderer8TransferI24GenerateTypeTreeTransferEEvRT_
5178:__ZN8Renderer8TransferI17RemapPPtrTransferEEvRT_
5179:__ZN8Renderer8TransferI18StreamedBinaryReadEEvRT_
5180:__ZN8Renderer8TransferI19StreamedBinaryWriteEEvRT_
5181:__ZN8Renderer16SetMaterialCountEi
5182:__ZN21RendererUpdateManager19DirtyDispatchUpdateER8Renderer
5183:__ZN8Renderer24SetupNewRendererForSceneEv
5184:__ZN8LODGroup25RemoveFromCachedRenderersEP8Renderer
5185:__ZN14SafeBinaryRead21TransferSTLStyleArrayI13dynamic_arrayI8Vector4fLj0EEEEvRT_17TransferMetaFlags
5186:__ZN18StreamedBinaryRead8TransferI13dynamic_arrayItLj0EEEEvRT_PKc17TransferMetaFlags
5187:__ZN8Renderer13BoundsChangedEv
5188:__ZN13RenderTexture9SetActiveEPS_i11CubemapFaceiNS_14SetActiveFlagsE
5189:__Z25LoadFullScreenOrthoMatrixffR9GfxDevice
5190:__ZN8Material8SetFloatEN9ShaderLab16FastPropertyNameEf
5191:__ZN12ImageFilters4BlitER17ShaderPassContextP7TextureP13RenderTextureiP8MaterialiNS_9BlitFlagsE11CubemapFaceRK8Vector2fSC_
5192:__ZN8Material11HasPropertyEN9ShaderLab16FastPropertyNameE
5193:__ZN12ImageFilters4BlitER17ShaderPassContextP7TextureP13RenderTextureiPK18SharedMaterialDataPKcP6ShaderiNS_9BlitFlagsE11CubemapFaceRK8Vector2fSH_
5194:__ZN16BlitStereoHelperC2ER9GfxDeviceR17ShaderPassContextP13RenderTexture
5195:__ZL22SetCurrentRenderTargetP13RenderTextureiNS_14SetActiveFlagsE11CubemapFace
5196:__ZN19ShaderPropertySheet18ReserveValueBufferEj
5197:__ZN14GraphicsHelper15CreateQuadChunkER9GfxDevicebRK5RectTIfE
5198:__ZN16BlitStereoHelper16PrepareEyeRenderEiRK19ShaderPropertySheetRS0_bRK8Vector2fS6_14VRTextureUsage
5199:__ZN14GraphicsHelper15RenderQuadChunkER9GfxDevice16VertexInputMasks
5200:__ZN13RenderTexture9SetActiveEiP12ObjectHandleI17RenderSurface_TagP17RenderSurfaceBaseES4_PPS_i11CubemapFaceiNS_14SetActiveFlagsE
5201:__ZNK19ShaderPropertySheet11HasPropertyERKN9ShaderLab16FastPropertyNameE
5202:__ZN13RenderTexture21MakeRenderTargetSetupEPS_i11CubemapFaceiNS_14SetActiveFlagsE
5203:__ZNK14PlayableOutput17GetSourcePlayableEv
5204:__ZN12ImageFilters4BlitER17ShaderPassContextP7TextureP13RenderTextureiRK8Vector2fS8_NS_9BlitFlagsE
5205:__ZNK6Camera18GetRenderRectangleEv
5206:__ZN12ImageFilters19GetBlitCopyMaterialENS_12BlitCopyModeE
5207:__Z29PluginsIssueRenderingExtQuery26UnityRenderingExtQueryType32GfxDeviceRenderingExtQueryMethod
5208:__ZNK9Transform14TransformPointERK8Vector3f
5209:__ZN15LODGroupManager24UpdateLODGroupParametersEjR8LODGroupRK8Vector3ff
5210:__Z14TransformPoint23TransformAccessReadOnlyRKN4math7_float3E
5211:__ZN12MeshRenderer17MainThreadCleanupEv
5212:__ZN12MeshRenderer13AwakeFromLoadE17AwakeFromLoadMode
5213:__ZNK12MeshRenderer22GetTypeVirtualInternalEv
5214:__ZN12MeshRenderer23VirtualRedirectTransferER19StreamedBinaryWrite
5215:__ZN12MeshRenderer23VirtualRedirectTransferER18StreamedBinaryRead
5216:__ZN12MeshRenderer23VirtualRedirectTransferER17RemapPPtrTransfer
5217:__ZN12MeshRenderer23VirtualRedirectTransferER24GenerateTypeTreeTransfer
5218:__ZN12MeshRenderer23VirtualRedirectTransferER14SafeBinaryRead
5219:__ZN12MeshRenderer10DeactivateE19DeactivateOperation
5220:__ZN12MeshRenderer20RendererAddedToSceneEv
5221:__ZN12MeshRenderer24RendererRemovedFromSceneEv
5222:__ZN12MeshRenderer15AddAsRenderNodeER15RenderNodeQueueRK20DeprecatedSourceData
5223:__ZNK12MeshRenderer19GetStaticBatchIndexEv
5224:__ZThn32_N12MeshRenderer15AddAsRenderNodeER15RenderNodeQueueRK20DeprecatedSourceData
5225:__ZThn32_NK12MeshRenderer19GetStaticBatchIndexEv
5226:__ZN14SafeBinaryRead8TransferI12MeshRendererEEvRT_PKc17TransferMetaFlags
5227:__ZN12MeshRenderer16UpdateCachedMeshEv
5228:__ZN12MeshRenderer18CalculateLocalAABBER4AABBRKS_RK4Mesh
5229:__ZN14SharedMeshData14GetBoneWeightsEi
5230:__ZN8Renderer12GetTransformEv
5231:__ZN4Mesh14GetMeshBuffersER11MeshBuffers16VertexInputMasksPS_b
5232:__Z21CalculateGlobalMatrix23TransformAccessReadOnly
5233:__ZN5crc3213process_blockEPKvS1_
5234:__ZN14SafeBinaryRead21TransferSTLStyleArrayI13dynamic_arrayIfLj0EEEEvRT_17TransferMetaFlags
5235:__ZN14SafeBinaryRead8TransferIfEEvRT_PKc17TransferMetaFlags
5236:__ZNK6Sprite9GetBoundsEbbb
5237:__ZN16SpriteRenderDataC2Ev
5238:__ZN23SharedMeshRenderingDataC2E10MemLabelId
5239:__ZNK9Transform13GetLocalScaleEv
5240:__ZN8Renderer39GetCustomPropertiesRememberToUpdateHashEv
5241:__ZN19ShaderPropertySheet35SetTextureWithNoAuxiliaryPropertiesEN9ShaderLab16FastPropertyNameE9TextureID16TextureDimension14VRTextureUsage
5242:__ZN19ShaderPropertySheet11ComputeHashEv
5243:__ZN22SerializableManagedRef10FindMethodEP6ObjectPKc
5244:__ZN9Scripting26GetMethodWithSearchOptionsE17ScriptingClassPtrPKcN24ScriptingMethodFiltering18MethodSearchFilterE
5245:__ZN4MeshD2Ev
5246:__ZN4MeshD0Ev
5247:__ZN4Mesh17MainThreadCleanupEv
5248:__ZN4Mesh13AwakeFromLoadE17AwakeFromLoadMode
5249:__ZN4Mesh21AwakeFromLoadThreadedEv
5250:__ZNK4Mesh22GetTypeVirtualInternalEv
5251:__ZN4Mesh23VirtualRedirectTransferER19StreamedBinaryWrite
5252:__ZN4Mesh23VirtualRedirectTransferER18StreamedBinaryRead
5253:__ZN4Mesh23VirtualRedirectTransferER17RemapPPtrTransfer
5254:__ZN4Mesh23VirtualRedirectTransferER24GenerateTypeTreeTransfer
5255:__ZN4Mesh23VirtualRedirectTransferER14SafeBinaryRead
5256:__ZN4Mesh8TransferI14SafeBinaryReadEEvRT_
5257:__ZN14BlendShapeData8TransferI14SafeBinaryReadEEvRT_
5258:__ZN14SafeBinaryRead21TransferSTLStyleArrayI13dynamic_arrayI11ColorRGBA32Lj0EEEEvRT_17TransferMetaFlags
5259:__ZN4Mesh22SetBoneWeightsInternalEPK12BoneWeights4i
5260:__ZN14CompressedMesh8TransferI14SafeBinaryReadEEvRT_
5261:__ZN14CompressedMesh10DecompressER4Mesh
5262:__ZN17CollisionMeshData8TransferI14SafeBinaryReadEEvRT_R4Mesh
5263:__ZN17PackedFloatVector12UnpackFloatsEPfiiii
5264:__ZN13dynamic_arrayI10ColorRGBAfLj0EEC2Ej10MemLabelId
5265:__ZN14CompressedMeshC2Ev
5266:__ZN4Mesh14RemoveChannelsE17ShaderChannelMask
5267:__ZN4Mesh27CreateDefaultFormatChannelsE17ShaderChannelMask
5268:__ZN13VertexUtility13SwapEndianessERK14VertexDataInfoPh
5269:__ZN14SafeBinaryRead21TransferSTLStyleArrayI13dynamic_arrayI16BlendShapeVertexLj0EEEEvRT_17TransferMetaFlags
5270:__ZN14SafeBinaryRead21TransferSTLStyleArrayI13dynamic_arrayI10BlendShapeLj0EEEEvRT_17TransferMetaFlags
5271:__ZN14SafeBinaryRead21TransferSTLStyleArrayINSt3__26vectorI17BlendShapeChannelNS1_9allocatorIS3_EEEEEEvRT_17TransferMetaFlags
5272:__Z14resize_trimmedINSt3__26vectorI17BlendShapeChannelNS0_9allocatorIS2_EEEEEvRT_j
5273:__ZN15SerializeTraitsI17BlendShapeChannelE8TransferI14SafeBinaryReadEEvRS0_RT_
5274:__ZNSt3__26vectorI17BlendShapeChannelNS_9allocatorIS1_EEE7reserveEj
5275:__ZNSt3__26vectorI17BlendShapeChannelNS_9allocatorIS1_EEE6assignINS_11__wrap_iterIPS1_EEEENS_9enable_ifIXaasr21__is_forward_iteratorIT_EE5valuesr16is_constructibleIS1_NS_15iterator_traitsISA_E9referenceEEE5valueEvE4typeESA_SA_
5276:__ZNSt3__26vectorI17BlendShapeChannelNS_9allocatorIS1_EEE8__appendEj
5277:__ZN14ConstantString6assignERKS_
5278:__ZN15SerializeTraitsI10BlendShapeE8TransferI14SafeBinaryReadEEvRS0_RT_
5279:__ZN16BlendShapeVertex8TransferI14SafeBinaryReadEEvRT_
5280:__ZN4Mesh8TransferI24GenerateTypeTreeTransferEEvRT_
5281:__ZN24GenerateTypeTreeTransfer8TransferI14BlendShapeDataEEvRT_PKc17TransferMetaFlags
5282:__ZN14CompressedMesh8TransferI24GenerateTypeTreeTransferEEvRT_
5283:__ZN17CollisionMeshData8TransferI24GenerateTypeTreeTransferEEvRT_R4Mesh
5284:__ZN24GenerateTypeTreeTransfer21TransferSTLStyleArrayI13dynamic_arrayI16BlendShapeVertexLj0EEEEvRT_17TransferMetaFlags
5285:__ZN10BlendShape8TransferI24GenerateTypeTreeTransferEEvRT_
5286:__ZN17BlendShapeChannel8TransferI24GenerateTypeTreeTransferEEvRT_
5287:__ZN4Mesh8TransferI17RemapPPtrTransferEEvRT_
5288:__ZN4Mesh8TransferI18StreamedBinaryReadEEvRT_
5289:__ZN14BlendShapeData8TransferI18StreamedBinaryReadEEvRT_
5290:__ZN14CompressedMesh8TransferI18StreamedBinaryReadEEvRT_
5291:__ZN17CollisionMeshData8TransferI18StreamedBinaryReadEEvRT_R4Mesh
5292:__ZN18StreamedBinaryRead21TransferSTLStyleArrayI13dynamic_arrayI16BlendShapeVertexLj0EEEEvRT_17TransferMetaFlags
5293:__ZN18StreamedBinaryRead21TransferSTLStyleArrayI13dynamic_arrayI10BlendShapeLj0EEEEvRT_17TransferMetaFlags
5294:__ZN17BlendShapeChannel8TransferI18StreamedBinaryReadEEvRT_
5295:__ZN10BlendShape8TransferI18StreamedBinaryReadEEvRT_
5296:__ZN16BlendShapeVertex8TransferI18StreamedBinaryReadEEvRT_
5297:__ZN4Mesh8TransferI19StreamedBinaryWriteEEvRT_
5298:__ZN14BlendShapeData8TransferI19StreamedBinaryWriteEEvRT_
5299:__ZN14CompressedMesh8CompressERK4MeshRK21CompressedMeshQuality
5300:__ZN14CompressedMesh8TransferI19StreamedBinaryWriteEEvRT_
5301:__ZN17CollisionMeshData8TransferI19StreamedBinaryWriteEEvRT_R4Mesh
5302:__ZN17PackedFloatVector10PackFloatsEPKfiiiib
5303:__ZN15PackedIntVector8PackIntsItEEvPT_i
5304:__ZN15PackedIntVector8PackIntsIjEEvPT_i
5305:__ZNK4Mesh14ExtractUvArrayEiPfi
5306:__ZNK4Mesh17ExtractColorArrayEP10ColorRGBAf
5307:__ZN14VertexDataInfo18SetAsSingleChannelEj13ShaderChannelRK24VertexFormatAndDimension
5308:__ZN13VertexUtility12CopyChannelsEj17ShaderChannelMaskRK14VertexDataInfoPKhRS1_Ph
5309:__ZN16BlendShapeVertex8TransferI19StreamedBinaryWriteEEvRT_
5310:__ZN10BlendShape8TransferI19StreamedBinaryWriteEEvRT_
5311:__ZN17BlendShapeChannel8TransferI19StreamedBinaryWriteEEvRT_
5312:__ZN17CollisionMeshData21AwakeFromLoadThreadedER4Mesh
5313:__ZN4Mesh23InitializeUploadCommandEPN15MeshAsyncUpload17UploadInstructionE
5314:__ZN14VertexDataInfo4CopyERKS_RS_
5315:__ZN15MeshAsyncUpload17UploadInstruction5ResetEv
5316:__ZN13VertexUtility24CalcChannelLayoutForCapsERK12GraphicsCapsRK14VertexDataInfoR22VertexAttributeFormatsR17ShaderChannelMask
5317:__ZN4Mesh14UploadMeshDataEb
5318:__ZN4Mesh21CompleteUploadCommandEv
5319:__ZN4Mesh18UpdateVertexFormatEv
5320:__ZN17CollisionMeshData7CleanupEv
5321:__ZN17BlendShapesBuffer10InvalidateEv
5322:__ZN10MeshFilterD0Ev
5323:__ZN10MeshFilter13AwakeFromLoadE17AwakeFromLoadMode
5324:__ZNK10MeshFilter22GetTypeVirtualInternalEv
5325:__ZN10MeshFilter23VirtualRedirectTransferER19StreamedBinaryWrite
5326:__ZN10MeshFilter23VirtualRedirectTransferER18StreamedBinaryRead
5327:__ZN10MeshFilter23VirtualRedirectTransferER17RemapPPtrTransfer
5328:__ZN10MeshFilter23VirtualRedirectTransferER24GenerateTypeTreeTransfer
5329:__ZN10MeshFilter23VirtualRedirectTransferER14SafeBinaryRead
5330:__ZN10MeshFilter20WillDestroyComponentEv
5331:__ZN12MeshRenderer13SetSharedMeshE4PPtrI4MeshE
5332:__ZN14SafeBinaryRead8TransferI10MeshFilterEEvRT_PKc17TransferMetaFlags
5333:__ZN14PlayerSettingsD2Ev
5334:__ZN14PlayerSettingsD0Ev
5335:__ZN14PlayerSettings13AwakeFromLoadE17AwakeFromLoadMode
5336:__ZN14PlayerSettings16CheckConsistencyEv
5337:__ZN14PlayerSettings5ResetEv
5338:__ZNK14PlayerSettings22GetTypeVirtualInternalEv
5339:__ZN14PlayerSettings23VirtualRedirectTransferER19StreamedBinaryWrite
5340:__ZN14PlayerSettings23VirtualRedirectTransferER18StreamedBinaryRead
5341:__ZN14PlayerSettings23VirtualRedirectTransferER17RemapPPtrTransfer
5342:__ZN14PlayerSettings23VirtualRedirectTransferER24GenerateTypeTreeTransfer
5343:__ZN14PlayerSettings23VirtualRedirectTransferER14SafeBinaryRead
5344:__ZN14PlayerSettings8TransferI14SafeBinaryReadEEvRT_
5345:__ZN26PlayerSettingsSplashScreen8TransferI14SafeBinaryReadEEvRT_
5346:__ZN15SerializeTraitsI12AspectRatiosE8TransferI14SafeBinaryReadEEvRS0_RT_
5347:__ZN10VRSettings8TransferI14SafeBinaryReadEEvRT_
5348:__ZN10VRSettings9Cardboard8TransferI14SafeBinaryReadEEvRT_
5349:__ZN10VRSettings8Daydream8TransferI14SafeBinaryReadEEvRT_
5350:__ZN10VRSettings8HoloLens8TransferI14SafeBinaryReadEEvRT_
5351:__ZN10VRSettings6Oculus8TransferI14SafeBinaryReadEEvRT_
5352:__ZN14SafeBinaryRead21TransferSTLStyleArrayI13dynamic_arrayI16SplashScreenLogoLj0EEEEvRT_17TransferMetaFlags
5353:__ZN15SerializeTraitsI16SplashScreenLogoE8TransferI14SafeBinaryReadEEvRS0_RT_
5354:__ZN14PlayerSettings8TransferI24GenerateTypeTreeTransferEEvRT_
5355:__ZN26PlayerSettingsSplashScreen8TransferI24GenerateTypeTreeTransferEEvRT_
5356:__ZN12AspectRatios8TransferI24GenerateTypeTreeTransferEEvRT_
5357:__ZN10VRSettings8TransferI24GenerateTypeTreeTransferEEvRT_
5358:__ZN10VRSettings8Daydream8TransferI24GenerateTypeTreeTransferEEvRT_
5359:__ZN14PlayerSettings8TransferI17RemapPPtrTransferEEvRT_
5360:__ZN26PlayerSettingsSplashScreen8TransferI17RemapPPtrTransferEEvRT_
5361:__ZN14PlayerSettings8TransferI18StreamedBinaryReadEEvRT_
5362:__ZN26PlayerSettingsSplashScreen8TransferI18StreamedBinaryReadEEvRT_
5363:__ZN12AspectRatios8TransferI18StreamedBinaryReadEEvRT_
5364:__ZN10VRSettings8TransferI18StreamedBinaryReadEEvRT_
5365:__ZN10VRSettings8Daydream8TransferI18StreamedBinaryReadEEvRT_
5366:__ZN18StreamedBinaryRead21TransferSTLStyleArrayI13dynamic_arrayI16SplashScreenLogoLj0EEEEvRT_17TransferMetaFlags
5367:__ZN14PlayerSettings8TransferI19StreamedBinaryWriteEEvRT_
5368:__ZN26PlayerSettingsSplashScreen8TransferI19StreamedBinaryWriteEEvRT_
5369:__ZN12AspectRatios8TransferI19StreamedBinaryWriteEEvRT_
5370:__ZN10VRSettings8TransferI19StreamedBinaryWriteEEvRT_
5371:__ZN10VRSettings8Daydream8TransferI19StreamedBinaryWriteEEvRT_
5372:__ZN26PlayerSettingsSplashScreen5ResetEv
5373:__ZN26PlayerSettingsSplashScreen16CheckConsistencyEv
5374:__ZN7Cursors17InitializeCursorsEP9Texture2D8Vector2f
5375:__ZN7Cursors9SetCursorEP9Texture2D8Vector2f10CursorMode
5376:__Z13ConvertPixelsPKh13TextureFormatPhS1_j
5377:__ZN14AsyncOperationD2Ev
5378:__ZN14AsyncOperation15InvokeCoroutineEv
5379:__ZN13BuildSettingsD2Ev
5380:__ZN13BuildSettingsD0Ev
5381:__ZN13BuildSettings13AwakeFromLoadE17AwakeFromLoadMode
5382:__ZNK13BuildSettings22GetTypeVirtualInternalEv
5383:__ZN13BuildSettings23VirtualRedirectTransferER19StreamedBinaryWrite
5384:__ZN13BuildSettings23VirtualRedirectTransferER18StreamedBinaryRead
5385:__ZN13BuildSettings23VirtualRedirectTransferER24GenerateTypeTreeTransfer
5386:__ZN13BuildSettings23VirtualRedirectTransferER14SafeBinaryRead
5387:__ZN13BuildSettings8TransferI14SafeBinaryReadEEvRT_
5388:__ZNK12UnityVersionltERKS_
5389:__ZN14SafeBinaryRead21TransferSTLStyleArrayI10vector_mapIPKN5Unity4TypeE7Hash128NSt3__24lessIS5_EENS7_9allocatorINS7_4pairIS5_S6_EEEEEEEvRT_17TransferMetaFlags
5390:__ZNSt3__26__sortIRNS_6__lessINS_4pairIPKN5Unity4TypeE7Hash128EES8_EEPS8_EEvT0_SC_T_
5391:__ZN14SafeBinaryRead21TransferSTLStyleArrayI10vector_mapI7Hash128S2_NSt3__24lessIS2_EENS3_9allocatorINS3_4pairIS2_S2_EEEEEEEvRT_17TransferMetaFlags
5392:__ZNSt3__26vectorINS_4pairI7Hash128S2_EENS_9allocatorIS3_EEE8__appendEj
5393:__ZN15SerializeTraitsINSt3__24pairI7Hash128S2_EEE8TransferI14SafeBinaryReadEEvRS3_RT_
5394:__ZNSt3__27__sort3IRNS_6__lessINS_4pairIPKN5Unity4TypeE7Hash128EES8_EEPS8_EEjT0_SC_SC_T_
5395:__ZNSt3__27__sort4IRNS_6__lessINS_4pairIPKN5Unity4TypeE7Hash128EES8_EEPS8_EEjT0_SC_SC_SC_T_
5396:__ZNSt3__27__sort5IRNS_6__lessINS_4pairIPKN5Unity4TypeE7Hash128EES8_EEPS8_EEjT0_SC_SC_SC_SC_T_
5397:__ZNSt3__218__insertion_sort_3IRNS_6__lessINS_4pairIPKN5Unity4TypeE7Hash128EES8_EEPS8_EEvT0_SC_T_
5398:__ZNSt3__227__insertion_sort_incompleteIRNS_6__lessINS_4pairIPKN5Unity4TypeE7Hash128EES8_EEPS8_EEbT0_SC_T_
5399:__ZNSt3__26vectorINS_4pairIPKN5Unity4TypeE7Hash128EENS_9allocatorIS7_EEE8__appendEj
5400:__ZN15SerializeTraitsINSt3__24pairIPKN5Unity4TypeE7Hash128EEE8TransferI14SafeBinaryReadEEvRS7_RT_
5401:__ZN13BuildSettings8TransferI24GenerateTypeTreeTransferEEvRT_
5402:__ZN24GenerateTypeTreeTransfer8TransferINSt3__26vectorIN4core12basic_stringIcNS3_20StringStorageDefaultIcEEEENS1_9allocatorIS7_EEEEEEvRT_PKc17TransferMetaFlags
5403:__ZN13BuildSettings8TransferI18StreamedBinaryReadEEvRT_
5404:__ZN18StreamedBinaryRead21TransferSTLStyleArrayI10vector_mapIPKN5Unity4TypeE7Hash128NSt3__24lessIS5_EENS7_9allocatorINS7_4pairIS5_S6_EEEEEEEvRT_17TransferMetaFlags
5405:__ZN18StreamedBinaryRead21TransferSTLStyleArrayI10vector_mapI7Hash128S2_NSt3__24lessIS2_EENS3_9allocatorINS3_4pairIS2_S2_EEEEEEEvRT_17TransferMetaFlags
5406:__ZN13BuildSettings8TransferI19StreamedBinaryWriteEEvRT_
5407:__ZN30RuntimeInitializeOnLoadManagerD2Ev
5408:__ZN30RuntimeInitializeOnLoadManagerD0Ev
5409:__ZNK30RuntimeInitializeOnLoadManager22GetTypeVirtualInternalEv
5410:__ZN30RuntimeInitializeOnLoadManager23VirtualRedirectTransferER19StreamedBinaryWrite
5411:__ZN30RuntimeInitializeOnLoadManager23VirtualRedirectTransferER18StreamedBinaryRead
5412:__ZN30RuntimeInitializeOnLoadManager23VirtualRedirectTransferER24GenerateTypeTreeTransfer
5413:__ZN30RuntimeInitializeOnLoadManager23VirtualRedirectTransferER14SafeBinaryRead
5414:__ZN30RuntimeInitializeOnLoadManager8TransferI14SafeBinaryReadEEvRT_
5415:__ZN14SafeBinaryRead21TransferSTLStyleArrayINSt3__26vectorIN4core12basic_stringIcNS3_20StringStorageDefaultIcEEEE13stl_allocatorIS7_L18MemLabelIdentifier13ELi16EEEEEEvRT_17TransferMetaFlags
5416:__ZN14SafeBinaryRead21TransferSTLStyleArrayINSt3__26vectorIN30RuntimeInitializeOnLoadManager9ClassInfoE13stl_allocatorIS4_L18MemLabelIdentifier13ELi16EEEEEEvRT_17TransferMetaFlags
5417:__ZN14SafeBinaryRead21TransferSTLStyleArrayINSt3__26vectorIN30RuntimeInitializeOnLoadManager15ClassMethodInfoE13stl_allocatorIS4_L18MemLabelIdentifier13ELi16EEEEEEvRT_17TransferMetaFlags
5418:__ZN14SafeBinaryRead21TransferSTLStyleArrayINSt3__26vectorIi13stl_allocatorIiL18MemLabelIdentifier13ELi16EEEEEEvRT_17TransferMetaFlags
5419:__Z14resize_trimmedINSt3__26vectorIi13stl_allocatorIiL18MemLabelIdentifier13ELi16EEEEEvRT_j
5420:__ZNSt3__26vectorIi13stl_allocatorIiL18MemLabelIdentifier13ELi16EEE6assignINS_11__wrap_iterIPiEEEENS_9enable_ifIXaasr21__is_forward_iteratorIT_EE5valuesr16is_constructibleIiNS_15iterator_traitsISA_E9referenceEEE5valueEvE4typeESA_SA_
5421:__ZNSt3__26vectorIi13stl_allocatorIiL18MemLabelIdentifier13ELi16EEE8__appendEj
5422:__Z14resize_trimmedINSt3__26vectorIN30RuntimeInitializeOnLoadManager15ClassMethodInfoE13stl_allocatorIS3_L18MemLabelIdentifier13ELi16EEEEEvRT_j
5423:__ZN30RuntimeInitializeOnLoadManager15ClassMethodInfo8TransferI14SafeBinaryReadEEvRT_
5424:__ZNSt3__26vectorIN30RuntimeInitializeOnLoadManager15ClassMethodInfoE13stl_allocatorIS2_L18MemLabelIdentifier13ELi16EEE7reserveEj
5425:__ZNSt3__26vectorIN30RuntimeInitializeOnLoadManager15ClassMethodInfoE13stl_allocatorIS2_L18MemLabelIdentifier13ELi16EEE6assignINS_11__wrap_iterIPS2_EEEENS_9enable_ifIXaasr21__is_forward_iteratorIT_EE5valuesr16is_constructibleIS2_NS_15iterator_traitsISC_E9referenceEEE5valueEvE4typeESC_SC_
5426:__ZNSt3__26vectorIN30RuntimeInitializeOnLoadManager15ClassMethodInfoE13stl_allocatorIS2_L18MemLabelIdentifier13ELi16EEE8__appendEj
5427:__ZNSt3__26vectorIN30RuntimeInitializeOnLoadManager15ClassMethodInfoE13stl_allocatorIS2_L18MemLabelIdentifier13ELi16EEEC2INS_11__wrap_iterIPS2_EEEET_SB_RKS5_PNS_9enable_ifIXaasr21__is_forward_iteratorISB_EE5valuesr16is_constructibleIS2_NS_15iterator_traitsISB_E9referenceEEE5valueEvE4typeE
5428:__Z14resize_trimmedINSt3__26vectorIN30RuntimeInitializeOnLoadManager9ClassInfoE13stl_allocatorIS3_L18MemLabelIdentifier13ELi16EEEEEvRT_j
5429:__ZN30RuntimeInitializeOnLoadManager9ClassInfo8TransferI14SafeBinaryReadEEvRT_
5430:__ZNSt3__26vectorIN30RuntimeInitializeOnLoadManager9ClassInfoE13stl_allocatorIS2_L18MemLabelIdentifier13ELi16EEE7reserveEj
5431:__ZNSt3__26vectorIN30RuntimeInitializeOnLoadManager9ClassInfoE13stl_allocatorIS2_L18MemLabelIdentifier13ELi16EEE6assignINS_11__wrap_iterIPS2_EEEENS_9enable_ifIXaasr21__is_forward_iteratorIT_EE5valuesr16is_constructibleIS2_NS_15iterator_traitsISC_E9referenceEEE5valueEvE4typeESC_SC_
5432:__ZNSt3__26vectorIN30RuntimeInitializeOnLoadManager9ClassInfoE13stl_allocatorIS2_L18MemLabelIdentifier13ELi16EEE8__appendEj
5433:__ZNSt3__26vectorIN30RuntimeInitializeOnLoadManager9ClassInfoE13stl_allocatorIS2_L18MemLabelIdentifier13ELi16EEEC2INS_11__wrap_iterIPS2_EEEET_SB_RKS5_PNS_9enable_ifIXaasr21__is_forward_iteratorISB_EE5valuesr16is_constructibleIS2_NS_15iterator_traitsISB_E9referenceEEE5valueEvE4typeE
5434:__Z14resize_trimmedINSt3__26vectorIN4core12basic_stringIcNS2_20StringStorageDefaultIcEEEE13stl_allocatorIS6_L18MemLabelIdentifier13ELi16EEEEEvRT_j
5435:__ZNSt3__26vectorIN4core12basic_stringIcNS1_20StringStorageDefaultIcEEEE13stl_allocatorIS5_L18MemLabelIdentifier13ELi16EEE7reserveEj
5436:__ZNSt3__26vectorIN4core12basic_stringIcNS1_20StringStorageDefaultIcEEEE13stl_allocatorIS5_L18MemLabelIdentifier13ELi16EEE6assignINS_11__wrap_iterIPS5_EEEENS_9enable_ifIXaasr21__is_forward_iteratorIT_EE5valuesr16is_constructibleIS5_NS_15iterator_traitsISF_E9referenceEEE5valueEvE4typeESF_SF_
5437:__ZNSt3__26vectorIN4core12basic_stringIcNS1_20StringStorageDefaultIcEEEE13stl_allocatorIS5_L18MemLabelIdentifier13ELi16EEE8__appendEj
5438:__ZNSt3__26vectorIN4core12basic_stringIcNS1_20StringStorageDefaultIcEEEE13stl_allocatorIS5_L18MemLabelIdentifier13ELi16EEEC2INS_11__wrap_iterIPS5_EEEET_SE_RKS8_PNS_9enable_ifIXaasr21__is_forward_iteratorISE_EE5valuesr16is_constructibleIS5_NS_15iterator_traitsISE_E9referenceEEE5valueEvE4typeE
5439:__ZN30RuntimeInitializeOnLoadManager8TransferI24GenerateTypeTreeTransferEEvRT_
5440:__ZN15SerializeTraitsINSt3__26vectorIN30RuntimeInitializeOnLoadManager9ClassInfoE13stl_allocatorIS3_L18MemLabelIdentifier13ELi16EEEEE8TransferI24GenerateTypeTreeTransferEEvRS7_RT_
5441:__ZN15SerializeTraitsINSt3__26vectorIN30RuntimeInitializeOnLoadManager15ClassMethodInfoE13stl_allocatorIS3_L18MemLabelIdentifier13ELi16EEEEE8TransferI24GenerateTypeTreeTransferEEvRS7_RT_
5442:__ZN30RuntimeInitializeOnLoadManager15ClassMethodInfo8TransferI24GenerateTypeTreeTransferEEvRT_
5443:__ZN30RuntimeInitializeOnLoadManager9ClassInfo8TransferI24GenerateTypeTreeTransferEEvRT_
5444:__ZN30RuntimeInitializeOnLoadManager8TransferI18StreamedBinaryReadEEvRT_
5445:__ZN30RuntimeInitializeOnLoadManager9ClassInfo8TransferI18StreamedBinaryReadEEvRT_
5446:__ZN30RuntimeInitializeOnLoadManager15ClassMethodInfo8TransferI18StreamedBinaryReadEEvRT_
5447:__ZN30RuntimeInitializeOnLoadManager8TransferI19StreamedBinaryWriteEEvRT_
5448:__ZN30RuntimeInitializeOnLoadManager9ClassInfo8TransferI19StreamedBinaryWriteEEvRT_
5449:__ZN30RuntimeInitializeOnLoadManager15ClassMethodInfo8TransferI19StreamedBinaryWriteEEvRT_
5450:__ZN27GenericSlowGarbageCollector18GenerateInstanceIDEi17TransferMetaFlags
5451:__ZN27GenericSlowGarbageCollector16ProcessReferenceEi
5452:__ZN15ResourceManagerD2Ev
5453:__ZN15ResourceManagerD0Ev
5454:__ZNK15ResourceManager22GetTypeVirtualInternalEv
5455:__ZN15ResourceManager23VirtualRedirectTransferER19StreamedBinaryWrite
5456:__ZN15ResourceManager23VirtualRedirectTransferER18StreamedBinaryRead
5457:__ZN15ResourceManager23VirtualRedirectTransferER17RemapPPtrTransfer
5458:__ZN15ResourceManager23VirtualRedirectTransferER24GenerateTypeTreeTransfer
5459:__ZN15ResourceManager23VirtualRedirectTransferER14SafeBinaryRead
5460:__ZN15ResourceManager8TransferI14SafeBinaryReadEEvRT_
5461:__ZN14SafeBinaryRead19TransferSTLStyleMapINSt3__28multimapIN4core12basic_stringIcNS3_20StringStorageDefaultIcEEEE4PPtrI6ObjectENS1_4lessIS7_EE13stl_allocatorINS1_4pairIKS7_SA_EEL18MemLabelIdentifier53ELi16EEEEEEvRT_17TransferMetaFlags
5462:__ZN14SafeBinaryRead21TransferSTLStyleArrayI13dynamic_arrayIN15ResourceManager10DependencyELj0EEEEvRT_17TransferMetaFlags
5463:__ZNSt3__26__sortIRN15ResourceManager10Dependency6SorterEPS2_EEvT0_S6_T_
5464:__ZNSt3__27__sort3IRN15ResourceManager10Dependency6SorterEPS2_EEjT0_S6_S6_T_
5465:__ZNSt3__27__sort4IRN15ResourceManager10Dependency6SorterEPS2_EEjT0_S6_S6_S6_T_
5466:__ZNSt3__27__sort5IRN15ResourceManager10Dependency6SorterEPS2_EEjT0_S6_S6_S6_S6_T_
5467:__ZNSt3__218__insertion_sort_3IRN15ResourceManager10Dependency6SorterEPS2_EEvT0_S6_T_
5468:__ZNSt3__227__insertion_sort_incompleteIRN15ResourceManager10Dependency6SorterEPS2_EEbT0_S6_T_
5469:__ZN15ResourceManager10Dependency8TransferI14SafeBinaryReadEEvRT_
5470:__ZNSt3__26__treeINS_12__value_typeIN4core12basic_stringIcNS2_20StringStorageDefaultIcEEEE4PPtrI6ObjectEEENS_19__map_value_compareIS6_SA_NS_4lessIS6_EELb1EEE13stl_allocatorISA_L18MemLabelIdentifier53ELi16EEE7destroyEPNS_11__tree_nodeISA_PvEE
5471:__ZNSt3__26__treeINS_12__value_typeIN4core12basic_stringIcNS2_20StringStorageDefaultIcEEEE4PPtrI6ObjectEEENS_19__map_value_compareIS6_SA_NS_4lessIS6_EELb1EEE13stl_allocatorISA_L18MemLabelIdentifier53ELi16EEE15__emplace_multiIJRNS_4pairIS6_S9_EEEEENS_15__tree_iteratorISA_PNS_11__tree_nodeISA_PvEEiEEDpOT_
5472:__ZN15ResourceManager8TransferI24GenerateTypeTreeTransferEEvRT_
5473:__ZN24GenerateTypeTreeTransfer8TransferINSt3__28multimapIN4core12basic_stringIcNS3_20StringStorageDefaultIcEEEE4PPtrI6ObjectENS1_4lessIS7_EE13stl_allocatorINS1_4pairIKS7_SA_EEL18MemLabelIdentifier53ELi16EEEEEEvRT_PKc17TransferMetaFlags
5474:__ZN15ResourceManager10Dependency8TransferI24GenerateTypeTreeTransferEEvRT_
5475:__ZN15SerializeTraitsINSt3__24pairIN4core12basic_stringIcNS2_20StringStorageDefaultIcEEEE4PPtrI6ObjectEEEE8TransferI24GenerateTypeTreeTransferEEvRSA_RT_
5476:__ZN15ResourceManager8TransferI17RemapPPtrTransferEEvRT_
5477:__ZN18StreamedBinaryRead19TransferSTLStyleMapINSt3__28multimapIN4core12basic_stringIcNS3_20StringStorageDefaultIcEEEE4PPtrI6ObjectENS1_4lessIS7_EE13stl_allocatorINS1_4pairIKS7_SA_EEL18MemLabelIdentifier53ELi16EEEEEEvRT_17TransferMetaFlags
5478:__ZN18StreamedBinaryRead21TransferSTLStyleArrayI13dynamic_arrayIN15ResourceManager10DependencyELj0EEEEvRT_17TransferMetaFlags
5479:__ZN15ResourceManager8TransferI19StreamedBinaryWriteEEvRT_
5480:__ZN13LoadOperationD2Ev
5481:__ZN13LoadOperationD0Ev
5482:__ZN23PreloadManagerOperation6IsDoneEv
5483:__ZN23PreloadManagerOperation11GetProgressEv
5484:__ZN13LoadOperation7PerformEv
5485:__ZN13LoadOperation19IntegrateTimeSlicedEi
5486:__ZN13LoadOperation19IntegrateMainThreadEv
5487:__ZN27TimeSliceAwakeFromLoadQueue19IntegrateTimeSlicedEi
5488:__ZN23dynamic_ringbuffer_baseIN27TimeSliceAwakeFromLoadQueue13AsyncInstanceEE8read_ptrERj
5489:__ZN17PersistentManager48IntegrateObjectAndUnlockIntegrationMutexInternalEi
5490:__ZN23dynamic_ringbuffer_baseIN27TimeSliceAwakeFromLoadQueue11SyncCommandEE8read_ptrERj
5491:__Z48AddToTimeSliceAwakeFromLoadQueueProgressCallbackR6ObjectPv
5492:__ZN17PersistentManager19LoadObjectsThreadedEPKiiR12LoadProgressbNS_9LockFlagsE
5493:__ZN17PersistentManager34ExtractTimeSliceAwakeFromLoadQueueER27TimeSliceAwakeFromLoadQueueNS_9LockFlagsE
5494:__ZN23dynamic_ringbuffer_baseIN27TimeSliceAwakeFromLoadQueue11SyncCommandEE9write_ptrERj
5495:__ZN17PersistentManager22CheckInstanceIDsLoadedEPiiNS_9LockFlagsE
5496:__ZN6Object22CheckInstanceIDsLoadedEPii
5497:__ZN18AsyncUploadManager13GetAsyncFenceEP6Object
5498:__ZN23dynamic_ringbuffer_baseIN27TimeSliceAwakeFromLoadQueue13AsyncInstanceEE9write_ptrERj
5499:__ZN13dynamic_arrayIN27TimeSliceAwakeFromLoadQueue13AsyncInstanceELj0EEC2Ej10MemLabelId
5500:__ZN18LoadSceneOperationD2Ev
5501:__ZN18LoadSceneOperationD0Ev
5502:__ZN18LoadSceneOperation23GetAllowSceneActivationEv
5503:__ZN18LoadSceneOperation23SetAllowSceneActivationEb
5504:__ZN18LoadSceneOperation14SetFinalTimingEffff
5505:__ZN18LoadSceneOperation7PerformEv
5506:__ZN18LoadSceneOperation19IntegrateTimeSlicedEi
5507:__ZN18LoadSceneOperation19IntegrateMainThreadEv
5508:__ZN18LoadSceneOperation21MustCompleteNextFrameEv
5509:__ZN19RuntimeSceneManager24BeginIntegrateMainThreadEP10UnityScene
5510:__ZN18LoadSceneOperation21PostLoadSceneAdditiveEv
5511:__ZN18LoadSceneOperation25PlayerLoadSceneFromThreadEv
5512:__ZN18LoadSceneOperation22CompleteLoadFirstSceneEv
5513:__ZN19RuntimeSceneManager22EndIntegrateMainThreadEP10UnityScene16SceneLoadingMode
5514:__ZN30RuntimeInitializeOnLoadManager23ExecuteInitializeOnLoadE25RuntimeInitializeLoadType
5515:__ZN18AwakeFromLoadQueue5ClearEv
5516:__ZN30RuntimeInitializeOnLoadManager23ExecuteInitializeOnLoadENSt3__26vectorIi13stl_allocatorIiL18MemLabelIdentifier13ELi16EEEE
5517:__ZN19RuntimeSceneManager31CollectDontDestroyOnLoadObjectsERNSt3__23setIiNS0_4lessIiEENS0_9allocatorIiEEEE
5518:__Z15UnloadGameScenev
5519:__ZN18AwakeFromLoadQueue25RegisterObjectInstanceIDsEv
5520:__ZN18LoadSceneOperation21CompleteAwakeSequenceEv
5521:__Z16CleanupAfterLoadv
5522:__Z21SendMessageToEveryoneRK17MessageIdentifier11MessageData
5523:__ZNSt3__26__treeI4PPtrI6ObjectENS_4lessIS3_EENS_9allocatorIS3_EEE7destroyEPNS_11__tree_nodeIS3_PvEE
5524:__ZN6Object21FindInstanceIDsOfTypeEPKN5Unity4TypeER13dynamic_arrayIiLj0EEb
5525:__ZL35FindInstanceIDsOfTypeImplementationPN4core8hash_setIP6ObjectNS_4hashIS2_EENSt3__28equal_toIS2_EEEEPKN5Unity4TypeER13dynamic_arrayIiLj0EE
5526:__ZN19RenderBufferManager14GarbageCollectEi
5527:__Z29ClearRepeatingLogMessageStatev
5528:__ZN13RenderManager18UpdateAllRenderersEv
5529:__ZN21RendererUpdateManager18OncePerFrameUpdateER13RendererScene
5530:__ZN21RendererUpdateManager9UpdateAllER13RendererScene
5531:__ZN28LightProbeProxyVolumeManager6UpdateEv
5532:__ZN28LightProbeProxyVolumeContext5ResetEv
5533:__ZN28LightProbeProxyVolumeManager17UpdateProxyVolumeER21LightProbeProxyVolumej
5534:__ZN21LightProbeProxyVolume13GetRenderDataER27LightProbeProxyVolumeSample
5535:__ZN21LightProbeProxyVolume21GetWorldToLocalMatrixEv
5536:__ZN27LightProbeProxyVolumeSample10InvalidateEv
5537:__ZN10Matrix4x4f12SetTranslateERK8Vector3f
5538:__ZN28LightProbeProxyVolumeManager17UpdateBoundingBoxER21LightProbeProxyVolume
5539:__ZN28LightProbeProxyVolumeManager16UpdateResolutionER21LightProbeProxyVolume
5540:__ZN28LightProbeProxyVolumeManager27ManageVolumeTextureLifetimeER21LightProbeProxyVolume
5541:__ZN28LightProbeProxyVolumeManager16BlendLightProbesER21LightProbeProxyVolume
5542:__ZN9Texture3D15UpdateImageDataEb
5543:__ZN9Texture3D13RebuildMipMapEv
5544:__ZN17LightProbeContext4InitERK16LightmapSettingsRK14RenderSettings
5545:__ZN26LightProbeProxyVolumeUtilsL20FindTetrahedronIndexER9TransformRi
5546:__ZN13dynamic_arrayI19BlendProbesJobInputLj0EE4growEv
5547:__ZNK9Transform21GetLocalToWorldMatrixEv
5548:__ZL19BlendLightProbesJobP19BlendProbesJobInputj
5549:__ZN13dynamic_arrayI19BlendProbesJobInputLj0EED2Ev
5550:__Z27CalculateLightOcclusionMaskRK17LightProbeContextRK29LightProbeSamplingCoordinates
5551:__Z31CalculateLightProbeCoefficientsRK17LightProbeContextRK29LightProbeSamplingCoordinates25LightProbeCoefficientTypeR20SphericalHarmonicsL2
5552:__ZN20SphericalHarmonicsL234GetShaderConstantsFromNormalizedSHERKS_R11fixed_arrayI8Vector4fLj7EE
5553:__ZNK16LightmapSettings19AreLightProbesBakedEv
5554:__ZNK16LightmapSettings23HasLightProbeTetrahedraEv
5555:__ZN28LightProbeProxyVolumeManager30ShouldReallocateVolumeTexturesER21LightProbeProxyVolumeP4PPtrI9Texture3DE
5556:__ZN28LightProbeProxyVolumeManager24AllocateVolumeTextureSetER21LightProbeProxyVolumeP4PPtrI9Texture3DEPKc
5557:__ZN9Texture3D11InitTextureEiii13TextureFormatb
5558:__ZN9Texture3DC2E10MemLabelId18ObjectCreationMode
5559:__ZN26LightProbeProxyVolumeUtilsL28ComputeGlobalAABBOnHierarchyER9TransformR10MinMaxAABB
5560:__Z17TransformAABBSlowRK4AABBRK10Matrix4x4fRS_
5561:__ZN21LightProbeProxyVolume18HasHardwareSupportEv
5562:__ZN19RenderBufferManager8Textures14GarbageCollectEi
5563:__ZN19RenderBufferManager7Buffers14GarbageCollectEi
5564:__ZN10UnityScene24ExtractLevelGameManagersER18AwakeFromLoadQueue
5565:__ZN18AwakeFromLoadQueue30PersistentManagerAwakeFromLoadEv
5566:__Z23CollectSceneGameObjectsR13dynamic_arrayIiLj0EE
5567:__ZN19RuntimeSceneManager43UnloadAllScenesWithoutDestroyingGameObjectsEv
5568:__Z12CollectPPtrsRK6ObjectRNSt3__23setIiNS2_4lessIiEENS2_9allocatorIiEEEE
5569:__ZN18IDCollectorFunctor18GenerateInstanceIDEi17TransferMetaFlags
5570:__ZN17RemapPPtrTransferC2E24TransferInstructionFlagsb
5571:__ZN17PersistentManager30GetInstanceIDFromPathAndFileIDERKN4core12basic_stringIcNS0_20StringStorageDefaultIcEEEEx
5572:__ZN17PersistentManager29GetAllFileIDsAndTypesFromPathERKN4core12basic_stringIcNS0_20StringStorageDefaultIcEEEER13dynamic_arrayIxLj0EERS7_IPKN5Unity4TypeELj0EE
5573:__ZN17PersistentManager17GetSerializedFileERKN4core12basic_stringIcNS0_20StringStorageDefaultIcEEEENS_9LockFlagsE
5574:__ZN17PersistentManager26LoadFileCompletelyThreadedERKN4core12basic_stringIcNS0_20StringStorageDefaultIcEEEEPxPiiNS_9LoadFlagsER12LoadProgressNS_9LockFlagsE
5575:__ZN17PersistentManager25ExtractAwakeFromLoadQueueEPKijR18AwakeFromLoadQueueNS_9LockFlagsE
5576:__ZN17PersistentManager31HasMemoryOrCachedSerializedFileERKN4core12basic_stringIcNS0_20StringStorageDefaultIcEEEE
5577:__ZN17PersistentManager12UnloadStreamERKN4core12basic_stringIcNS0_20StringStorageDefaultIcEEEEb
5578:__ZN17PersistentManager13GetAllFileIDsERKN4core12basic_stringIcNS0_20StringStorageDefaultIcEEEER13dynamic_arrayIxLj0EE
5579:__ZN8Remapper14PreallocateIDsExiRiS0_
5580:__ZN11PreloadDataD2Ev
5581:__ZN11PreloadDataD0Ev
5582:__ZNK11PreloadData22GetTypeVirtualInternalEv
5583:__ZN11PreloadData23VirtualRedirectTransferER19StreamedBinaryWrite
5584:__ZN11PreloadData23VirtualRedirectTransferER18StreamedBinaryRead
5585:__ZN11PreloadData23VirtualRedirectTransferER17RemapPPtrTransfer
5586:__ZN11PreloadData23VirtualRedirectTransferER24GenerateTypeTreeTransfer
5587:__ZN11PreloadData23VirtualRedirectTransferER14SafeBinaryRead
5588:__ZN11PreloadData8TransferI14SafeBinaryReadEEvRT_
5589:__ZN11PreloadData8TransferI24GenerateTypeTreeTransferEEvRT_
5590:__ZN11PreloadData8TransferI19StreamedBinaryWriteEEvRT_
5591:__ZN27UnloadUnusedAssetsOperationD0Ev
5592:__ZN27UnloadUnusedAssetsOperation7PerformEv
5593:__ZN27UnloadUnusedAssetsOperation19IntegrateMainThreadEv
5594:__Z26GarbageCollectSharedAssetsbb
5595:__Z20MarkInstanceIDAsRootiR21GarbageCollectorState
5596:__ZL30RegisterFilteredObjectCallbackPP12Il2CppObjectiPv
5597:__ZL14OnWorldStartedv
5598:__Z16MarkDependenciesR27GarbageCollectorThreadStatej
5599:__Z25BatchDeleteObjectInternalPKii
5600:__ZNK10GameObject38MarkGameObjectAndComponentDependenciesER27GarbageCollectorThreadState
5601:__ZNK5Unity9Component38MarkGameObjectAndComponentDependenciesER27GarbageCollectorThreadState
5602:__ZNK8Material16MarkDependenciesER27GarbageCollectorThreadState
5603:__Z40scripting_liveness_calculation_from_root18ScriptingObjectPtrPv
5604:__ZN9Scripting16GetInstanceIDForE18ScriptingObjectPtr
5605:__ZN17PersistentManager21UnloadNonDirtyStreamsEv
5606:__ZN13ComputeShaderD2Ev
5607:__ZN13ComputeShaderD0Ev
5608:__ZN13ComputeShader17MainThreadCleanupEv
5609:__ZN13ComputeShader13AwakeFromLoadE17AwakeFromLoadMode
5610:__ZNK13ComputeShader22GetTypeVirtualInternalEv
5611:__ZN13ComputeShader23VirtualRedirectTransferER19StreamedBinaryWrite
5612:__ZN13ComputeShader23VirtualRedirectTransferER18StreamedBinaryRead
5613:__ZN13ComputeShader23VirtualRedirectTransferER24GenerateTypeTreeTransfer
5614:__ZN13ComputeShader23VirtualRedirectTransferER14SafeBinaryRead
5615:__ZN14SafeBinaryRead22TransferWithTypeStringI13ComputeShaderEEvRT_PKcS5_17TransferMetaFlags
5616:__ZN14SafeBinaryRead21TransferSTLStyleArrayI13dynamic_arrayI20ComputeShaderVariantLj0EEEEvRT_17TransferMetaFlags
5617:__ZN13dynamic_arrayI20ComputeShaderVariantLj0EE18resize_initializedEj12ResizePolicy
5618:__ZN20ComputeShaderVariant8TransferI14SafeBinaryReadEEvRT_
5619:__ZN14SafeBinaryRead21TransferSTLStyleArrayI13dynamic_arrayI19ComputeShaderKernelLj0EEEEvRT_17TransferMetaFlags
5620:__ZN14SafeBinaryRead21TransferSTLStyleArrayI13dynamic_arrayI15ComputeShaderCBLj0EEEEvRT_17TransferMetaFlags
5621:__ZN15ComputeShaderCB8TransferI14SafeBinaryReadEEvRT_
5622:__ZN14SafeBinaryRead21TransferSTLStyleArrayI13dynamic_arrayI18ComputeShaderParamLj0EEEEvRT_17TransferMetaFlags
5623:__ZN15SerializeTraitsI18ComputeShaderParamE8TransferI14SafeBinaryReadEEvRS0_RT_
5624:__ZN15SerializeTraitsI13dynamic_arrayI19ComputeShaderKernelLj0EEE19ResizeSTLStyleArrayERS2_i
5625:__ZN19ComputeShaderKernel8TransferI14SafeBinaryReadEEvRT_
5626:__ZN14SafeBinaryRead21TransferSTLStyleArrayI13dynamic_arrayI21ComputeShaderResourceLj0EEEEvRT_17TransferMetaFlags
5627:__ZN14SafeBinaryRead21TransferSTLStyleArrayI13dynamic_arrayI27ComputeShaderBuiltinSamplerLj0EEEEvRT_17TransferMetaFlags
5628:__ZN14SafeBinaryRead21TransferSTLStyleArrayI19StaticArrayTransferIjLi3EEEEvRT_17TransferMetaFlags
5629:__ZN27ComputeShaderBuiltinSampler8TransferI14SafeBinaryReadEEvRT_
5630:__ZN21ComputeShaderResource8TransferI14SafeBinaryReadEEvRT_
5631:__ZN20ComputeShaderVariant8TransferI24GenerateTypeTreeTransferEEvRT_
5632:__ZN24GenerateTypeTreeTransfer21TransferSTLStyleArrayI13dynamic_arrayI19ComputeShaderKernelLj0EEEEvRT_17TransferMetaFlags
5633:__ZN15ComputeShaderCB8TransferI24GenerateTypeTreeTransferEEvRT_
5634:__ZN18ComputeShaderParam8TransferI24GenerateTypeTreeTransferEEvRT_
5635:__ZN19ComputeShaderKernel8TransferI24GenerateTypeTreeTransferEEvRT_
5636:__ZN21ComputeShaderResource8TransferI24GenerateTypeTreeTransferEEvRT_
5637:__ZN20ComputeShaderVariant8TransferI18StreamedBinaryReadEEvRT_
5638:__ZN19ComputeShaderKernel8TransferI18StreamedBinaryReadEEvRT_
5639:__ZN18StreamedBinaryRead21TransferSTLStyleArrayI13dynamic_arrayI15ComputeShaderCBLj0EEEEvRT_17TransferMetaFlags
5640:__ZN15ComputeShaderCB8TransferI18StreamedBinaryReadEEvRT_
5641:__ZN18StreamedBinaryRead21TransferSTLStyleArrayI13dynamic_arrayI18ComputeShaderParamLj0EEEEvRT_17TransferMetaFlags
5642:__ZN18ComputeShaderParam8TransferI18StreamedBinaryReadEEvRT_
5643:__ZN18StreamedBinaryRead21TransferSTLStyleArrayI13dynamic_arrayI21ComputeShaderResourceLj0EEEEvRT_17TransferMetaFlags
5644:__ZN18StreamedBinaryRead21TransferSTLStyleArrayI13dynamic_arrayI27ComputeShaderBuiltinSamplerLj0EEEEvRT_17TransferMetaFlags
5645:__ZN21ComputeShaderResource8TransferI18StreamedBinaryReadEEvRT_
5646:__ZN20ComputeShaderVariant8TransferI19StreamedBinaryWriteEEvRT_
5647:__ZN19ComputeShaderKernel8TransferI19StreamedBinaryWriteEEvRT_
5648:__ZN19StreamedBinaryWrite8TransferI15ComputeShaderCBEEvRT_PKc17TransferMetaFlags
5649:__ZN18ComputeShaderParam8TransferI19StreamedBinaryWriteEEvRT_
5650:__ZN19StreamedBinaryWrite8TransferI21ComputeShaderResourceEEvRT_PKc17TransferMetaFlags
5651:__Z13TransferArrayILi3Ej19StreamedBinaryWriteEjRAT__T0_PKcRT1_
5652:__ZN13ComputeShader28DestroyRuntimeDataMainThreadEv
5653:__ZN13ComputeShader30DestroyRuntimeDataWorkerThreadEv
5654:__ZN13ComputeShader17CreateRuntimeDataEv
5655:__ZN13stl_allocatorINSt3__23mapIN9ShaderLab16FastPropertyNameEN13ComputeShader11ParamStructENS0_4lessIS3_EES_INS0_4pairIKS3_S5_EEL18MemLabelIdentifier22ELi16EEEELSB_22ELi16EE9constructEPSD_RKSD_
5656:__ZNSt3__26vectorINS_3mapIN9ShaderLab16FastPropertyNameEN13ComputeShader11ParamStructENS_4lessIS3_EE13stl_allocatorINS_4pairIKS3_S5_EEL18MemLabelIdentifier22ELi16EEEES8_ISE_LSC_22ELi16EEE21__push_back_slow_pathIRKSE_EEvOT_
5657:__ZNSt3__26__treeINS_12__value_typeIN9ShaderLab16FastPropertyNameEN13ComputeShader11ParamStructEEENS_19__map_value_compareIS3_S6_NS_4lessIS3_EELb1EEE13stl_allocatorIS6_L18MemLabelIdentifier22ELi16EEE7destroyEPNS_11__tree_nodeIS6_PvEE
5658:__ZNSt3__26__treeINS_12__value_typeIN9ShaderLab16FastPropertyNameEN13ComputeShader11ParamStructEEENS_19__map_value_compareIS3_S6_NS_4lessIS3_EELb1EEE13stl_allocatorIS6_L18MemLabelIdentifier22ELi16EEE12__find_equalIS3_EERPNS_16__tree_node_baseIPvEENS_21__tree_const_iteratorIS6_PNS_11__tree_nodeIS6_SH_EEiEERPNS_15__tree_end_nodeISJ_EESK_RKT_
5659:__ZN13dynamic_arrayI20ComputeShaderVariantLj0EED2Ev
5660:__ZN12ScriptMapperD2Ev
5661:__ZN12ScriptMapperD0Ev
5662:__ZNK12ScriptMapper22GetTypeVirtualInternalEv
5663:__ZN12ScriptMapper23VirtualRedirectTransferER19StreamedBinaryWrite
5664:__ZN12ScriptMapper23VirtualRedirectTransferER18StreamedBinaryRead
5665:__ZN12ScriptMapper23VirtualRedirectTransferER17RemapPPtrTransfer
5666:__ZN12ScriptMapper23VirtualRedirectTransferER24GenerateTypeTreeTransfer
5667:__ZN12ScriptMapper23VirtualRedirectTransferER14SafeBinaryRead
5668:__ZN14SafeBinaryRead22TransferWithTypeStringI12ScriptMapperEEvRT_PKcS5_17TransferMetaFlags
5669:__ZN14SafeBinaryRead8TransferI15NameToObjectMapI6ShaderNSt3__23mapI4PPtrIS2_EN4core12basic_stringIcNS7_20StringStorageDefaultIcEEEENS3_4lessIS6_EENS3_9allocatorINS3_4pairIKS6_SB_EEEEEENS3_8multimapISB_S6_NSC_ISB_EENSE_INSF_IKSB_S6_EEEEEEEEEvRT_PKc17TransferMetaFlags
5670:__ZN14SafeBinaryRead19TransferSTLStyleMapINSt3__23mapI4PPtrI6ShaderEN4core12basic_stringIcNS6_20StringStorageDefaultIcEEEENS1_4lessIS5_EENS1_9allocatorINS1_4pairIKS5_SA_EEEEEEEEvRT_17TransferMetaFlags
5671:__ZN15NameToObjectMapI6ShaderNSt3__23mapI4PPtrIS0_EN4core12basic_stringIcNS5_20StringStorageDefaultIcEEEENS1_4lessIS4_EENS1_9allocatorINS1_4pairIKS4_S9_EEEEEENS1_8multimapIS9_S4_NSA_IS9_EENSC_INSD_IKS9_S4_EEEEEEE7RebuildEv
5672:__ZNSt3__26__treeINS_12__value_typeIN4core12basic_stringIcNS2_20StringStorageDefaultIcEEEE4PPtrI6ShaderEEENS_19__map_value_compareIS6_SA_NS_4lessIS6_EELb1EEENS_9allocatorISA_EEE7destroyEPNS_11__tree_nodeISA_PvEE
5673:__ZNSt3__26__treeINS_12__value_typeIN4core12basic_stringIcNS2_20StringStorageDefaultIcEEEE4PPtrI6ShaderEEENS_19__map_value_compareIS6_SA_NS_4lessIS6_EELb1EEENS_9allocatorISA_EEE15__emplace_multiIJNS_4pairIS6_S9_EEEEENS_15__tree_iteratorISA_PNS_11__tree_nodeISA_PvEEiEEDpOT_
5674:__ZNSt3__26__treeINS_12__value_typeI4PPtrI6ShaderEN4core12basic_stringIcNS5_20StringStorageDefaultIcEEEEEENS_19__map_value_compareIS4_SA_NS_4lessIS4_EELb1EEENS_9allocatorISA_EEE7destroyEPNS_11__tree_nodeISA_PvEE
5675:__ZN15SerializeTraitsINSt3__24pairI4PPtrI6ShaderEN4core12basic_stringIcNS5_20StringStorageDefaultIcEEEEEEE8TransferI14SafeBinaryReadEEvRSA_RT_
5676:__ZNSt3__26__treeINS_12__value_typeI4PPtrI6ShaderEN4core12basic_stringIcNS5_20StringStorageDefaultIcEEEEEENS_19__map_value_compareIS4_SA_NS_4lessIS4_EELb1EEENS_9allocatorISA_EEE25__emplace_unique_key_argsIS4_JRNS_4pairIS4_S9_EEEEENSJ_INS_15__tree_iteratorISA_PNS_11__tree_nodeISA_PvEEiEEbEERKT_DpOT0_
5677:__ZN12ScriptMapper8TransferI24GenerateTypeTreeTransferEEvRT_
5678:__ZN24GenerateTypeTreeTransfer8TransferINSt3__23mapI4PPtrI6ShaderEN4core12basic_stringIcNS6_20StringStorageDefaultIcEEEENS1_4lessIS5_EENS1_9allocatorINS1_4pairIKS5_SA_EEEEEEEEvRT_PKc17TransferMetaFlags
5679:__ZN15SerializeTraitsINSt3__24pairI4PPtrI6ShaderEN4core12basic_stringIcNS5_20StringStorageDefaultIcEEEEEEE8TransferI24GenerateTypeTreeTransferEEvRSA_RT_
5680:__ZN18StreamedBinaryRead19TransferSTLStyleMapINSt3__23mapI4PPtrI6ShaderEN4core12basic_stringIcNS6_20StringStorageDefaultIcEEEENS1_4lessIS5_EENS1_9allocatorINS1_4pairIKS5_SA_EEEEEEEEvRT_17TransferMetaFlags
5681:__ZN2UI13RectTransformD2Ev
5682:__ZN2UI13RectTransformD0Ev
5683:__ZN9Transform17MainThreadCleanupEv
5684:__ZN2UI13RectTransform13AwakeFromLoadE17AwakeFromLoadMode
5685:__ZN9Transform16CheckConsistencyEv
5686:__ZN2UI13RectTransform5ResetEv
5687:__ZN2UI13RectTransform10SmartResetEv
5688:__ZNK2UI13RectTransform22GetTypeVirtualInternalEv
5689:__ZN2UI13RectTransform23VirtualRedirectTransferER19StreamedBinaryWrite
5690:__ZN2UI13RectTransform23VirtualRedirectTransferER18StreamedBinaryRead
5691:__ZN2UI13RectTransform23VirtualRedirectTransferER17RemapPPtrTransfer
5692:__ZN2UI13RectTransform23VirtualRedirectTransferER24GenerateTypeTreeTransfer
5693:__ZN2UI13RectTransform23VirtualRedirectTransferER14SafeBinaryRead
5694:__ZN2UI13RectTransform10DeactivateE19DeactivateOperation
5695:__ZN2UI13RectTransform16ResetReplacementEv
5696:__ZN9Transform19BroadcastMessageAnyERK17MessageIdentifierR11MessageData
5697:__ZN2UI13RectTransform8TransferI14SafeBinaryReadEEvRT_
5698:__ZN9Transform8TransferI14SafeBinaryReadEEvRT_
5699:__ZN9Transform25CompleteTransformTransferI14SafeBinaryReadEEvRT_
5700:__ZN14SafeBinaryRead21TransferSTLStyleArrayI13dynamic_arrayI12ImmediatePtrI9TransformELj0EEEEvRT_17TransferMetaFlags
5701:__ZN12ImmediatePtrI9TransformE8TransferI14SafeBinaryReadEEvRT_
5702:__ZN2UI13RectTransform8TransferI24GenerateTypeTreeTransferEEvRT_
5703:__ZN9Transform8TransferI24GenerateTypeTreeTransferEEvRT_
5704:__ZN9Transform25CompleteTransformTransferI24GenerateTypeTreeTransferEEvRT_
5705:__ZN9Transform25CompleteTransformTransferI17RemapPPtrTransferEEvRT_
5706:__ZN2UI13RectTransform8TransferI18StreamedBinaryReadEEvRT_
5707:__ZN9Transform8TransferI18StreamedBinaryReadEEvRT_
5708:__ZN18StreamedBinaryRead21TransferSTLStyleArrayI13dynamic_arrayI12ImmediatePtrI9TransformELj0EEEEvRT_17TransferMetaFlags
5709:__ZN12ImmediatePtrI9TransformE8TransferI18StreamedBinaryReadEEvRT_
5710:__ZN2UI13RectTransform8TransferI19StreamedBinaryWriteEEvRT_
5711:__ZN9Transform28ApplyRuntimeToSerializedDataEv
5712:__ZN9Transform8TransferI19StreamedBinaryWriteEEvRT_
5713:__ZN2UI13RectTransform12SetSizeDeltaERK8Vector2f
5714:__ZN2UI13RectTransform8SetPivotERK8Vector2f
5715:__ZN2UI13RectTransform38UpdateAnchorPositionIfTransformChangedEb
5716:__ZN2UI13RectTransform25UpdatePosAndRectRecursiveEbPK5RectTIfE
5717:__ZN2UI13RectTransform16UpdatePosAndRectEb
5718:__ZNK9Transform16GetLocalPositionEv
5719:__ZNK2UI13RectTransform23CalculateLocalPosition2Ev
5720:__ZN9Transform39SetLocalPositionIgnoringSpecificSystemsERKN4math7_float3Ey
5721:__ZN9Transform12QueueChangesEv
5722:__ZNK2UI13RectTransform26CalculateRectInParentSpaceEv
5723:__ZN2UI13RectTransform19UpdateRectTransformEPS0_b
5724:__ZN2UI13RectTransform19SetAnchoredPositionERK8Vector2f
5725:__ZN9Transform5ResetEv
5726:__ZN9Transform13AwakeFromLoadE17AwakeFromLoadMode
5727:__ZNK9Transform22GetTypeVirtualInternalEv
5728:__ZN9Transform23VirtualRedirectTransferER19StreamedBinaryWrite
5729:__ZN9Transform23VirtualRedirectTransferER18StreamedBinaryRead
5730:__ZN9Transform23VirtualRedirectTransferER24GenerateTypeTreeTransfer
5731:__ZN9Transform23VirtualRedirectTransferER14SafeBinaryRead
5732:__Z19UnsignedIntToStringj
5733:__Z30CreateBoxedObjectFromPrimitivei
5734:__Z11StringToIntRKN4core16basic_string_refIcEE
5735:__ZN16DiagnosticSwitchIN4core12basic_stringIcNS0_20StringStorageDefaultIcEEEEE18SetValueFromStringEPKc
5736:__ZN16DiagnosticSwitchIN4core12basic_stringIcNS0_20StringStorageDefaultIcEEEEE20ApplyPersistentValueEv
5737:__ZN16DiagnosticSwitchIN4core12basic_stringIcNS0_20StringStorageDefaultIcEEEEE20CollectScriptingInfoERN20DiagnosticSwitchBase13ScriptingInfoE
5738:__ZN16DiagnosticSwitchIN4core12basic_stringIcNS0_20StringStorageDefaultIcEEEEE24UpdateFromScriptingValueE18ScriptingObjectPtrb
5739:__Z20scripting_string_newPKcj
5740:__ZN11PlayerPrefs9SetStringERKN4core12basic_stringIcNS0_20StringStorageDefaultIcEEEES6_
5741:__ZL12SetPrefValueRKN4core12basic_stringIcNS_20StringStorageDefaultIcEEEERK9PrefValue
5742:__ZN11PlayerPrefs4SyncEv
5743:__ZN4File5WriteEPKvj
5744:__ZL11EncodeValueRK9PrefValue
5745:__ZN4FileD2Ev
5746:__ZN4FileC2Ev
5747:__ZN11PlayerPrefs9GetStringERKN4core12basic_stringIcNS0_20StringStorageDefaultIcEEEES6_
5748:__ZNK15Lz4Decompressor16DecompressMemoryEPKvPjPvS2_
5749:__ZNK15Lz4Decompressor16DecompressStreamEPvPKvPjS0_S3_b
5750:_UNITY_LZ4_decompress_safe
5751:__ZN17ArchiveFileSystemD2Ev
5752:__ZN17ArchiveFileSystemD0Ev
5753:__ZN17ArchiveFileSystem4OpenER13FileEntryData14FilePermission16FileAutoBehavior
5754:__ZN17ArchiveFileSystem4ReadER13FileEntryDatayyPvPy
5755:__ZN17ArchiveFileSystem4ReadER13FileEntryDatayPvPy
5756:__ZN17ArchiveFileSystem5WriteER13FileEntryDatayyPvPy
5757:__ZN17ArchiveFileSystem5WriteER13FileEntryDatayPvPy
5758:__ZN17ArchiveFileSystem5CloseER13FileEntryData
5759:__ZN17ArchiveFileSystem4SeekER13FileEntryDatax10FileOrigin
5760:__ZNK17ArchiveFileSystem8PositionERK13FileEntryData
5761:__ZNK17ArchiveFileSystem4SizeERK13FileEntryData
5762:__ZNK17ArchiveFileSystem9CanHandleEPKc
5763:__ZN17ArchiveFileSystem10ToAbsoluteEPKc
5764:__ZN17ArchiveFileSystem4NameEv
5765:__ZNK17ArchiveFileSystem6ParentERK13FileEntryDataRN4core12basic_stringIcNS3_20StringStorageDefaultIcEEEE
5766:__ZNK17ArchiveFileSystem8FilenameERK13FileEntryData
5767:__ZNK17ArchiveFileSystem5IsDirERK13FileEntryData
5768:__ZNK17ArchiveFileSystem12LastModifiedERK13FileEntryData
5769:__ZNK17ArchiveFileSystem7ToLocalERK13FileEntryDataRN4core12basic_stringIcNS3_20StringStorageDefaultIcEEEERyS9_
5770:__ZNK17ArchiveFileSystem9EnumerateEPKcP19dynamic_block_arrayI13FileEntryInfoLj32EEbPPv19FileEnumerationFlag
5771:__ZNK17ArchiveFileSystem6ExistsERK13FileEntryData
5772:__ZNK17ArchiveFileSystem14FindItemByPathEPKc
5773:__ZNK20ArchiveStorageReader7ToLocalERKN20ArchiveStorageHeader4NodeERN4core12basic_stringIcNS4_20StringStorageDefaultIcEEEERySA_
5774:__ZN20ArchiveStorageReader15MakeStorageUsedEb
5775:__ZN15ArchiveReadFileD2Ev
5776:__ZN15ArchiveReadFileD0Ev
5777:__ZNK15ArchiveReadFile6IsOpenEv
5778:__ZN15ArchiveReadFile5CloseEv
5779:__ZN15ArchiveReadFile4ReadEyyPvPy
5780:__ZN15ArchiveReadFile4ReadEyPvPy
5781:__ZN15ArchiveReadFile5WriteEyyPKvPy
5782:__ZN15ArchiveReadFile5WriteEyPKvPy
5783:__ZN15ArchiveReadFile4SeekEx10FileOrigin
5784:__ZNK15ArchiveReadFile8PositionEv
5785:__ZN15ArchiveReadFile9SetLengthEy
5786:__ZNK15ArchiveReadFile4SizeEv
5787:__ZN20ArchiveStorageReader4ReadEyyPvPy
5788:__ZN20ArchiveStorageReader17ReadCompleteBlockEjPvPy
5789:__ZN20ArchiveStorageReader9ReadBlockEjyyPvPy
5790:__ZN20ArchiveStorageReader31TryToReadDirectoryFromBlockDataEyPKvj
5791:__ZN20ArchiveStorageReader28TryReadDirectoryInfoFromFileEP5IFile
5792:__ZN25MultiBlocksMemoryFileDataC2E10MemLabelIdj
5793:__ZN25MultiBlocksMemoryFileDataD2Ev
5794:__ZN25MultiBlocksMemoryFileDataD0Ev
5795:__ZN25MultiBlocksMemoryFileData4LockEPPv
5796:__ZN25MultiBlocksMemoryFileData6UnlockEPv
5797:__ZNK25MultiBlocksMemoryFileData4ReadEyyPv
5798:__ZN25MultiBlocksMemoryFileData5WriteEyyPKv
5799:__ZN25MultiBlocksMemoryFileData9SetLengthEy
5800:__ZNK25MultiBlocksMemoryFileData4SizeEv
5801:__ZNK25MultiBlocksMemoryFileData5CloneEv
5802:__ZN12FileAccessor4SeekEx10FileOrigin
5803:__ZN20ArchiveStorageHeader17ReadDirectoryInfoER12FileAccessorRKNS_6HeaderERNS_13DirectoryInfoE
5804:__Z37ReadDirectoryInfo_UnityWebAndUnityRawR12FileAccessorRKN20ArchiveStorageHeader6HeaderERNS1_13DirectoryInfoE
5805:__ZNSt3__26vectorIN20ArchiveStorageHeader4NodeE13stl_allocatorIS2_L18MemLabelIdentifier56ELi16EEE8__appendEj
5806:__ZN12_GLOBAL__N_110ReadStringIN4core12basic_stringIcNS1_20StringStorageDefaultIcEEEEEEbR12FileAccessorPT_
5807:__ZNK12FileAccessor8PositionEv
5808:__Z20GetPathNameExtensionRKN4core12basic_stringIcNS_20StringStorageDefaultIcEEEE
5809:__ZN12IFileAdapter4OpenER13FileEntryData14FilePermission16FileAutoBehavior
5810:__ZN12IFileAdapter4ReadER13FileEntryDatayyPvPy
5811:__ZN12IFileAdapter4ReadER13FileEntryDatayPvPy
5812:__ZN12IFileAdapter5WriteER13FileEntryDatayPvPy
5813:__ZN12IFileAdapter5CloseER13FileEntryData
5814:__ZN12IFileAdapter4SeekER13FileEntryDatax10FileOrigin
5815:__ZNK12IFileAdapter8PositionERK13FileEntryData
5816:__ZN12IFileAdapter9SetLengthER13FileEntryDatay
5817:__ZNK12IFileAdapter4SizeERK13FileEntryData
5818:__ZN10MemoryFileC2E10MemLabelIdP14MemoryFileData14FilePermission
5819:__ZN10MemoryFileD2Ev
5820:__ZN10MemoryFileD0Ev
5821:__ZN10MemoryFile5CloseEv
5822:__ZN10MemoryFile4ReadEyyPvPy
5823:__ZN10MemoryFile5WriteEyyPKvPy
5824:__ZN10MemoryFile5WriteEyPKvPy
5825:__ZN10MemoryFile4SeekEx10FileOrigin
5826:__ZN10MemoryFile9SetLengthEy
5827:__ZNK10MemoryFile4SizeEv
5828:__ZN25SingleBlockMemoryFileDataC2E10MemLabelIdPvjb
5829:__ZN25SingleBlockMemoryFileDataD2Ev
5830:__ZN25SingleBlockMemoryFileDataD0Ev
5831:__ZN25SingleBlockMemoryFileData4LockEPPv
5832:__ZNK25SingleBlockMemoryFileData4ReadEyyPv
5833:__ZN25SingleBlockMemoryFileData5WriteEyyPKv
5834:__ZN25SingleBlockMemoryFileData9SetLengthEy
5835:__ZNK25SingleBlockMemoryFileData4SizeEv
5836:__ZNK25SingleBlockMemoryFileData5CloneEv
5837:__ZN20ArchiveStorageReader15ReadFromStorageEyyPvPy
5838:__ZN20ArchiveStorageReader18AcquireCachedBlockEjj
5839:__ZN20ArchiveStorageReader28AcquireAndPrefillUnusedBlockEjPNS_11CacheResultE
5840:__ZN20ArchiveStorageReader21FillStreamCachedBlockEPNS_11CachedBlockEy
5841:__Z18CreateDecompressor15CompressionType10MemLabelId
5842:__ZN20ArchiveStorageReader17ReinitCachedBlockEPNS_11CachedBlockEj
5843:__ZN20ArchiveStorageReader20FillChunkCachedBlockEPNS_11CachedBlockE
5844:__ZN20ArchiveStorageReader17MakeStorageUnusedEv
5845:__ZNSt3__26__treeINS_12__value_typeIN4core12basic_stringIcNS2_20StringStorageDefaultIcEEEEN17ArchiveFileSystem11ArchiveItemEEENS_19__map_value_compareIS6_S9_NS_4lessIS6_EELb1EEE13stl_allocatorIS9_L18MemLabelIdentifier56ELi16EEE7destroyEPNS_11__tree_nodeIS9_PvEE
5846:__ZNSt3__26__treeINS_12__value_typeIPKvNS_4pairIjP20ArchiveStorageReaderEEEENS_19__map_value_compareIS3_S8_NS_4lessIS3_EELb1EEENS_9allocatorIS8_EEE7destroyEPNS_11__tree_nodeIS8_PvEE
5847:__ZN20ArchiveStorageReaderD2Ev
5848:__ZN20ArchiveStorageReaderD0Ev
5849:__ZN16MemoryFileSystemD2Ev
5850:__ZN16MemoryFileSystemD0Ev
5851:__ZN16MemoryFileSystem4OpenER13FileEntryData14FilePermission16FileAutoBehavior
5852:__ZN16MemoryFileSystem5CloseER13FileEntryData
5853:__ZN16MemoryFileSystem9SetLengthER13FileEntryDatay
5854:__ZNK16MemoryFileSystem4SizeERK13FileEntryData
5855:__ZNK16MemoryFileSystem9CanHandleEPKc
5856:__ZN16MemoryFileSystem10ToAbsoluteEPKc
5857:__ZN16MemoryFileSystem18IsAbsoluteFilePathEPKc
5858:__ZN16MemoryFileSystem4NameEv
5859:__ZNK16MemoryFileSystem6ParentERK13FileEntryDataRN4core12basic_stringIcNS3_20StringStorageDefaultIcEEEE
5860:__ZNK16MemoryFileSystem8FilenameERK13FileEntryData
5861:__ZNK16MemoryFileSystem5IsDirERK13FileEntryData
5862:__ZNK16MemoryFileSystem8IsHiddenERK13FileEntryData
5863:__ZNK16MemoryFileSystem12LastModifiedERK13FileEntryData
5864:__ZN16MemoryFileSystem8IsLockedERK13FileEntryData
5865:__ZN16MemoryFileSystem8SetFlagsER13FileEntryDatajj
5866:__ZN16MemoryFileSystem12CreateAsFileER13FileEntryData
5867:__ZN16MemoryFileSystem11CreateAsDirER13FileEntryData
5868:__ZN16MemoryFileSystem6DeleteER13FileEntryDatab
5869:__ZN16MemoryFileSystem4CopyER13FileEntryDataS1_
5870:__ZN16MemoryFileSystem10AtomicMoveER13FileEntryDataS1_
5871:__ZNK16MemoryFileSystem9EnumerateEPKcP19dynamic_block_arrayI13FileEntryInfoLj32EEbPPv19FileEnumerationFlag
5872:__ZNK16MemoryFileSystem6ExistsERK13FileEntryData
5873:__ZNK16MemoryFileSystem8FindNodeEPKc
5874:__ZNK16MemoryFileSystem30GetRelativeCaseInsensitivePathEPKcRN4core12basic_stringIcNS2_20StringStorageDefaultIcEEEE
5875:__Z14StartsWithPathIN4core12basic_stringIcNS0_20StringStorageDefaultIcEEEES4_EbRKT_RKT0_
5876:__ZN16MemoryFileSystem8FindNodeEPKc
5877:__Z22ReplaceDirectoryInPathRKN4core12basic_stringIcNS_20StringStorageDefaultIcEEEES5_S5_
5878:__ZN16MemoryFileSystem16FindNodeOrCreateEPKcb
5879:__ZNSt3__26__treeINS_12__value_typeIN4core12basic_stringIcNS2_20StringStorageDefaultIcEEEEPN16MemoryFileSystem4NodeEEENS_19__map_value_compareIS6_SA_NS_4lessIS6_EELb1EEE13stl_allocatorISA_L18MemLabelIdentifier56ELi16EEE25__emplace_unique_key_argsIS6_JNS_4pairIKS6_S9_EEEEENSK_INS_15__tree_iteratorISA_PNS_11__tree_nodeISA_PvEEiEEbEERKT_DpOT0_
5880:__Z19StandardizePathNameRKN4core12basic_stringIcNS_20StringStorageDefaultIcEEEE
5881:__ZNSt3__26__treeINS_12__value_typeIN4core12basic_stringIcNS2_20StringStorageDefaultIcEEEEPN16MemoryFileSystem4NodeEEENS_19__map_value_compareIS6_SA_NS_4lessIS6_EELb1EEE13stl_allocatorISA_L18MemLabelIdentifier56ELi16EEE7destroyEPNS_11__tree_nodeISA_PvEE
5882:__ZN22VertexDeclarationCacheD2Ev
5883:__ZNSt3__26__treeINS_12__value_typeI18VertexChannelsInfoP17VertexDeclarationEENS_19__map_value_compareIS2_S5_NS_4lessIS2_EELb1EEE13stl_allocatorIS5_L18MemLabelIdentifier15ELi16EEE7destroyEPNS_11__tree_nodeIS5_PvEE
5884:__ZNK17InstancingBatcher15RenderInstancesERK19ShaderPropertySheetRKNS_22RenderInstancesConfigsERK17MeshRenderingDatai16VertexInputMasksi
5885:__ZZNK17InstancingBatcher15RenderInstancesERK19ShaderPropertySheetRKNS_22RenderInstancesConfigsERK17MeshRenderingDatai16VertexInputMasksiEN10CustomData10CbCallbackEjjR8JobFencePPvRKS_SD_
5886:__ZZNK17InstancingBatcher15RenderInstancesERK19ShaderPropertySheetRKNS_22RenderInstancesConfigsERK17MeshRenderingDatai16VertexInputMasksiEN10CustomData12DrawCallbackEjjR9GfxDevicePv
5887:__ZNK17InstancingBatcher21CustomRenderInstancesEjPFvjjR8JobFencePPvRKS_S2_EPFvjjR9GfxDeviceS2_ES2_
5888:__ZN19ShaderPropertySheet16SetComputeBufferEN9ShaderLab16FastPropertyNameE15ComputeBufferIDNS_8SetFlagsE
5889:__ZN10Instancing11DrawAPIArgsD2Ev
5890:__ZNK17InstancingBatcher25FillInstanceBufferWithJobIN10Instancing11DrawAPIArgsEEEvR8JobFencePPvjjRKT_
5891:__ZN10Instancing11DrawAPIArgsaSERKS0_
5892:__ZL17InstanceBufferJobIN10Instancing11DrawAPIArgsEEvP21InstanceBufferJobDataIT_E
5893:__ZNK15InstancingProps35FillInstanceBufferDispatchConstantsIN10Instancing11DrawAPIArgsEEEvPPvjjRK19ShaderPropertySheetRKT_
5894:__ZN10Instancing11DrawAPIArgsC2Ev
5895:__ZN10Instancing11DrawAPIArgsC2ERK19ShaderPropertySheetPK8Vector4fS6_S6_i
5896:__ZN16ScriptingManagerD2Ev
5897:__ZN16ScriptingManagerD0Ev
5898:__ZNSt3__26__treeINS_12__value_typeIiP15MonoScriptCacheEENS_19__map_value_compareIiS4_NS_4lessIiEELb1EEE13stl_allocatorIS4_L18MemLabelIdentifier80ELi16EEE7destroyEPNS_11__tree_nodeIS4_PvEE
5899:__ZN11MonoManagerD2Ev
5900:__ZN11MonoManagerD0Ev
5901:__ZN11MonoManager13AwakeFromLoadE17AwakeFromLoadMode
5902:__ZNK11MonoManager22GetTypeVirtualInternalEv
5903:__ZN11MonoManager23VirtualRedirectTransferER19StreamedBinaryWrite
5904:__ZN11MonoManager23VirtualRedirectTransferER18StreamedBinaryRead
5905:__ZN11MonoManager23VirtualRedirectTransferER17RemapPPtrTransfer
5906:__ZN11MonoManager23VirtualRedirectTransferER24GenerateTypeTreeTransfer
5907:__ZN11MonoManager23VirtualRedirectTransferER14SafeBinaryRead
5908:__ZN11MonoManager8TransferI14SafeBinaryReadEEvRT_
5909:__ZN14SafeBinaryRead21TransferSTLStyleArrayI10vector_setI4PPtrI10MonoScriptENSt3__24lessIS4_EE13stl_allocatorIS4_L18MemLabelIdentifier80ELi16EEEEEvRT_17TransferMetaFlags
5910:__ZNSt3__26vectorI4PPtrI10MonoScriptE13stl_allocatorIS3_L18MemLabelIdentifier80ELi16EEE8__appendEj
5911:__ZN11MonoManager8TransferI24GenerateTypeTreeTransferEEvRT_
5912:__ZN11MonoManager8TransferI18StreamedBinaryReadEEvRT_
5913:__ZN11MonoManager8TransferI19StreamedBinaryWriteEEvRT_
5914:__ZN11MonoManager14LoadAssembliesEv
5915:__ZN11MonoManager29RebuildCommonScriptingClassesEv
5916:__ZN16ScriptingManager33RebuildNativeTypeToScriptingClassEv
5917:__Z17ExtractStacktraceRKN4core12basic_stringIcNS_20StringStorageDefaultIcEEEERS3_S6_iS6_Piii
5918:__Z48AddCommonTransferFunctionsToScriptingTraitsCachev
5919:__Z44InitializeTransferFunctionScriptingTraitsForI18StreamedBinaryReadEvR31TransferFunctionScriptingTraits
5920:__Z44InitializeTransferFunctionScriptingTraitsForI19StreamedBinaryWriteEvR31TransferFunctionScriptingTraits
5921:__Z44InitializeTransferFunctionScriptingTraitsForI24GenerateTypeTreeTransferEvR31TransferFunctionScriptingTraits
5922:__Z44InitializeTransferFunctionScriptingTraitsForI17RemapPPtrTransferEvR31TransferFunctionScriptingTraits
5923:__Z44InitializeTransferFunctionScriptingTraitsForI14SafeBinaryReadEvR31TransferFunctionScriptingTraits
5924:__Z18Transfer_BlittableI14SafeBinaryReadLb0EiEvRK29SerializationCommandArgumentsR31RuntimeSerializationCommandInfo
5925:__Z18Transfer_BlittableI14SafeBinaryReadLb1EiEvRK29SerializationCommandArgumentsR31RuntimeSerializationCommandInfo
5926:__Z35Transfer_Blittable_FixedBufferFieldI14SafeBinaryReadiEvRK29SerializationCommandArgumentsR31RuntimeSerializationCommandInfo
5927:__Z18Transfer_BlittableI14SafeBinaryReadLb0EhEvRK29SerializationCommandArgumentsR31RuntimeSerializationCommandInfo
5928:__Z18Transfer_BlittableI14SafeBinaryReadLb1EhEvRK29SerializationCommandArgumentsR31RuntimeSerializationCommandInfo
5929:__Z35Transfer_Blittable_FixedBufferFieldI14SafeBinaryReadhEvRK29SerializationCommandArgumentsR31RuntimeSerializationCommandInfo
5930:__Z18Transfer_BlittableI14SafeBinaryReadLb0EfEvRK29SerializationCommandArgumentsR31RuntimeSerializationCommandInfo
5931:__Z18Transfer_BlittableI14SafeBinaryReadLb1EfEvRK29SerializationCommandArgumentsR31RuntimeSerializationCommandInfo
5932:__Z35Transfer_Blittable_FixedBufferFieldI14SafeBinaryReadfEvRK29SerializationCommandArgumentsR31RuntimeSerializationCommandInfo
5933:__Z15Transfer_StringI14SafeBinaryReadLb0EEvRK29SerializationCommandArgumentsR31RuntimeSerializationCommandInfo
5934:__Z15Transfer_StringI14SafeBinaryReadLb1EEvRK29SerializationCommandArgumentsR31RuntimeSerializationCommandInfo
5935:__Z18Transfer_BlittableI14SafeBinaryReadLb0E8Vector3fEvRK29SerializationCommandArgumentsR31RuntimeSerializationCommandInfo
5936:__Z18Transfer_BlittableI14SafeBinaryReadLb1E8Vector3fEvRK29SerializationCommandArgumentsR31RuntimeSerializationCommandInfo
5937:__Z18Transfer_BlittableI14SafeBinaryReadLb0EN4math12int3_storageEEvRK29SerializationCommandArgumentsR31RuntimeSerializationCommandInfo
5938:__Z18Transfer_BlittableI14SafeBinaryReadLb1EN4math12int3_storageEEvRK29SerializationCommandArgumentsR31RuntimeSerializationCommandInfo
5939:__Z18Transfer_BlittableI14SafeBinaryReadLb0E8Vector2fEvRK29SerializationCommandArgumentsR31RuntimeSerializationCommandInfo
5940:__Z18Transfer_BlittableI14SafeBinaryReadLb1E8Vector2fEvRK29SerializationCommandArgumentsR31RuntimeSerializationCommandInfo
5941:__Z18Transfer_BlittableI14SafeBinaryReadLb0EN4math12int2_storageEEvRK29SerializationCommandArgumentsR31RuntimeSerializationCommandInfo
5942:__Z18Transfer_BlittableI14SafeBinaryReadLb1EN4math12int2_storageEEvRK29SerializationCommandArgumentsR31RuntimeSerializationCommandInfo
5943:__Z18Transfer_BlittableI14SafeBinaryReadLb0E11QuaternionfEvRK29SerializationCommandArgumentsR31RuntimeSerializationCommandInfo
5944:__Z18Transfer_BlittableI14SafeBinaryReadLb1E11QuaternionfEvRK29SerializationCommandArgumentsR31RuntimeSerializationCommandInfo
5945:__Z18Transfer_BlittableI14SafeBinaryReadLb0E10ColorRGBAfEvRK29SerializationCommandArgumentsR31RuntimeSerializationCommandInfo
5946:__Z18Transfer_BlittableI14SafeBinaryReadLb1E10ColorRGBAfEvRK29SerializationCommandArgumentsR31RuntimeSerializationCommandInfo
5947:__Z18Transfer_BlittableI14SafeBinaryReadLb0E4AABBEvRK29SerializationCommandArgumentsR31RuntimeSerializationCommandInfo
5948:__Z18Transfer_BlittableI14SafeBinaryReadLb1E4AABBEvRK29SerializationCommandArgumentsR31RuntimeSerializationCommandInfo
5949:__Z18Transfer_BlittableI14SafeBinaryReadLb0E9BoundsIntEvRK29SerializationCommandArgumentsR31RuntimeSerializationCommandInfo
5950:__Z18Transfer_BlittableI14SafeBinaryReadLb1E9BoundsIntEvRK29SerializationCommandArgumentsR31RuntimeSerializationCommandInfo
5951:__Z18Transfer_BlittableI14SafeBinaryReadLb0EsEvRK29SerializationCommandArgumentsR31RuntimeSerializationCommandInfo
5952:__Z18Transfer_BlittableI14SafeBinaryReadLb1EsEvRK29SerializationCommandArgumentsR31RuntimeSerializationCommandInfo
5953:__Z35Transfer_Blittable_FixedBufferFieldI14SafeBinaryReadsEvRK29SerializationCommandArgumentsR31RuntimeSerializationCommandInfo
5954:__Z18Transfer_BlittableI14SafeBinaryReadLb0ExEvRK29SerializationCommandArgumentsR31RuntimeSerializationCommandInfo
5955:__Z18Transfer_BlittableI14SafeBinaryReadLb1ExEvRK29SerializationCommandArgumentsR31RuntimeSerializationCommandInfo
5956:__Z35Transfer_Blittable_FixedBufferFieldI14SafeBinaryReadxEvRK29SerializationCommandArgumentsR31RuntimeSerializationCommandInfo
5957:__Z18Transfer_BlittableI14SafeBinaryReadLb0EtEvRK29SerializationCommandArgumentsR31RuntimeSerializationCommandInfo
5958:__Z18Transfer_BlittableI14SafeBinaryReadLb1EtEvRK29SerializationCommandArgumentsR31RuntimeSerializationCommandInfo
5959:__Z35Transfer_Blittable_FixedBufferFieldI14SafeBinaryReadtEvRK29SerializationCommandArgumentsR31RuntimeSerializationCommandInfo
5960:__Z18Transfer_BlittableI14SafeBinaryReadLb0E8Vector4fEvRK29SerializationCommandArgumentsR31RuntimeSerializationCommandInfo
5961:__Z18Transfer_BlittableI14SafeBinaryReadLb1E8Vector4fEvRK29SerializationCommandArgumentsR31RuntimeSerializationCommandInfo
5962:__Z18Transfer_BlittableI14SafeBinaryReadLb0E5RectTIfEEvRK29SerializationCommandArgumentsR31RuntimeSerializationCommandInfo
5963:__Z18Transfer_BlittableI14SafeBinaryReadLb1E5RectTIfEEvRK29SerializationCommandArgumentsR31RuntimeSerializationCommandInfo
5964:__Z18Transfer_BlittableI14SafeBinaryReadLb0E5RectTIiEEvRK29SerializationCommandArgumentsR31RuntimeSerializationCommandInfo
5965:__Z18Transfer_BlittableI14SafeBinaryReadLb1E5RectTIiEEvRK29SerializationCommandArgumentsR31RuntimeSerializationCommandInfo
5966:__Z18Transfer_BlittableI14SafeBinaryReadLb0E10Matrix4x4fEvRK29SerializationCommandArgumentsR31RuntimeSerializationCommandInfo
5967:__Z18Transfer_BlittableI14SafeBinaryReadLb1E10Matrix4x4fEvRK29SerializationCommandArgumentsR31RuntimeSerializationCommandInfo
5968:__Z18Transfer_BlittableI14SafeBinaryReadLb0E11ColorRGBA32EvRK29SerializationCommandArgumentsR31RuntimeSerializationCommandInfo
5969:__Z18Transfer_BlittableI14SafeBinaryReadLb1E11ColorRGBA32EvRK29SerializationCommandArgumentsR31RuntimeSerializationCommandInfo
5970:__Z18Transfer_BlittableI14SafeBinaryReadLb0E8BitFieldEvRK29SerializationCommandArgumentsR31RuntimeSerializationCommandInfo
5971:__Z18Transfer_BlittableI14SafeBinaryReadLb1E8BitFieldEvRK29SerializationCommandArgumentsR31RuntimeSerializationCommandInfo
5972:__Z18Transfer_BlittableI14SafeBinaryReadLb0E12PropertyNameEvRK29SerializationCommandArgumentsR31RuntimeSerializationCommandInfo
5973:__Z18Transfer_BlittableI14SafeBinaryReadLb1E12PropertyNameEvRK29SerializationCommandArgumentsR31RuntimeSerializationCommandInfo
5974:__ZL26Transfer_SimpleNativeClassI14SafeBinaryRead17AnimationCurveTplIfELb0EEvRK29SerializationCommandArgumentsR31RuntimeSerializationCommandInfo
5975:__ZL26Transfer_SimpleNativeClassI14SafeBinaryRead17AnimationCurveTplIfELb1EEvRK29SerializationCommandArgumentsR31RuntimeSerializationCommandInfo
5976:__ZL26Transfer_SimpleNativeClassI14SafeBinaryRead8GradientLb0EEvRK29SerializationCommandArgumentsR31RuntimeSerializationCommandInfo
5977:__ZL26Transfer_SimpleNativeClassI14SafeBinaryRead8GradientLb1EEvRK29SerializationCommandArgumentsR31RuntimeSerializationCommandInfo
5978:__ZL26Transfer_SimpleNativeClassI14SafeBinaryRead10RectOffsetLb0EEvRK29SerializationCommandArgumentsR31RuntimeSerializationCommandInfo
5979:__ZL26Transfer_SimpleNativeClassI14SafeBinaryRead10RectOffsetLb1EEvRK29SerializationCommandArgumentsR31RuntimeSerializationCommandInfo
5980:__Z18Transfer_BlittableI14SafeBinaryReadLb0EaEvRK29SerializationCommandArgumentsR31RuntimeSerializationCommandInfo
5981:__Z18Transfer_BlittableI14SafeBinaryReadLb1EaEvRK29SerializationCommandArgumentsR31RuntimeSerializationCommandInfo
5982:__Z35Transfer_Blittable_FixedBufferFieldI14SafeBinaryReadaEvRK29SerializationCommandArgumentsR31RuntimeSerializationCommandInfo
5983:__Z18Transfer_BlittableI14SafeBinaryReadLb0EjEvRK29SerializationCommandArgumentsR31RuntimeSerializationCommandInfo
5984:__Z18Transfer_BlittableI14SafeBinaryReadLb1EjEvRK29SerializationCommandArgumentsR31RuntimeSerializationCommandInfo
5985:__Z35Transfer_Blittable_FixedBufferFieldI14SafeBinaryReadjEvRK29SerializationCommandArgumentsR31RuntimeSerializationCommandInfo
5986:__Z18Transfer_BlittableI14SafeBinaryReadLb0EyEvRK29SerializationCommandArgumentsR31RuntimeSerializationCommandInfo
5987:__Z18Transfer_BlittableI14SafeBinaryReadLb1EyEvRK29SerializationCommandArgumentsR31RuntimeSerializationCommandInfo
5988:__Z35Transfer_Blittable_FixedBufferFieldI14SafeBinaryReadyEvRK29SerializationCommandArgumentsR31RuntimeSerializationCommandInfo
5989:__Z18Transfer_BlittableI14SafeBinaryReadLb0EdEvRK29SerializationCommandArgumentsR31RuntimeSerializationCommandInfo
5990:__Z18Transfer_BlittableI14SafeBinaryReadLb1EdEvRK29SerializationCommandArgumentsR31RuntimeSerializationCommandInfo
5991:__Z35Transfer_Blittable_FixedBufferFieldI14SafeBinaryReaddEvRK29SerializationCommandArgumentsR31RuntimeSerializationCommandInfo
5992:__ZL17Transfer_GUIStyleI14SafeBinaryReadLb0EEvRK29SerializationCommandArgumentsR31RuntimeSerializationCommandInfo
5993:__ZL17Transfer_GUIStyleI14SafeBinaryReadLb1EEvRK29SerializationCommandArgumentsR31RuntimeSerializationCommandInfo
5994:__ZL12InvokeMethodI14SafeBinaryReadEvRK29SerializationCommandArgumentsR31RuntimeSerializationCommandInfo
5995:__Z30TransferField_LinearCollectionI14SafeBinaryReadEvRK29SerializationCommandArgumentsR31RuntimeSerializationCommandInfo
5996:__Z26Transfer_UnityEngineObjectI14SafeBinaryReadLb0EEvRK29SerializationCommandArgumentsR31RuntimeSerializationCommandInfo
5997:__Z26Transfer_UnityEngineObjectI14SafeBinaryReadLb1EEvRK29SerializationCommandArgumentsR31RuntimeSerializationCommandInfo
5998:__ZL22Transfer_ManagedObjectI14SafeBinaryReadLb0EEvRK29SerializationCommandArgumentsR31RuntimeSerializationCommandInfo
5999:__ZL22Transfer_ManagedObjectI14SafeBinaryReadLb1EEvRK29SerializationCommandArgumentsR31RuntimeSerializationCommandInfo
6000:__ZN14SafeBinaryRead21TransferSTLStyleArrayI31ArrayOfManagedObjectsTransfererEEvRT_17TransferMetaFlags
6001:__Z34scripting_class_array_element_size17ScriptingClassPtr
6002:__ZN9Scripting34GetScriptingArrayObjectElementImplE17ScriptingArrayPtri
6003:__ZN9Scripting29RuntimeObjectInitLogExceptionE18ScriptingObjectPtr
6004:__ZN9Scripting34SetScriptingArrayObjectElementImplE17ScriptingArrayPtri18ScriptingObjectPtr
6005:__Z30GetOrCreateObjectStoredInField17ScriptingFieldPtrR17GeneralMonoObjectb
6006:__Z19TransferField_ArrayI14SafeBinaryRead27Converter_UnityEngineObjectEvRK23StaticTransferFieldInfoR31RuntimeSerializationCommandInfoRT0_
6007:__ZN14SafeBinaryRead21TransferSTLStyleArrayINSt3__26vectorI8MonoPPtr13stl_allocatorIS3_L18MemLabelIdentifier1ELi16EEEEEEvRT_17TransferMetaFlags
6008:__Z24TransferPPtrToMonoObjecti17ScriptingClassPtrP23DataToCreateNullWrapper24TransferInstructionFlags
6009:__Z33TransferPPtrToMonoObjectUnCheckedi24TransferInstructionFlags
6010:__ZN9Scripting32GetScriptingWrapperForInstanceIDEi
6011:__Z14resize_trimmedINSt3__26vectorI8MonoPPtr13stl_allocatorIS2_L18MemLabelIdentifier1ELi16EEEEEvRT_j
6012:__ZN14SafeBinaryRead8TransferI8MonoPPtrEEvRT_PKc17TransferMetaFlags
6013:__ZNSt3__26vectorI8MonoPPtr13stl_allocatorIS1_L18MemLabelIdentifier1ELi16EEE6assignINS_11__wrap_iterIPS1_EEEENS_9enable_ifIXaasr21__is_forward_iteratorIT_EE5valuesr16is_constructibleIS1_NS_15iterator_traitsISB_E9referenceEEE5valueEvE4typeESB_SB_
6014:__ZNSt3__26vectorI8MonoPPtr13stl_allocatorIS1_L18MemLabelIdentifier1ELi16EEE8__appendEj
6015:__ZN21LinearCollectionFieldC2ER17GeneralMonoObject17ScriptingFieldPtr
6016:__ZN9Scripting27BackingArrayFieldForListOfTE17ScriptingClassPtr
6017:__Z41scripting_type_get_class_or_element_class16ScriptingTypePtr
6018:__Z26scripting_class_get_fields17ScriptingClassPtrRNSt3__26vectorI17ScriptingFieldPtr13stl_allocatorIS2_L18MemLabelIdentifier1ELi16EEEE
6019:__Z19TransferField_ArrayI14SafeBinaryRead27Converter_SimpleNativeClassI8GUIStyleEEvRK23StaticTransferFieldInfoR31RuntimeSerializationCommandInfoRT0_
6020:__ZN14SafeBinaryRead21TransferSTLStyleArrayINSt3__26vectorI8GUIStyle13stl_allocatorIS3_L18MemLabelIdentifier1ELi16EEEEEEvRT_17TransferMetaFlags
6021:__ZN12NativeBufferI27Converter_SimpleNativeClassI8GUIStyleEE19ProcessAfterReadingER9ArrayInfo17ScriptingClassPtr
6022:__ZN8GUIStyleaSERKS_
6023:__Z14resize_trimmedINSt3__26vectorI8GUIStyle13stl_allocatorIS2_L18MemLabelIdentifier1ELi16EEEEEvRT_j
6024:__ZN8GUIStyle8TransferI14SafeBinaryReadEEvRT_
6025:__ZN13GUIStyleState8TransferI14SafeBinaryReadEEvRT_
6026:__ZN15SerializeTraitsI10RectOffsetE8TransferI14SafeBinaryReadEEvRS0_RT_
6027:__ZNSt3__26vectorI8GUIStyle13stl_allocatorIS1_L18MemLabelIdentifier1ELi16EEE7reserveEj
6028:__ZNSt3__26vectorI8GUIStyle13stl_allocatorIS1_L18MemLabelIdentifier1ELi16EEE6assignINS_11__wrap_iterIPS1_EEEENS_9enable_ifIXaasr21__is_forward_iteratorIT_EE5valuesr16is_constructibleIS1_NS_15iterator_traitsISB_E9referenceEEE5valueEvE4typeESB_SB_
6029:__ZNSt3__26vectorI8GUIStyle13stl_allocatorIS1_L18MemLabelIdentifier1ELi16EEE8__appendEj
6030:__ZN8GUIStyleC2ERKS_
6031:__Z22TransferField_NonArrayI14SafeBinaryRead27Converter_SimpleNativeClassI8GUIStyleEEvRK23StaticTransferFieldInfoR31RuntimeSerializationCommandInfoRT0_
6032:__ZN14SafeBinaryRead21TransferSTLStyleArrayI13dynamic_arrayIdLj0EEEEvRT_17TransferMetaFlags
6033:__Z29Transfer_Blittable_ArrayFieldI14SafeBinaryReaddEvRT_R9ArrayInfoRK23StaticTransferFieldInfo
6034:__Z35Transfer_Blittable_SingleValueFieldI14SafeBinaryReaddEvRT_R17GeneralMonoObjectRK23StaticTransferFieldInfo
6035:__ZN14SafeBinaryRead21TransferSTLStyleArrayI13dynamic_arrayIyLj0EEEEvRT_17TransferMetaFlags
6036:__Z29Transfer_Blittable_ArrayFieldI14SafeBinaryReadyEvRT_R9ArrayInfoRK23StaticTransferFieldInfo
6037:__Z35Transfer_Blittable_SingleValueFieldI14SafeBinaryReadyEvRT_R17GeneralMonoObjectRK23StaticTransferFieldInfo
6038:__Z29Transfer_Blittable_ArrayFieldI14SafeBinaryReadjEvRT_R9ArrayInfoRK23StaticTransferFieldInfo
6039:__Z35Transfer_Blittable_SingleValueFieldI14SafeBinaryReadjEvRT_R17GeneralMonoObjectRK23StaticTransferFieldInfo
6040:__ZN14SafeBinaryRead21TransferSTLStyleArrayI13dynamic_arrayIaLj0EEEEvRT_17TransferMetaFlags
6041:__Z29Transfer_Blittable_ArrayFieldI14SafeBinaryReadaEvRT_R9ArrayInfoRK23StaticTransferFieldInfo
6042:__Z35Transfer_Blittable_SingleValueFieldI14SafeBinaryReadaEvRT_R17GeneralMonoObjectRK23StaticTransferFieldInfo
6043:__Z19TransferField_ArrayI14SafeBinaryRead27Converter_SimpleNativeClassI10RectOffsetEEvRK23StaticTransferFieldInfoR31RuntimeSerializationCommandInfoRT0_
6044:__ZN14SafeBinaryRead21TransferSTLStyleArrayINSt3__26vectorI10RectOffset13stl_allocatorIS3_L18MemLabelIdentifier1ELi16EEEEEEvRT_17TransferMetaFlags
6045:__ZN12NativeBufferI27Converter_SimpleNativeClassI10RectOffsetEE19ProcessAfterReadingER9ArrayInfo17ScriptingClassPtr
6046:__Z14resize_trimmedINSt3__26vectorI10RectOffset13stl_allocatorIS2_L18MemLabelIdentifier1ELi16EEEEEvRT_j
6047:__ZNSt3__26vectorI10RectOffset13stl_allocatorIS1_L18MemLabelIdentifier1ELi16EEE6assignINS_11__wrap_iterIPS1_EEEENS_9enable_ifIXaasr21__is_forward_iteratorIT_EE5valuesr16is_constructibleIS1_NS_15iterator_traitsISB_E9referenceEEE5valueEvE4typeESB_SB_
6048:__ZNSt3__26vectorI10RectOffset13stl_allocatorIS1_L18MemLabelIdentifier1ELi16EEE8__appendEj
6049:__Z22TransferField_NonArrayI14SafeBinaryRead27Converter_SimpleNativeClassI10RectOffsetEEvRK23StaticTransferFieldInfoR31RuntimeSerializationCommandInfoRT0_
6050:__Z19TransferField_ArrayI14SafeBinaryRead27Converter_SimpleNativeClassI8GradientEEvRK23StaticTransferFieldInfoR31RuntimeSerializationCommandInfoRT0_
6051:__ZN14SafeBinaryRead21TransferSTLStyleArrayINSt3__26vectorI8Gradient13stl_allocatorIS3_L18MemLabelIdentifier1ELi16EEEEEEvRT_17TransferMetaFlags
6052:__ZN27Converter_SimpleNativeClassI8GradientE17NativeToScriptingERKS0_R18ScriptingObjectPtr
6053:__Z14resize_trimmedINSt3__26vectorI8Gradient13stl_allocatorIS2_L18MemLabelIdentifier1ELi16EEEEEvRT_j
6054:__ZN8Gradient8TransferI14SafeBinaryReadEEvRT_
6055:__ZNSt3__26vectorI8Gradient13stl_allocatorIS1_L18MemLabelIdentifier1ELi16EEE6assignINS_11__wrap_iterIPS1_EEEENS_9enable_ifIXaasr21__is_forward_iteratorIT_EE5valuesr16is_constructibleIS1_NS_15iterator_traitsISB_E9referenceEEE5valueEvE4typeESB_SB_
6056:__ZNSt3__26vectorI8Gradient13stl_allocatorIS1_L18MemLabelIdentifier1ELi16EEE8__appendEj
6057:__ZN8GradientC2Ev
6058:__Z22TransferField_NonArrayI14SafeBinaryRead27Converter_SimpleNativeClassI8GradientEEvRK23StaticTransferFieldInfoR31RuntimeSerializationCommandInfoRT0_
6059:__Z19TransferField_ArrayI14SafeBinaryRead27Converter_SimpleNativeClassI17AnimationCurveTplIfEEEvRK23StaticTransferFieldInfoR31RuntimeSerializationCommandInfoRT0_
6060:__ZN14SafeBinaryRead21TransferSTLStyleArrayINSt3__26vectorI17AnimationCurveTplIfE13stl_allocatorIS4_L18MemLabelIdentifier1ELi16EEEEEEvRT_17TransferMetaFlags
6061:__ZN12NativeBufferI27Converter_SimpleNativeClassI17AnimationCurveTplIfEEE19ProcessAfterReadingER9ArrayInfo17ScriptingClassPtr
6062:__Z14resize_trimmedINSt3__26vectorI17AnimationCurveTplIfE13stl_allocatorIS3_L18MemLabelIdentifier1ELi16EEEEEvRT_j
6063:__ZNSt3__26vectorI17AnimationCurveTplIfE13stl_allocatorIS2_L18MemLabelIdentifier1ELi16EEE7reserveEj
6064:__ZNSt3__26vectorI17AnimationCurveTplIfE13stl_allocatorIS2_L18MemLabelIdentifier1ELi16EEE6assignINS_11__wrap_iterIPS2_EEEENS_9enable_ifIXaasr21__is_forward_iteratorIT_EE5valuesr16is_constructibleIS2_NS_15iterator_traitsISC_E9referenceEEE5valueEvE4typeESC_SC_
6065:__ZNSt3__26vectorI17AnimationCurveTplIfE13stl_allocatorIS2_L18MemLabelIdentifier1ELi16EEE8__appendEj
6066:__ZNSt3__26vectorI17AnimationCurveTplIfE13stl_allocatorIS2_L18MemLabelIdentifier1ELi16EEEC2INS_11__wrap_iterIPS2_EEEET_SB_RKS5_PNS_9enable_ifIXaasr21__is_forward_iteratorISB_EE5valuesr16is_constructibleIS2_NS_15iterator_traitsISB_E9referenceEEE5valueEvE4typeE
6067:__Z22TransferField_NonArrayI14SafeBinaryRead27Converter_SimpleNativeClassI17AnimationCurveTplIfEEEvRK23StaticTransferFieldInfoR31RuntimeSerializationCommandInfoRT0_
6068:__Z29Transfer_Blittable_ArrayFieldI14SafeBinaryRead12PropertyNameEvRT_R9ArrayInfoRK23StaticTransferFieldInfo
6069:__ZN14SafeBinaryRead21TransferSTLStyleArrayI13dynamic_arrayI12PropertyNameLj0EEEEvRT_17TransferMetaFlags
6070:__ZN15SerializeTraitsI12PropertyNameE8TransferI14SafeBinaryReadEEvRS0_RT_
6071:__Z29Transfer_Blittable_ArrayFieldI14SafeBinaryRead8BitFieldEvRT_R9ArrayInfoRK23StaticTransferFieldInfo
6072:__ZN14SafeBinaryRead21TransferSTLStyleArrayI13dynamic_arrayI8BitFieldLj0EEEEvRT_17TransferMetaFlags
6073:__Z29Transfer_Blittable_ArrayFieldI14SafeBinaryRead11ColorRGBA32EvRT_R9ArrayInfoRK23StaticTransferFieldInfo
6074:__ZN14SafeBinaryRead8TransferI11ColorRGBA32EEvRT_PKc17TransferMetaFlags
6075:__Z29Transfer_Blittable_ArrayFieldI14SafeBinaryRead10Matrix4x4fEvRT_R9ArrayInfoRK23StaticTransferFieldInfo
6076:__ZN14SafeBinaryRead21TransferSTLStyleArrayI13dynamic_arrayI10Matrix4x4fLj0EEEEvRT_17TransferMetaFlags
6077:__ZN13dynamic_arrayI10Matrix4x4fLj0EE21resize_buffer_nocheckEj12ResizePolicy
6078:__Z29Transfer_Blittable_ArrayFieldI14SafeBinaryRead5RectTIiEEvRT_R9ArrayInfoRK23StaticTransferFieldInfo
6079:__ZN14SafeBinaryRead21TransferSTLStyleArrayI13dynamic_arrayI5RectTIiELj0EEEEvRT_17TransferMetaFlags
6080:__ZN15SerializeTraitsI5RectTIiEE8TransferI14SafeBinaryReadEEvRS1_RT_
6081:__Z29Transfer_Blittable_ArrayFieldI14SafeBinaryRead5RectTIfEEvRT_R9ArrayInfoRK23StaticTransferFieldInfo
6082:__ZN14SafeBinaryRead21TransferSTLStyleArrayI13dynamic_arrayI5RectTIfELj0EEEEvRT_17TransferMetaFlags
6083:__Z29Transfer_Blittable_ArrayFieldI14SafeBinaryRead8Vector4fEvRT_R9ArrayInfoRK23StaticTransferFieldInfo
6084:__Z29Transfer_Blittable_ArrayFieldI14SafeBinaryReadtEvRT_R9ArrayInfoRK23StaticTransferFieldInfo
6085:__Z35Transfer_Blittable_SingleValueFieldI14SafeBinaryReadtEvRT_R17GeneralMonoObjectRK23StaticTransferFieldInfo
6086:__ZN14SafeBinaryRead21TransferSTLStyleArrayI13dynamic_arrayIxLj0EEEEvRT_17TransferMetaFlags
6087:__Z29Transfer_Blittable_ArrayFieldI14SafeBinaryReadxEvRT_R9ArrayInfoRK23StaticTransferFieldInfo
6088:__Z35Transfer_Blittable_SingleValueFieldI14SafeBinaryReadxEvRT_R17GeneralMonoObjectRK23StaticTransferFieldInfo
6089:__ZN14SafeBinaryRead21TransferSTLStyleArrayI13dynamic_arrayIsLj0EEEEvRT_17TransferMetaFlags
6090:__Z29Transfer_Blittable_ArrayFieldI14SafeBinaryReadsEvRT_R9ArrayInfoRK23StaticTransferFieldInfo
6091:__Z35Transfer_Blittable_SingleValueFieldI14SafeBinaryReadsEvRT_R17GeneralMonoObjectRK23StaticTransferFieldInfo
6092:__Z29Transfer_Blittable_ArrayFieldI14SafeBinaryRead9BoundsIntEvRT_R9ArrayInfoRK23StaticTransferFieldInfo
6093:__ZN14SafeBinaryRead21TransferSTLStyleArrayI13dynamic_arrayI9BoundsIntLj0EEEEvRT_17TransferMetaFlags
6094:__ZN9BoundsInt8TransferI14SafeBinaryReadEEvRT_
6095:__ZN15SerializeTraitsIN4math12int3_storageEE8TransferI14SafeBinaryReadEEvRS1_RT_
6096:__Z29Transfer_Blittable_ArrayFieldI14SafeBinaryRead4AABBEvRT_R9ArrayInfoRK23StaticTransferFieldInfo
6097:__ZN14SafeBinaryRead21TransferSTLStyleArrayI13dynamic_arrayI4AABBLj0EEEEvRT_17TransferMetaFlags
6098:__Z29Transfer_Blittable_ArrayFieldI14SafeBinaryRead10ColorRGBAfEvRT_R9ArrayInfoRK23StaticTransferFieldInfo
6099:__ZN14SafeBinaryRead21TransferSTLStyleArrayI13dynamic_arrayI10ColorRGBAfLj0EEEEvRT_17TransferMetaFlags
6100:__Z29Transfer_Blittable_ArrayFieldI14SafeBinaryRead11QuaternionfEvRT_R9ArrayInfoRK23StaticTransferFieldInfo
6101:__ZN14SafeBinaryRead21TransferSTLStyleArrayI13dynamic_arrayI11QuaternionfLj0EEEEvRT_17TransferMetaFlags
6102:__Z29Transfer_Blittable_ArrayFieldI14SafeBinaryReadN4math12int2_storageEEvRT_R9ArrayInfoRK23StaticTransferFieldInfo
6103:__ZN14SafeBinaryRead21TransferSTLStyleArrayI13dynamic_arrayIN4math12int2_storageELj0EEEEvRT_17TransferMetaFlags
6104:__ZN15SerializeTraitsIN4math12int2_storageEE8TransferI14SafeBinaryReadEEvRS1_RT_
6105:__Z29Transfer_Blittable_ArrayFieldI14SafeBinaryRead8Vector2fEvRT_R9ArrayInfoRK23StaticTransferFieldInfo
6106:__Z29Transfer_Blittable_ArrayFieldI14SafeBinaryReadN4math12int3_storageEEvRT_R9ArrayInfoRK23StaticTransferFieldInfo
6107:__ZN14SafeBinaryRead21TransferSTLStyleArrayI13dynamic_arrayIN4math12int3_storageELj0EEEEvRT_17TransferMetaFlags
6108:__Z29Transfer_Blittable_ArrayFieldI14SafeBinaryRead8Vector3fEvRT_R9ArrayInfoRK23StaticTransferFieldInfo
6109:__Z19TransferField_ArrayI14SafeBinaryRead16Converter_StringEvRK23StaticTransferFieldInfoR31RuntimeSerializationCommandInfoRT0_
6110:__Z22TransferField_NonArrayI14SafeBinaryRead16Converter_StringEvRK23StaticTransferFieldInfoR31RuntimeSerializationCommandInfoRT0_
6111:__Z29Transfer_Blittable_ArrayFieldI14SafeBinaryReadfEvRT_R9ArrayInfoRK23StaticTransferFieldInfo
6112:__Z35Transfer_Blittable_SingleValueFieldI14SafeBinaryReadfEvRT_R17GeneralMonoObjectRK23StaticTransferFieldInfo
6113:__Z29Transfer_Blittable_ArrayFieldI14SafeBinaryReadhEvRT_R9ArrayInfoRK23StaticTransferFieldInfo
6114:__Z35Transfer_Blittable_SingleValueFieldI14SafeBinaryReadhEvRT_R17GeneralMonoObjectRK23StaticTransferFieldInfo
6115:__Z29Transfer_Blittable_ArrayFieldI14SafeBinaryReadiEvRT_R9ArrayInfoRK23StaticTransferFieldInfo
6116:__Z35Transfer_Blittable_SingleValueFieldI14SafeBinaryReadiEvRT_R17GeneralMonoObjectRK23StaticTransferFieldInfo
6117:__Z35Transfer_Blittable_FixedBufferFieldI17RemapPPtrTransferiEvRK29SerializationCommandArgumentsR31RuntimeSerializationCommandInfo
6118:__ZL26Transfer_SimpleNativeClassI17RemapPPtrTransfer17AnimationCurveTplIfELb0EEvRK29SerializationCommandArgumentsR31RuntimeSerializationCommandInfo
6119:__ZL26Transfer_SimpleNativeClassI17RemapPPtrTransfer17AnimationCurveTplIfELb1EEvRK29SerializationCommandArgumentsR31RuntimeSerializationCommandInfo
6120:__ZL26Transfer_SimpleNativeClassI17RemapPPtrTransfer8GradientLb0EEvRK29SerializationCommandArgumentsR31RuntimeSerializationCommandInfo
6121:__ZL26Transfer_SimpleNativeClassI17RemapPPtrTransfer8GradientLb1EEvRK29SerializationCommandArgumentsR31RuntimeSerializationCommandInfo
6122:__ZL26Transfer_SimpleNativeClassI17RemapPPtrTransfer10RectOffsetLb0EEvRK29SerializationCommandArgumentsR31RuntimeSerializationCommandInfo
6123:__ZL26Transfer_SimpleNativeClassI17RemapPPtrTransfer10RectOffsetLb1EEvRK29SerializationCommandArgumentsR31RuntimeSerializationCommandInfo
6124:__ZL17Transfer_GUIStyleI17RemapPPtrTransferLb0EEvRK29SerializationCommandArgumentsR31RuntimeSerializationCommandInfo
6125:__ZL17Transfer_GUIStyleI17RemapPPtrTransferLb1EEvRK29SerializationCommandArgumentsR31RuntimeSerializationCommandInfo
6126:__ZL12InvokeMethodI17RemapPPtrTransferEvRK29SerializationCommandArgumentsR31RuntimeSerializationCommandInfo
6127:__Z30TransferField_LinearCollectionI17RemapPPtrTransferEvRK29SerializationCommandArgumentsR31RuntimeSerializationCommandInfo
6128:__Z26Transfer_UnityEngineObjectI17RemapPPtrTransferLb0EEvRK29SerializationCommandArgumentsR31RuntimeSerializationCommandInfo
6129:__Z26Transfer_UnityEngineObjectI17RemapPPtrTransferLb1EEvRK29SerializationCommandArgumentsR31RuntimeSerializationCommandInfo
6130:__ZL22Transfer_ManagedObjectI17RemapPPtrTransferLb0EEvRK29SerializationCommandArgumentsR31RuntimeSerializationCommandInfo
6131:__ZL22Transfer_ManagedObjectI17RemapPPtrTransferLb1EEvRK29SerializationCommandArgumentsR31RuntimeSerializationCommandInfo
6132:__ZN17RemapPPtrTransfer21TransferSTLStyleArrayI31ArrayOfManagedObjectsTransfererEEvRT_17TransferMetaFlags
6133:__Z19TransferField_ArrayI17RemapPPtrTransfer27Converter_UnityEngineObjectEvRK23StaticTransferFieldInfoR31RuntimeSerializationCommandInfoRT0_
6134:__Z13TransferFieldI17RemapPPtrTransferLb0E27Converter_UnityEngineObjectEvRK23StaticTransferFieldInfoR31RuntimeSerializationCommandInfoRT1_
6135:__Z19TransferField_ArrayI17RemapPPtrTransfer27Converter_SimpleNativeClassI8GUIStyleEEvRK23StaticTransferFieldInfoR31RuntimeSerializationCommandInfoRT0_
6136:__ZN12NativeBufferI27Converter_SimpleNativeClassI8GUIStyleEE15SetupForWritingER9ArrayInfo
6137:__ZN8GUIStyle8TransferI17RemapPPtrTransferEEvRT_
6138:__Z22TransferField_NonArrayI17RemapPPtrTransfer27Converter_SimpleNativeClassI8GUIStyleEEvRK23StaticTransferFieldInfoR31RuntimeSerializationCommandInfoRT0_
6139:__Z19TransferField_ArrayI17RemapPPtrTransfer27Converter_SimpleNativeClassI10RectOffsetEEvRK23StaticTransferFieldInfoR31RuntimeSerializationCommandInfoRT0_
6140:__Z22TransferField_NonArrayI17RemapPPtrTransfer27Converter_SimpleNativeClassI10RectOffsetEEvRK23StaticTransferFieldInfoR31RuntimeSerializationCommandInfoRT0_
6141:__Z19TransferField_ArrayI17RemapPPtrTransfer27Converter_SimpleNativeClassI8GradientEEvRK23StaticTransferFieldInfoR31RuntimeSerializationCommandInfoRT0_
6142:__ZN12NativeBufferI27Converter_SimpleNativeClassI8GradientEE15SetupForWritingER9ArrayInfo
6143:__ZN27Converter_SimpleNativeClassI8GradientE17ScriptingToNativeER18ScriptingObjectPtrPS0_
6144:__Z22TransferField_NonArrayI17RemapPPtrTransfer27Converter_SimpleNativeClassI8GradientEEvRK23StaticTransferFieldInfoR31RuntimeSerializationCommandInfoRT0_
6145:__ZN12NativeBufferI27Converter_SimpleNativeClassI17AnimationCurveTplIfEEE15SetupForWritingER9ArrayInfo
6146:__Z22TransferField_NonArrayI17RemapPPtrTransfer27Converter_SimpleNativeClassI17AnimationCurveTplIfEEEvRK23StaticTransferFieldInfoR31RuntimeSerializationCommandInfoRT0_
6147:__Z18Transfer_BlittableI24GenerateTypeTreeTransferLb0EiEvRK29SerializationCommandArgumentsR31RuntimeSerializationCommandInfo
6148:__Z18Transfer_BlittableI24GenerateTypeTreeTransferLb1EiEvRK29SerializationCommandArgumentsR31RuntimeSerializationCommandInfo
6149:__Z35Transfer_Blittable_FixedBufferFieldI24GenerateTypeTreeTransferiEvRK29SerializationCommandArgumentsR31RuntimeSerializationCommandInfo
6150:__Z18Transfer_BlittableI24GenerateTypeTreeTransferLb0EhEvRK29SerializationCommandArgumentsR31RuntimeSerializationCommandInfo
6151:__Z18Transfer_BlittableI24GenerateTypeTreeTransferLb1EhEvRK29SerializationCommandArgumentsR31RuntimeSerializationCommandInfo
6152:__Z35Transfer_Blittable_FixedBufferFieldI24GenerateTypeTreeTransferhEvRK29SerializationCommandArgumentsR31RuntimeSerializationCommandInfo
6153:__Z18Transfer_BlittableI24GenerateTypeTreeTransferLb0EfEvRK29SerializationCommandArgumentsR31RuntimeSerializationCommandInfo
6154:__Z18Transfer_BlittableI24GenerateTypeTreeTransferLb1EfEvRK29SerializationCommandArgumentsR31RuntimeSerializationCommandInfo
6155:__Z35Transfer_Blittable_FixedBufferFieldI24GenerateTypeTreeTransferfEvRK29SerializationCommandArgumentsR31RuntimeSerializationCommandInfo
6156:__Z15Transfer_StringI24GenerateTypeTreeTransferLb0EEvRK29SerializationCommandArgumentsR31RuntimeSerializationCommandInfo
6157:__Z15Transfer_StringI24GenerateTypeTreeTransferLb1EEvRK29SerializationCommandArgumentsR31RuntimeSerializationCommandInfo
6158:__Z18Transfer_BlittableI24GenerateTypeTreeTransferLb0E8Vector3fEvRK29SerializationCommandArgumentsR31RuntimeSerializationCommandInfo
6159:__Z18Transfer_BlittableI24GenerateTypeTreeTransferLb1E8Vector3fEvRK29SerializationCommandArgumentsR31RuntimeSerializationCommandInfo
6160:__Z18Transfer_BlittableI24GenerateTypeTreeTransferLb0EN4math12int3_storageEEvRK29SerializationCommandArgumentsR31RuntimeSerializationCommandInfo
6161:__Z18Transfer_BlittableI24GenerateTypeTreeTransferLb1EN4math12int3_storageEEvRK29SerializationCommandArgumentsR31RuntimeSerializationCommandInfo
6162:__Z18Transfer_BlittableI24GenerateTypeTreeTransferLb0E8Vector2fEvRK29SerializationCommandArgumentsR31RuntimeSerializationCommandInfo
6163:__Z18Transfer_BlittableI24GenerateTypeTreeTransferLb1E8Vector2fEvRK29SerializationCommandArgumentsR31RuntimeSerializationCommandInfo
6164:__Z18Transfer_BlittableI24GenerateTypeTreeTransferLb0EN4math12int2_storageEEvRK29SerializationCommandArgumentsR31RuntimeSerializationCommandInfo
6165:__Z18Transfer_BlittableI24GenerateTypeTreeTransferLb1EN4math12int2_storageEEvRK29SerializationCommandArgumentsR31RuntimeSerializationCommandInfo
6166:__Z18Transfer_BlittableI24GenerateTypeTreeTransferLb0E11QuaternionfEvRK29SerializationCommandArgumentsR31RuntimeSerializationCommandInfo
6167:__Z18Transfer_BlittableI24GenerateTypeTreeTransferLb1E11QuaternionfEvRK29SerializationCommandArgumentsR31RuntimeSerializationCommandInfo
6168:__Z18Transfer_BlittableI24GenerateTypeTreeTransferLb0E10ColorRGBAfEvRK29SerializationCommandArgumentsR31RuntimeSerializationCommandInfo
6169:__Z18Transfer_BlittableI24GenerateTypeTreeTransferLb1E10ColorRGBAfEvRK29SerializationCommandArgumentsR31RuntimeSerializationCommandInfo
6170:__Z18Transfer_BlittableI24GenerateTypeTreeTransferLb0E4AABBEvRK29SerializationCommandArgumentsR31RuntimeSerializationCommandInfo
6171:__Z18Transfer_BlittableI24GenerateTypeTreeTransferLb1E4AABBEvRK29SerializationCommandArgumentsR31RuntimeSerializationCommandInfo
6172:__Z18Transfer_BlittableI24GenerateTypeTreeTransferLb0E9BoundsIntEvRK29SerializationCommandArgumentsR31RuntimeSerializationCommandInfo
6173:__Z18Transfer_BlittableI24GenerateTypeTreeTransferLb1E9BoundsIntEvRK29SerializationCommandArgumentsR31RuntimeSerializationCommandInfo
6174:__Z18Transfer_BlittableI24GenerateTypeTreeTransferLb0EsEvRK29SerializationCommandArgumentsR31RuntimeSerializationCommandInfo
6175:__Z18Transfer_BlittableI24GenerateTypeTreeTransferLb1EsEvRK29SerializationCommandArgumentsR31RuntimeSerializationCommandInfo
6176:__Z35Transfer_Blittable_FixedBufferFieldI24GenerateTypeTreeTransfersEvRK29SerializationCommandArgumentsR31RuntimeSerializationCommandInfo
6177:__Z18Transfer_BlittableI24GenerateTypeTreeTransferLb0ExEvRK29SerializationCommandArgumentsR31RuntimeSerializationCommandInfo
6178:__Z18Transfer_BlittableI24GenerateTypeTreeTransferLb1ExEvRK29SerializationCommandArgumentsR31RuntimeSerializationCommandInfo
6179:__Z35Transfer_Blittable_FixedBufferFieldI24GenerateTypeTreeTransferxEvRK29SerializationCommandArgumentsR31RuntimeSerializationCommandInfo
6180:__Z18Transfer_BlittableI24GenerateTypeTreeTransferLb0EtEvRK29SerializationCommandArgumentsR31RuntimeSerializationCommandInfo
6181:__Z18Transfer_BlittableI24GenerateTypeTreeTransferLb1EtEvRK29SerializationCommandArgumentsR31RuntimeSerializationCommandInfo
6182:__Z35Transfer_Blittable_FixedBufferFieldI24GenerateTypeTreeTransfertEvRK29SerializationCommandArgumentsR31RuntimeSerializationCommandInfo
6183:__Z18Transfer_BlittableI24GenerateTypeTreeTransferLb0E8Vector4fEvRK29SerializationCommandArgumentsR31RuntimeSerializationCommandInfo
6184:__Z18Transfer_BlittableI24GenerateTypeTreeTransferLb1E8Vector4fEvRK29SerializationCommandArgumentsR31RuntimeSerializationCommandInfo
6185:__Z18Transfer_BlittableI24GenerateTypeTreeTransferLb0E5RectTIfEEvRK29SerializationCommandArgumentsR31RuntimeSerializationCommandInfo
6186:__Z18Transfer_BlittableI24GenerateTypeTreeTransferLb1E5RectTIfEEvRK29SerializationCommandArgumentsR31RuntimeSerializationCommandInfo
6187:__Z18Transfer_BlittableI24GenerateTypeTreeTransferLb0E5RectTIiEEvRK29SerializationCommandArgumentsR31RuntimeSerializationCommandInfo
6188:__Z18Transfer_BlittableI24GenerateTypeTreeTransferLb1E5RectTIiEEvRK29SerializationCommandArgumentsR31RuntimeSerializationCommandInfo
6189:__Z18Transfer_BlittableI24GenerateTypeTreeTransferLb0E10Matrix4x4fEvRK29SerializationCommandArgumentsR31RuntimeSerializationCommandInfo
6190:__Z18Transfer_BlittableI24GenerateTypeTreeTransferLb1E10Matrix4x4fEvRK29SerializationCommandArgumentsR31RuntimeSerializationCommandInfo
6191:__Z18Transfer_BlittableI24GenerateTypeTreeTransferLb0E11ColorRGBA32EvRK29SerializationCommandArgumentsR31RuntimeSerializationCommandInfo
6192:__Z18Transfer_BlittableI24GenerateTypeTreeTransferLb1E11ColorRGBA32EvRK29SerializationCommandArgumentsR31RuntimeSerializationCommandInfo
6193:__Z18Transfer_BlittableI24GenerateTypeTreeTransferLb0E8BitFieldEvRK29SerializationCommandArgumentsR31RuntimeSerializationCommandInfo
6194:__Z18Transfer_BlittableI24GenerateTypeTreeTransferLb1E8BitFieldEvRK29SerializationCommandArgumentsR31RuntimeSerializationCommandInfo
6195:__Z18Transfer_BlittableI24GenerateTypeTreeTransferLb0E12PropertyNameEvRK29SerializationCommandArgumentsR31RuntimeSerializationCommandInfo
6196:__Z18Transfer_BlittableI24GenerateTypeTreeTransferLb1E12PropertyNameEvRK29SerializationCommandArgumentsR31RuntimeSerializationCommandInfo
6197:__ZL26Transfer_SimpleNativeClassI24GenerateTypeTreeTransfer17AnimationCurveTplIfELb0EEvRK29SerializationCommandArgumentsR31RuntimeSerializationCommandInfo
6198:__ZL26Transfer_SimpleNativeClassI24GenerateTypeTreeTransfer17AnimationCurveTplIfELb1EEvRK29SerializationCommandArgumentsR31RuntimeSerializationCommandInfo
6199:__ZL26Transfer_SimpleNativeClassI24GenerateTypeTreeTransfer8GradientLb0EEvRK29SerializationCommandArgumentsR31RuntimeSerializationCommandInfo
6200:__ZL26Transfer_SimpleNativeClassI24GenerateTypeTreeTransfer8GradientLb1EEvRK29SerializationCommandArgumentsR31RuntimeSerializationCommandInfo
6201:__ZL26Transfer_SimpleNativeClassI24GenerateTypeTreeTransfer10RectOffsetLb0EEvRK29SerializationCommandArgumentsR31RuntimeSerializationCommandInfo
6202:__ZL26Transfer_SimpleNativeClassI24GenerateTypeTreeTransfer10RectOffsetLb1EEvRK29SerializationCommandArgumentsR31RuntimeSerializationCommandInfo
6203:__Z18Transfer_BlittableI24GenerateTypeTreeTransferLb0EaEvRK29SerializationCommandArgumentsR31RuntimeSerializationCommandInfo
6204:__Z18Transfer_BlittableI24GenerateTypeTreeTransferLb1EaEvRK29SerializationCommandArgumentsR31RuntimeSerializationCommandInfo
6205:__Z35Transfer_Blittable_FixedBufferFieldI24GenerateTypeTreeTransferaEvRK29SerializationCommandArgumentsR31RuntimeSerializationCommandInfo
6206:__Z18Transfer_BlittableI24GenerateTypeTreeTransferLb0EjEvRK29SerializationCommandArgumentsR31RuntimeSerializationCommandInfo
6207:__Z18Transfer_BlittableI24GenerateTypeTreeTransferLb1EjEvRK29SerializationCommandArgumentsR31RuntimeSerializationCommandInfo
6208:__Z35Transfer_Blittable_FixedBufferFieldI24GenerateTypeTreeTransferjEvRK29SerializationCommandArgumentsR31RuntimeSerializationCommandInfo
6209:__Z18Transfer_BlittableI24GenerateTypeTreeTransferLb0EyEvRK29SerializationCommandArgumentsR31RuntimeSerializationCommandInfo
6210:__Z18Transfer_BlittableI24GenerateTypeTreeTransferLb1EyEvRK29SerializationCommandArgumentsR31RuntimeSerializationCommandInfo
6211:__Z35Transfer_Blittable_FixedBufferFieldI24GenerateTypeTreeTransferyEvRK29SerializationCommandArgumentsR31RuntimeSerializationCommandInfo
6212:__Z18Transfer_BlittableI24GenerateTypeTreeTransferLb0EdEvRK29SerializationCommandArgumentsR31RuntimeSerializationCommandInfo
6213:__Z18Transfer_BlittableI24GenerateTypeTreeTransferLb1EdEvRK29SerializationCommandArgumentsR31RuntimeSerializationCommandInfo
6214:__Z35Transfer_Blittable_FixedBufferFieldI24GenerateTypeTreeTransferdEvRK29SerializationCommandArgumentsR31RuntimeSerializationCommandInfo
6215:__ZL17Transfer_GUIStyleI24GenerateTypeTreeTransferLb0EEvRK29SerializationCommandArgumentsR31RuntimeSerializationCommandInfo
6216:__ZL17Transfer_GUIStyleI24GenerateTypeTreeTransferLb1EEvRK29SerializationCommandArgumentsR31RuntimeSerializationCommandInfo
6217:__ZL12InvokeMethodI24GenerateTypeTreeTransferEvRK29SerializationCommandArgumentsR31RuntimeSerializationCommandInfo
6218:__Z30TransferField_LinearCollectionI24GenerateTypeTreeTransferEvRK29SerializationCommandArgumentsR31RuntimeSerializationCommandInfo
6219:__Z26Transfer_UnityEngineObjectI24GenerateTypeTreeTransferLb0EEvRK29SerializationCommandArgumentsR31RuntimeSerializationCommandInfo
6220:__Z26Transfer_UnityEngineObjectI24GenerateTypeTreeTransferLb1EEvRK29SerializationCommandArgumentsR31RuntimeSerializationCommandInfo
6221:__ZL22Transfer_ManagedObjectI24GenerateTypeTreeTransferLb0EEvRK29SerializationCommandArgumentsR31RuntimeSerializationCommandInfo
6222:__ZL22Transfer_ManagedObjectI24GenerateTypeTreeTransferLb1EEvRK29SerializationCommandArgumentsR31RuntimeSerializationCommandInfo
6223:__ZN15SerializeTraitsI31ArrayOfManagedObjectsTransfererE8TransferI24GenerateTypeTreeTransferEEvRS0_RT_
6224:__ZN24GenerateTypeTreeTransfer8TransferI8MonoPPtrEEvRT_PKc17TransferMetaFlags
6225:__Z19TransferField_ArrayI24GenerateTypeTreeTransfer27Converter_SimpleNativeClassI8GUIStyleEEvRK23StaticTransferFieldInfoR31RuntimeSerializationCommandInfoRT0_
6226:__ZN24GenerateTypeTreeTransfer21TransferSTLStyleArrayINSt3__26vectorI8GUIStyle13stl_allocatorIS3_L18MemLabelIdentifier1ELi16EEEEEEvRT_17TransferMetaFlags
6227:__ZN8GUIStyle8TransferI24GenerateTypeTreeTransferEEvRT_
6228:__ZN13GUIStyleState8TransferI24GenerateTypeTreeTransferEEvRT_
6229:__ZN10RectOffset8TransferI24GenerateTypeTreeTransferEEvRT_
6230:__Z13TransferFieldI24GenerateTypeTreeTransferLb0E27Converter_SimpleNativeClassI8GUIStyleEEvRK23StaticTransferFieldInfoR31RuntimeSerializationCommandInfoRT1_
6231:__Z29Transfer_Blittable_ArrayFieldI24GenerateTypeTreeTransferdEvRT_R9ArrayInfoRK23StaticTransferFieldInfo
6232:__Z29Transfer_Blittable_ArrayFieldI24GenerateTypeTreeTransferyEvRT_R9ArrayInfoRK23StaticTransferFieldInfo
6233:__Z29Transfer_Blittable_ArrayFieldI24GenerateTypeTreeTransferjEvRT_R9ArrayInfoRK23StaticTransferFieldInfo
6234:__Z29Transfer_Blittable_ArrayFieldI24GenerateTypeTreeTransferaEvRT_R9ArrayInfoRK23StaticTransferFieldInfo
6235:__Z19TransferField_ArrayI24GenerateTypeTreeTransfer27Converter_SimpleNativeClassI10RectOffsetEEvRK23StaticTransferFieldInfoR31RuntimeSerializationCommandInfoRT0_
6236:__Z19TransferField_ArrayI24GenerateTypeTreeTransfer27Converter_SimpleNativeClassI8GradientEEvRK23StaticTransferFieldInfoR31RuntimeSerializationCommandInfoRT0_
6237:__ZN8Gradient8TransferI24GenerateTypeTreeTransferEEvRT_
6238:__Z19TransferField_ArrayI24GenerateTypeTreeTransfer27Converter_SimpleNativeClassI17AnimationCurveTplIfEEEvRK23StaticTransferFieldInfoR31RuntimeSerializationCommandInfoRT0_
6239:__Z29Transfer_Blittable_ArrayFieldI24GenerateTypeTreeTransfer12PropertyNameEvRT_R9ArrayInfoRK23StaticTransferFieldInfo
6240:__Z29Transfer_Blittable_ArrayFieldI24GenerateTypeTreeTransfer8BitFieldEvRT_R9ArrayInfoRK23StaticTransferFieldInfo
6241:__Z29Transfer_Blittable_ArrayFieldI24GenerateTypeTreeTransfer11ColorRGBA32EvRT_R9ArrayInfoRK23StaticTransferFieldInfo
6242:__Z29Transfer_Blittable_ArrayFieldI24GenerateTypeTreeTransfer10Matrix4x4fEvRT_R9ArrayInfoRK23StaticTransferFieldInfo
6243:__Z29Transfer_Blittable_ArrayFieldI24GenerateTypeTreeTransfer5RectTIiEEvRT_R9ArrayInfoRK23StaticTransferFieldInfo
6244:__ZN5RectTIiE8TransferI24GenerateTypeTreeTransferEEvRT_
6245:__Z29Transfer_Blittable_ArrayFieldI24GenerateTypeTreeTransfer5RectTIfEEvRT_R9ArrayInfoRK23StaticTransferFieldInfo
6246:__Z29Transfer_Blittable_ArrayFieldI24GenerateTypeTreeTransfer8Vector4fEvRT_R9ArrayInfoRK23StaticTransferFieldInfo
6247:__Z29Transfer_Blittable_ArrayFieldI24GenerateTypeTreeTransfertEvRT_R9ArrayInfoRK23StaticTransferFieldInfo
6248:__Z29Transfer_Blittable_ArrayFieldI24GenerateTypeTreeTransferxEvRT_R9ArrayInfoRK23StaticTransferFieldInfo
6249:__Z29Transfer_Blittable_ArrayFieldI24GenerateTypeTreeTransfersEvRT_R9ArrayInfoRK23StaticTransferFieldInfo
6250:__Z29Transfer_Blittable_ArrayFieldI24GenerateTypeTreeTransfer9BoundsIntEvRT_R9ArrayInfoRK23StaticTransferFieldInfo
6251:__Z29Transfer_Blittable_ArrayFieldI24GenerateTypeTreeTransfer4AABBEvRT_R9ArrayInfoRK23StaticTransferFieldInfo
6252:__Z29Transfer_Blittable_ArrayFieldI24GenerateTypeTreeTransfer10ColorRGBAfEvRT_R9ArrayInfoRK23StaticTransferFieldInfo
6253:__Z29Transfer_Blittable_ArrayFieldI24GenerateTypeTreeTransfer11QuaternionfEvRT_R9ArrayInfoRK23StaticTransferFieldInfo
6254:__Z29Transfer_Blittable_ArrayFieldI24GenerateTypeTreeTransferN4math12int2_storageEEvRT_R9ArrayInfoRK23StaticTransferFieldInfo
6255:__Z29Transfer_Blittable_ArrayFieldI24GenerateTypeTreeTransfer8Vector2fEvRT_R9ArrayInfoRK23StaticTransferFieldInfo
6256:__Z29Transfer_Blittable_ArrayFieldI24GenerateTypeTreeTransferN4math12int3_storageEEvRT_R9ArrayInfoRK23StaticTransferFieldInfo
6257:__Z29Transfer_Blittable_ArrayFieldI24GenerateTypeTreeTransfer8Vector3fEvRT_R9ArrayInfoRK23StaticTransferFieldInfo
6258:__Z19TransferField_ArrayI24GenerateTypeTreeTransfer16Converter_StringEvRK23StaticTransferFieldInfoR31RuntimeSerializationCommandInfoRT0_
6259:__Z22TransferField_NonArrayI24GenerateTypeTreeTransfer16Converter_StringEvRK23StaticTransferFieldInfoR31RuntimeSerializationCommandInfoRT0_
6260:__Z29Transfer_Blittable_ArrayFieldI24GenerateTypeTreeTransferfEvRT_R9ArrayInfoRK23StaticTransferFieldInfo
6261:__Z29Transfer_Blittable_ArrayFieldI24GenerateTypeTreeTransferhEvRT_R9ArrayInfoRK23StaticTransferFieldInfo
6262:__Z29Transfer_Blittable_ArrayFieldI24GenerateTypeTreeTransferiEvRT_R9ArrayInfoRK23StaticTransferFieldInfo
6263:__Z18Transfer_BlittableI19StreamedBinaryWriteLb0EiEvRK29SerializationCommandArgumentsR31RuntimeSerializationCommandInfo
6264:__Z18Transfer_BlittableI19StreamedBinaryWriteLb1EiEvRK29SerializationCommandArgumentsR31RuntimeSerializationCommandInfo
6265:__Z35Transfer_Blittable_FixedBufferFieldI19StreamedBinaryWriteiEvRK29SerializationCommandArgumentsR31RuntimeSerializationCommandInfo
6266:__Z18Transfer_BlittableI19StreamedBinaryWriteLb0EhEvRK29SerializationCommandArgumentsR31RuntimeSerializationCommandInfo
6267:__Z18Transfer_BlittableI19StreamedBinaryWriteLb1EhEvRK29SerializationCommandArgumentsR31RuntimeSerializationCommandInfo
6268:__Z35Transfer_Blittable_FixedBufferFieldI19StreamedBinaryWritehEvRK29SerializationCommandArgumentsR31RuntimeSerializationCommandInfo
6269:__Z15Transfer_StringI19StreamedBinaryWriteLb0EEvRK29SerializationCommandArgumentsR31RuntimeSerializationCommandInfo
6270:__Z15Transfer_StringI19StreamedBinaryWriteLb1EEvRK29SerializationCommandArgumentsR31RuntimeSerializationCommandInfo
6271:__Z18Transfer_BlittableI19StreamedBinaryWriteLb0E8Vector3fEvRK29SerializationCommandArgumentsR31RuntimeSerializationCommandInfo
6272:__Z18Transfer_BlittableI19StreamedBinaryWriteLb1E8Vector3fEvRK29SerializationCommandArgumentsR31RuntimeSerializationCommandInfo
6273:__Z18Transfer_BlittableI19StreamedBinaryWriteLb0E8Vector2fEvRK29SerializationCommandArgumentsR31RuntimeSerializationCommandInfo
6274:__Z18Transfer_BlittableI19StreamedBinaryWriteLb1E8Vector2fEvRK29SerializationCommandArgumentsR31RuntimeSerializationCommandInfo
6275:__Z18Transfer_BlittableI19StreamedBinaryWriteLb0E11QuaternionfEvRK29SerializationCommandArgumentsR31RuntimeSerializationCommandInfo
6276:__Z18Transfer_BlittableI19StreamedBinaryWriteLb1E11QuaternionfEvRK29SerializationCommandArgumentsR31RuntimeSerializationCommandInfo
6277:__Z18Transfer_BlittableI19StreamedBinaryWriteLb0E10ColorRGBAfEvRK29SerializationCommandArgumentsR31RuntimeSerializationCommandInfo
6278:__Z18Transfer_BlittableI19StreamedBinaryWriteLb1E10ColorRGBAfEvRK29SerializationCommandArgumentsR31RuntimeSerializationCommandInfo
6279:__Z18Transfer_BlittableI19StreamedBinaryWriteLb0E4AABBEvRK29SerializationCommandArgumentsR31RuntimeSerializationCommandInfo
6280:__Z18Transfer_BlittableI19StreamedBinaryWriteLb1E4AABBEvRK29SerializationCommandArgumentsR31RuntimeSerializationCommandInfo
6281:__Z18Transfer_BlittableI19StreamedBinaryWriteLb0E9BoundsIntEvRK29SerializationCommandArgumentsR31RuntimeSerializationCommandInfo
6282:__Z18Transfer_BlittableI19StreamedBinaryWriteLb1E9BoundsIntEvRK29SerializationCommandArgumentsR31RuntimeSerializationCommandInfo
6283:__Z18Transfer_BlittableI19StreamedBinaryWriteLb0EsEvRK29SerializationCommandArgumentsR31RuntimeSerializationCommandInfo
6284:__Z18Transfer_BlittableI19StreamedBinaryWriteLb1EsEvRK29SerializationCommandArgumentsR31RuntimeSerializationCommandInfo
6285:__Z35Transfer_Blittable_FixedBufferFieldI19StreamedBinaryWritesEvRK29SerializationCommandArgumentsR31RuntimeSerializationCommandInfo
6286:__Z18Transfer_BlittableI19StreamedBinaryWriteLb0ExEvRK29SerializationCommandArgumentsR31RuntimeSerializationCommandInfo
6287:__Z18Transfer_BlittableI19StreamedBinaryWriteLb1ExEvRK29SerializationCommandArgumentsR31RuntimeSerializationCommandInfo
6288:__Z35Transfer_Blittable_FixedBufferFieldI19StreamedBinaryWritexEvRK29SerializationCommandArgumentsR31RuntimeSerializationCommandInfo
6289:__Z18Transfer_BlittableI19StreamedBinaryWriteLb0E10Matrix4x4fEvRK29SerializationCommandArgumentsR31RuntimeSerializationCommandInfo
6290:__Z18Transfer_BlittableI19StreamedBinaryWriteLb1E10Matrix4x4fEvRK29SerializationCommandArgumentsR31RuntimeSerializationCommandInfo
6291:__Z18Transfer_BlittableI19StreamedBinaryWriteLb0E12PropertyNameEvRK29SerializationCommandArgumentsR31RuntimeSerializationCommandInfo
6292:__Z18Transfer_BlittableI19StreamedBinaryWriteLb1E12PropertyNameEvRK29SerializationCommandArgumentsR31RuntimeSerializationCommandInfo
6293:__ZL26Transfer_SimpleNativeClassI19StreamedBinaryWrite17AnimationCurveTplIfELb0EEvRK29SerializationCommandArgumentsR31RuntimeSerializationCommandInfo
6294:__ZL26Transfer_SimpleNativeClassI19StreamedBinaryWrite17AnimationCurveTplIfELb1EEvRK29SerializationCommandArgumentsR31RuntimeSerializationCommandInfo
6295:__ZL26Transfer_SimpleNativeClassI19StreamedBinaryWrite8GradientLb0EEvRK29SerializationCommandArgumentsR31RuntimeSerializationCommandInfo
6296:__ZL26Transfer_SimpleNativeClassI19StreamedBinaryWrite8GradientLb1EEvRK29SerializationCommandArgumentsR31RuntimeSerializationCommandInfo
6297:__ZL26Transfer_SimpleNativeClassI19StreamedBinaryWrite10RectOffsetLb0EEvRK29SerializationCommandArgumentsR31RuntimeSerializationCommandInfo
6298:__ZL26Transfer_SimpleNativeClassI19StreamedBinaryWrite10RectOffsetLb1EEvRK29SerializationCommandArgumentsR31RuntimeSerializationCommandInfo
6299:__Z18Transfer_BlittableI19StreamedBinaryWriteLb0EdEvRK29SerializationCommandArgumentsR31RuntimeSerializationCommandInfo
6300:__Z18Transfer_BlittableI19StreamedBinaryWriteLb1EdEvRK29SerializationCommandArgumentsR31RuntimeSerializationCommandInfo
6301:__Z35Transfer_Blittable_FixedBufferFieldI19StreamedBinaryWritedEvRK29SerializationCommandArgumentsR31RuntimeSerializationCommandInfo
6302:__ZL17Transfer_GUIStyleI19StreamedBinaryWriteLb0EEvRK29SerializationCommandArgumentsR31RuntimeSerializationCommandInfo
6303:__ZL17Transfer_GUIStyleI19StreamedBinaryWriteLb1EEvRK29SerializationCommandArgumentsR31RuntimeSerializationCommandInfo
6304:__ZL12InvokeMethodI19StreamedBinaryWriteEvRK29SerializationCommandArgumentsR31RuntimeSerializationCommandInfo
6305:__Z30TransferField_LinearCollectionI19StreamedBinaryWriteEvRK29SerializationCommandArgumentsR31RuntimeSerializationCommandInfo
6306:__Z26Transfer_UnityEngineObjectI19StreamedBinaryWriteLb0EEvRK29SerializationCommandArgumentsR31RuntimeSerializationCommandInfo
6307:__Z26Transfer_UnityEngineObjectI19StreamedBinaryWriteLb1EEvRK29SerializationCommandArgumentsR31RuntimeSerializationCommandInfo
6308:__ZL22Transfer_ManagedObjectI19StreamedBinaryWriteLb0EEvRK29SerializationCommandArgumentsR31RuntimeSerializationCommandInfo
6309:__ZL22Transfer_ManagedObjectI19StreamedBinaryWriteLb1EEvRK29SerializationCommandArgumentsR31RuntimeSerializationCommandInfo
6310:__ZN19StreamedBinaryWrite21TransferSTLStyleArrayI31ArrayOfManagedObjectsTransfererEEvRT_17TransferMetaFlags
6311:__Z19TransferField_ArrayI19StreamedBinaryWrite27Converter_UnityEngineObjectEvRK23StaticTransferFieldInfoR31RuntimeSerializationCommandInfoRT0_
6312:__Z19TransferField_ArrayI19StreamedBinaryWrite27Converter_SimpleNativeClassI8GUIStyleEEvRK23StaticTransferFieldInfoR31RuntimeSerializationCommandInfoRT0_
6313:__ZN8GUIStyle8TransferI19StreamedBinaryWriteEEvRT_
6314:__Z22TransferField_NonArrayI19StreamedBinaryWrite27Converter_SimpleNativeClassI8GUIStyleEEvRK23StaticTransferFieldInfoR31RuntimeSerializationCommandInfoRT0_
6315:__Z29Transfer_Blittable_ArrayFieldI19StreamedBinaryWritedEvRT_R9ArrayInfoRK23StaticTransferFieldInfo
6316:__Z29Transfer_Blittable_ArrayFieldI19StreamedBinaryWriteyEvRT_R9ArrayInfoRK23StaticTransferFieldInfo
6317:__Z29Transfer_Blittable_ArrayFieldI19StreamedBinaryWritejEvRT_R9ArrayInfoRK23StaticTransferFieldInfo
6318:__Z29Transfer_Blittable_ArrayFieldI19StreamedBinaryWriteaEvRT_R9ArrayInfoRK23StaticTransferFieldInfo
6319:__Z19TransferField_ArrayI19StreamedBinaryWrite27Converter_SimpleNativeClassI10RectOffsetEEvRK23StaticTransferFieldInfoR31RuntimeSerializationCommandInfoRT0_
6320:__Z19TransferField_ArrayI19StreamedBinaryWrite27Converter_SimpleNativeClassI8GradientEEvRK23StaticTransferFieldInfoR31RuntimeSerializationCommandInfoRT0_
6321:__ZN8Gradient8TransferI19StreamedBinaryWriteEEvRT_
6322:__Z22TransferField_NonArrayI19StreamedBinaryWrite27Converter_SimpleNativeClassI8GradientEEvRK23StaticTransferFieldInfoR31RuntimeSerializationCommandInfoRT0_
6323:__Z19TransferField_ArrayI19StreamedBinaryWrite27Converter_SimpleNativeClassI17AnimationCurveTplIfEEEvRK23StaticTransferFieldInfoR31RuntimeSerializationCommandInfoRT0_
6324:__Z22TransferField_NonArrayI19StreamedBinaryWrite27Converter_SimpleNativeClassI17AnimationCurveTplIfEEEvRK23StaticTransferFieldInfoR31RuntimeSerializationCommandInfoRT0_
6325:__Z29Transfer_Blittable_ArrayFieldI19StreamedBinaryWrite12PropertyNameEvRT_R9ArrayInfoRK23StaticTransferFieldInfo
6326:__Z29Transfer_Blittable_ArrayFieldI19StreamedBinaryWrite10Matrix4x4fEvRT_R9ArrayInfoRK23StaticTransferFieldInfo
6327:__Z29Transfer_Blittable_ArrayFieldI19StreamedBinaryWrite5RectTIiEEvRT_R9ArrayInfoRK23StaticTransferFieldInfo
6328:__Z29Transfer_Blittable_ArrayFieldI19StreamedBinaryWrite5RectTIfEEvRT_R9ArrayInfoRK23StaticTransferFieldInfo
6329:__Z35Transfer_Blittable_SingleValueFieldI19StreamedBinaryWrite5RectTIfEEvRT_R17GeneralMonoObjectRK23StaticTransferFieldInfo
6330:__Z29Transfer_Blittable_ArrayFieldI19StreamedBinaryWritetEvRT_R9ArrayInfoRK23StaticTransferFieldInfo
6331:__Z29Transfer_Blittable_ArrayFieldI19StreamedBinaryWrite9BoundsIntEvRT_R9ArrayInfoRK23StaticTransferFieldInfo
6332:__ZN9BoundsInt8TransferI19StreamedBinaryWriteEEvRT_
6333:__Z29Transfer_Blittable_ArrayFieldI19StreamedBinaryWrite4AABBEvRT_R9ArrayInfoRK23StaticTransferFieldInfo
6334:__Z29Transfer_Blittable_ArrayFieldI19StreamedBinaryWriteN4math12int2_storageEEvRT_R9ArrayInfoRK23StaticTransferFieldInfo
6335:__Z29Transfer_Blittable_ArrayFieldI19StreamedBinaryWriteN4math12int3_storageEEvRT_R9ArrayInfoRK23StaticTransferFieldInfo
6336:__Z19TransferField_ArrayI19StreamedBinaryWrite16Converter_StringEvRK23StaticTransferFieldInfoR31RuntimeSerializationCommandInfoRT0_
6337:__ZN12NativeBufferI16Converter_StringE15SetupForWritingER9ArrayInfo
6338:__ZN16Converter_String17ScriptingToNativeE18ScriptingStringPtrPN4core12basic_stringIcNS1_20StringStorageDefaultIcEEEE
6339:__Z13TransferFieldI19StreamedBinaryWriteLb0E16Converter_StringEvRK23StaticTransferFieldInfoR31RuntimeSerializationCommandInfoRT1_
6340:__Z18Transfer_BlittableI18StreamedBinaryReadLb0EiEvRK29SerializationCommandArgumentsR31RuntimeSerializationCommandInfo
6341:__Z18Transfer_BlittableI18StreamedBinaryReadLb1EiEvRK29SerializationCommandArgumentsR31RuntimeSerializationCommandInfo
6342:__Z35Transfer_Blittable_FixedBufferFieldI18StreamedBinaryReadiEvRK29SerializationCommandArgumentsR31RuntimeSerializationCommandInfo
6343:__Z18Transfer_BlittableI18StreamedBinaryReadLb0EhEvRK29SerializationCommandArgumentsR31RuntimeSerializationCommandInfo
6344:__Z18Transfer_BlittableI18StreamedBinaryReadLb1EhEvRK29SerializationCommandArgumentsR31RuntimeSerializationCommandInfo
6345:__Z35Transfer_Blittable_FixedBufferFieldI18StreamedBinaryReadhEvRK29SerializationCommandArgumentsR31RuntimeSerializationCommandInfo
6346:__Z15Transfer_StringI18StreamedBinaryReadLb0EEvRK29SerializationCommandArgumentsR31RuntimeSerializationCommandInfo
6347:__Z15Transfer_StringI18StreamedBinaryReadLb1EEvRK29SerializationCommandArgumentsR31RuntimeSerializationCommandInfo
6348:__Z18Transfer_BlittableI18StreamedBinaryReadLb0E8Vector3fEvRK29SerializationCommandArgumentsR31RuntimeSerializationCommandInfo
6349:__Z18Transfer_BlittableI18StreamedBinaryReadLb1E8Vector3fEvRK29SerializationCommandArgumentsR31RuntimeSerializationCommandInfo
6350:__Z18Transfer_BlittableI18StreamedBinaryReadLb0E8Vector2fEvRK29SerializationCommandArgumentsR31RuntimeSerializationCommandInfo
6351:__Z18Transfer_BlittableI18StreamedBinaryReadLb1E8Vector2fEvRK29SerializationCommandArgumentsR31RuntimeSerializationCommandInfo
6352:__Z18Transfer_BlittableI18StreamedBinaryReadLb0E11QuaternionfEvRK29SerializationCommandArgumentsR31RuntimeSerializationCommandInfo
6353:__Z18Transfer_BlittableI18StreamedBinaryReadLb1E11QuaternionfEvRK29SerializationCommandArgumentsR31RuntimeSerializationCommandInfo
6354:__Z18Transfer_BlittableI18StreamedBinaryReadLb0E10ColorRGBAfEvRK29SerializationCommandArgumentsR31RuntimeSerializationCommandInfo
6355:__Z18Transfer_BlittableI18StreamedBinaryReadLb0E4AABBEvRK29SerializationCommandArgumentsR31RuntimeSerializationCommandInfo
6356:__Z18Transfer_BlittableI18StreamedBinaryReadLb1E4AABBEvRK29SerializationCommandArgumentsR31RuntimeSerializationCommandInfo
6357:__Z18Transfer_BlittableI18StreamedBinaryReadLb0E9BoundsIntEvRK29SerializationCommandArgumentsR31RuntimeSerializationCommandInfo
6358:__Z18Transfer_BlittableI18StreamedBinaryReadLb0EsEvRK29SerializationCommandArgumentsR31RuntimeSerializationCommandInfo
6359:__Z18Transfer_BlittableI18StreamedBinaryReadLb1EsEvRK29SerializationCommandArgumentsR31RuntimeSerializationCommandInfo
6360:__Z35Transfer_Blittable_FixedBufferFieldI18StreamedBinaryReadsEvRK29SerializationCommandArgumentsR31RuntimeSerializationCommandInfo
6361:__Z18Transfer_BlittableI18StreamedBinaryReadLb0ExEvRK29SerializationCommandArgumentsR31RuntimeSerializationCommandInfo
6362:__Z18Transfer_BlittableI18StreamedBinaryReadLb1ExEvRK29SerializationCommandArgumentsR31RuntimeSerializationCommandInfo
6363:__Z35Transfer_Blittable_FixedBufferFieldI18StreamedBinaryReadxEvRK29SerializationCommandArgumentsR31RuntimeSerializationCommandInfo
6364:__Z18Transfer_BlittableI18StreamedBinaryReadLb1E5RectTIfEEvRK29SerializationCommandArgumentsR31RuntimeSerializationCommandInfo
6365:__Z18Transfer_BlittableI18StreamedBinaryReadLb0E10Matrix4x4fEvRK29SerializationCommandArgumentsR31RuntimeSerializationCommandInfo
6366:__Z18Transfer_BlittableI18StreamedBinaryReadLb1E10Matrix4x4fEvRK29SerializationCommandArgumentsR31RuntimeSerializationCommandInfo
6367:__Z18Transfer_BlittableI18StreamedBinaryReadLb1E11ColorRGBA32EvRK29SerializationCommandArgumentsR31RuntimeSerializationCommandInfo
6368:__Z18Transfer_BlittableI18StreamedBinaryReadLb0E12PropertyNameEvRK29SerializationCommandArgumentsR31RuntimeSerializationCommandInfo
6369:__Z18Transfer_BlittableI18StreamedBinaryReadLb1E12PropertyNameEvRK29SerializationCommandArgumentsR31RuntimeSerializationCommandInfo
6370:__ZL26Transfer_SimpleNativeClassI18StreamedBinaryRead17AnimationCurveTplIfELb0EEvRK29SerializationCommandArgumentsR31RuntimeSerializationCommandInfo
6371:__ZL26Transfer_SimpleNativeClassI18StreamedBinaryRead17AnimationCurveTplIfELb1EEvRK29SerializationCommandArgumentsR31RuntimeSerializationCommandInfo
6372:__ZL26Transfer_SimpleNativeClassI18StreamedBinaryRead8GradientLb0EEvRK29SerializationCommandArgumentsR31RuntimeSerializationCommandInfo
6373:__ZL26Transfer_SimpleNativeClassI18StreamedBinaryRead8GradientLb1EEvRK29SerializationCommandArgumentsR31RuntimeSerializationCommandInfo
6374:__ZL26Transfer_SimpleNativeClassI18StreamedBinaryRead10RectOffsetLb0EEvRK29SerializationCommandArgumentsR31RuntimeSerializationCommandInfo
6375:__ZL26Transfer_SimpleNativeClassI18StreamedBinaryRead10RectOffsetLb1EEvRK29SerializationCommandArgumentsR31RuntimeSerializationCommandInfo
6376:__Z18Transfer_BlittableI18StreamedBinaryReadLb0EdEvRK29SerializationCommandArgumentsR31RuntimeSerializationCommandInfo
6377:__ZL17Transfer_GUIStyleI18StreamedBinaryReadLb0EEvRK29SerializationCommandArgumentsR31RuntimeSerializationCommandInfo
6378:__ZL17Transfer_GUIStyleI18StreamedBinaryReadLb1EEvRK29SerializationCommandArgumentsR31RuntimeSerializationCommandInfo
6379:__Z26Transfer_UnityEngineObjectI18StreamedBinaryReadLb0EEvRK29SerializationCommandArgumentsR31RuntimeSerializationCommandInfo
6380:__Z26Transfer_UnityEngineObjectI18StreamedBinaryReadLb1EEvRK29SerializationCommandArgumentsR31RuntimeSerializationCommandInfo
6381:__ZL22Transfer_ManagedObjectI18StreamedBinaryReadLb1EEvRK29SerializationCommandArgumentsR31RuntimeSerializationCommandInfo
6382:__ZN18StreamedBinaryRead21TransferSTLStyleArrayI31ArrayOfManagedObjectsTransfererEEvRT_17TransferMetaFlags
6383:__Z19TransferField_ArrayI18StreamedBinaryRead27Converter_UnityEngineObjectEvRK23StaticTransferFieldInfoR31RuntimeSerializationCommandInfoRT0_
6384:__Z19TransferField_ArrayI18StreamedBinaryRead27Converter_SimpleNativeClassI8GUIStyleEEvRK23StaticTransferFieldInfoR31RuntimeSerializationCommandInfoRT0_
6385:__ZN8GUIStyle8TransferI18StreamedBinaryReadEEvRT_
6386:__Z22TransferField_NonArrayI18StreamedBinaryRead27Converter_SimpleNativeClassI8GUIStyleEEvRK23StaticTransferFieldInfoR31RuntimeSerializationCommandInfoRT0_
6387:__ZN18StreamedBinaryRead8TransferI13dynamic_arrayIdLj0EEEEvRT_PKc17TransferMetaFlags
6388:__Z29Transfer_Blittable_ArrayFieldI18StreamedBinaryReaddEvRT_R9ArrayInfoRK23StaticTransferFieldInfo
6389:__Z29Transfer_Blittable_ArrayFieldI18StreamedBinaryReadjEvRT_R9ArrayInfoRK23StaticTransferFieldInfo
6390:__Z29Transfer_Blittable_ArrayFieldI18StreamedBinaryReadaEvRT_R9ArrayInfoRK23StaticTransferFieldInfo
6391:__Z19TransferField_ArrayI18StreamedBinaryRead27Converter_SimpleNativeClassI10RectOffsetEEvRK23StaticTransferFieldInfoR31RuntimeSerializationCommandInfoRT0_
6392:__Z19TransferField_ArrayI18StreamedBinaryRead27Converter_SimpleNativeClassI8GradientEEvRK23StaticTransferFieldInfoR31RuntimeSerializationCommandInfoRT0_
6393:__ZN8Gradient8TransferI18StreamedBinaryReadEEvRT_
6394:__Z22TransferField_NonArrayI18StreamedBinaryRead27Converter_SimpleNativeClassI8GradientEEvRK23StaticTransferFieldInfoR31RuntimeSerializationCommandInfoRT0_
6395:__Z19TransferField_ArrayI18StreamedBinaryRead27Converter_SimpleNativeClassI17AnimationCurveTplIfEEEvRK23StaticTransferFieldInfoR31RuntimeSerializationCommandInfoRT0_
6396:__Z22TransferField_NonArrayI18StreamedBinaryRead27Converter_SimpleNativeClassI17AnimationCurveTplIfEEEvRK23StaticTransferFieldInfoR31RuntimeSerializationCommandInfoRT0_
6397:__Z29Transfer_Blittable_ArrayFieldI18StreamedBinaryRead12PropertyNameEvRT_R9ArrayInfoRK23StaticTransferFieldInfo
6398:__ZN18StreamedBinaryRead21TransferSTLStyleArrayI13dynamic_arrayI12PropertyNameLj0EEEEvRT_17TransferMetaFlags
6399:__Z29Transfer_Blittable_ArrayFieldI18StreamedBinaryRead11ColorRGBA32EvRT_R9ArrayInfoRK23StaticTransferFieldInfo
6400:__Z29Transfer_Blittable_ArrayFieldI18StreamedBinaryRead10Matrix4x4fEvRT_R9ArrayInfoRK23StaticTransferFieldInfo
6401:__Z29Transfer_Blittable_ArrayFieldI18StreamedBinaryRead5RectTIiEEvRT_R9ArrayInfoRK23StaticTransferFieldInfo
6402:__ZN18StreamedBinaryRead8TransferI13dynamic_arrayI5RectTIiELj0EEEEvRT_PKc17TransferMetaFlags
6403:__Z29Transfer_Blittable_ArrayFieldI18StreamedBinaryRead8Vector4fEvRT_R9ArrayInfoRK23StaticTransferFieldInfo
6404:__Z29Transfer_Blittable_ArrayFieldI18StreamedBinaryReadtEvRT_R9ArrayInfoRK23StaticTransferFieldInfo
6405:__Z29Transfer_Blittable_ArrayFieldI18StreamedBinaryRead9BoundsIntEvRT_R9ArrayInfoRK23StaticTransferFieldInfo
6406:__ZN9BoundsInt8TransferI18StreamedBinaryReadEEvRT_
6407:__Z29Transfer_Blittable_ArrayFieldI18StreamedBinaryReadN4math12int2_storageEEvRT_R9ArrayInfoRK23StaticTransferFieldInfo
6408:__Z29Transfer_Blittable_ArrayFieldI18StreamedBinaryReadN4math12int3_storageEEvRT_R9ArrayInfoRK23StaticTransferFieldInfo
6409:__Z19TransferField_ArrayI18StreamedBinaryRead16Converter_StringEvRK23StaticTransferFieldInfoR31RuntimeSerializationCommandInfoRT0_
6410:__Z13TransferFieldI18StreamedBinaryReadLb0E16Converter_StringEvRK23StaticTransferFieldInfoR31RuntimeSerializationCommandInfoRT1_
6411:__ZL30FindScriptingClassForClassNamePKcS0_
6412:__ZN13sorted_vectorINSt3__24pairI17ScriptingClassPtrPKN5Unity4TypeEEEN10vector_mapIS2_S6_NS0_4lessIS2_EENS0_9allocatorIS7_EEE13value_compareESC_E21sort_clear_duplicatesEv
6413:__ZL40FindScriptingClassForNativeTypeRecursivePKN5Unity4TypeE17ScriptingClassPtr
6414:__ZNSt3__213__stable_sortIRN10vector_mapI17ScriptingClassPtrPKN5Unity4TypeENS_4lessIS2_EENS_9allocatorINS_4pairIS2_S6_EEEEE13value_compareENS_11__wrap_iterIPSB_EEEEvT0_SJ_T_NS_15iterator_traitsISJ_E15difference_typeEPNSM_10value_typeEi
6415:__ZNSt3__218__stable_sort_moveIRN10vector_mapI17ScriptingClassPtrPKN5Unity4TypeENS_4lessIS2_EENS_9allocatorINS_4pairIS2_S6_EEEEE13value_compareENS_11__wrap_iterIPSB_EEEEvT0_SJ_T_NS_15iterator_traitsISJ_E15difference_typeEPNSM_10value_typeE
6416:__ZNSt3__215__inplace_mergeIRN10vector_mapI17ScriptingClassPtrPKN5Unity4TypeENS_4lessIS2_EENS_9allocatorINS_4pairIS2_S6_EEEEE13value_compareENS_11__wrap_iterIPSB_EEEEvT0_SJ_SJ_T_NS_15iterator_traitsISJ_E15difference_typeESN_PNSM_10value_typeEi
6417:__ZNSt3__224__buffered_inplace_mergeIRN10vector_mapI17ScriptingClassPtrPKN5Unity4TypeENS_4lessIS2_EENS_9allocatorINS_4pairIS2_S6_EEEEE13value_compareENS_11__wrap_iterIPSB_EEEEvT0_SJ_SJ_T_NS_15iterator_traitsISJ_E15difference_typeESN_PNSM_10value_typeE
6418:__Z26FillCommonScriptingClassesR22CommonScriptingClasses
6419:__Z36FillCommonScriptingClassesCorlibOnlyR22CommonScriptingClasses
6420:__ZNK35ScriptingManagedObjectProxyRegistry11InitProxiesEv
6421:__Z25scripting_class_from_name17ScriptingImagePtrPKcS1_
6422:__ZL19RequireCorLibMethodPKcS0_S0_
6423:__Z25scripting_array_class_get17ScriptingClassPtrj
6424:__ZN9Scripting11UnityEngine32UnitySynchronizationContextProxy32InitializeSynchronizationContextEP21ScriptingExceptionPtr
6425:__Z27ClearCommonScriptingClassesR22CommonScriptingClasses
6426:__ZNK35ScriptingManagedObjectProxyRegistry14CleanupProxiesEv
6427:__ZN9TextAssetD2Ev
6428:__ZN9TextAssetD0Ev
6429:__ZNK9TextAsset22GetTypeVirtualInternalEv
6430:__ZN9TextAsset23VirtualRedirectTransferER19StreamedBinaryWrite
6431:__ZN9TextAsset23VirtualRedirectTransferER18StreamedBinaryRead
6432:__ZN9TextAsset23VirtualRedirectTransferER24GenerateTypeTreeTransfer
6433:__ZN9TextAsset23VirtualRedirectTransferER14SafeBinaryRead
6434:__ZN14SafeBinaryRead22TransferWithTypeStringI9TextAssetEEvRT_PKcS5_17TransferMetaFlags
6435:__ZN34ObjectStoredSerializableManagedRef6IsNullEP6Object
6436:__ZN34ObjectStoredSerializableManagedRef9IsNotNullEP6Object
6437:__ZNK34ObjectStoredSerializableManagedRef11GetInstanceEP6Object
6438:__ZN34ObjectStoredSerializableManagedRef11SetInstanceEP6Object18ScriptingObjectPtr
6439:__ZN23ManagedMonoBehaviourRef14GetDisplayNameEP6Object
6440:__ZN23ManagedMonoBehaviourRef15WillBeDestroyedEP6Object
6441:__ZN23ManagedMonoBehaviourRef19ReleaseMonoInstanceEP6Object
6442:__ZN23ManagedMonoBehaviourRef35RebuildMonoInstanceFromScriptChangeEP6Object17ScriptingClassPtr18ScriptingObjectPtr
6443:__ZN23ManagedMonoBehaviourRef22DoScriptRebuildWarningEP6Object
6444:__ZN23ManagedMonoBehaviourRef21FormatScriptTypeErrorEv
6445:__ZNK23ManagedMonoBehaviourRef15CanAssignScriptEP6ObjectRK4PPtrI10MonoScriptE
6446:__ZN23ManagedMonoBehaviourRef24IsManagedClassCompatibleEP10MonoScript17ScriptingClassPtr
6447:__ZN23ManagedMonoBehaviourRef17IsValidScriptTypeEP6Object14MonoScriptType
6448:__ZN23ManagedMonoBehaviourRef14SetScriptCacheEPK15MonoScriptCache
6449:__ZN22SerializableManagedRef14SetScriptCacheEPK15MonoScriptCache
6450:__ZN16ScriptingManager19RegisterScriptCacheEP15MonoScriptCache
6451:__ZN22SerializableManagedRef35RebuildMonoInstanceFromScriptChangeEP6Object17ScriptingClassPtr18ScriptingObjectPtr
6452:__ZN22SerializableManagedRef19ReleaseMonoInstanceEP6Object
6453:__ZNK15MonoScriptCache7ReleaseEv
6454:__ZN16ScriptingManager24NotifyScriptCacheReleaseEi
6455:__ZN13MonoBehaviour26WillUnloadScriptableObjectEv
6456:__ZN19ScriptingInvocation28AdjustArgumentsToMatchMethodEv
6457:__ZN19ScriptingInvocation13InvokeCheckedEP21ScriptingExceptionPtr
6458:__ZN18ScriptingArguments27CheckArgumentsAgainstMethodE18ScriptingMethodPtr
6459:__ZN18ScriptingArguments28AdjustArgumentsToMatchMethodE18ScriptingMethodPtr
6460:__ZN10MonoScriptD2Ev
6461:__ZN10MonoScriptD0Ev
6462:__ZN10MonoScript17MainThreadCleanupEv
6463:__ZN10MonoScript13AwakeFromLoadE17AwakeFromLoadMode
6464:__ZN10MonoScript21AwakeFromLoadThreadedEv
6465:__ZNK10MonoScript22GetTypeVirtualInternalEv
6466:__ZN10MonoScript23VirtualRedirectTransferER19StreamedBinaryWrite
6467:__ZN10MonoScript23VirtualRedirectTransferER18StreamedBinaryRead
6468:__ZN10MonoScript23VirtualRedirectTransferER24GenerateTypeTreeTransfer
6469:__ZN10MonoScript23VirtualRedirectTransferER14SafeBinaryRead
6470:__ZNK10MonoScript18GetScriptClassNameEv
6471:__ZN10MonoScript8TransferI14SafeBinaryReadEEvRT_
6472:__ZN10MonoScript8TransferI24GenerateTypeTreeTransferEEvRT_
6473:__ZN10MonoScript8TransferI18StreamedBinaryReadEEvRT_
6474:__ZN10MonoScript8TransferI19StreamedBinaryWriteEEvRT_
6475:__ZN10MonoScript7RebuildE17ScriptingClassPtr
